

Microchip MPLAB XC8 Assembler V2.41 build 20230208172133 
                                                                                               Wed Dec 20 17:33:12 2023

Microchip MPLAB XC8 C Compiler v2.41 (Free license) build 20230208172133 Og1 
     1                           	processor	18F4580
     2                           	fnconf	rparam,??,?,0
     3                           	pagewidth 120
     4                           	opt	flic
     5                           	psect	idataCOMRAM,global,class=CODE,delta=1,noexec
     6                           	psect	idataBANK0,global,class=CODE,delta=1,noexec
     7                           	psect	smallconst,global,reloc=2,class=SMALLCONST,delta=1,noexec
     8                           	psect	cinit,global,reloc=2,class=CODE,delta=1
     9                           	psect	bssCOMRAM,global,class=COMRAM,space=1,delta=1,lowdata,noexec
    10                           	psect	dataCOMRAM,global,class=COMRAM,space=1,delta=1,lowdata,noexec
    11                           	psect	dataBANK0,global,class=BANK0,space=1,delta=1,lowdata,noexec
    12                           	psect	cstackCOMRAM,global,class=COMRAM,space=1,delta=1,lowdata,noexec
    13                           	psect	text0,global,reloc=2,class=CODE,delta=1
    14                           	psect	text1,global,reloc=2,class=CODE,delta=1
    15                           	psect	text2,global,reloc=2,class=CODE,delta=1
    16                           	psect	text3,global,reloc=2,class=CODE,delta=1
    17                           	psect	text4,global,reloc=2,class=CODE,delta=1
    18                           	psect	text5,global,reloc=2,class=CODE,delta=1
    19                           	psect	text6,global,reloc=2,class=CODE,delta=1
    20                           	psect	text7,global,reloc=2,class=CODE,delta=1
    21                           	psect	text8,global,reloc=2,class=CODE,delta=1
    22                           	psect	text9,global,reloc=2,class=CODE,delta=1
    23                           	psect	text10,global,reloc=2,class=CODE,delta=1
    24                           	psect	text11,global,reloc=2,class=CODE,delta=1,group=1
    25                           	psect	text12,global,reloc=2,class=CODE,delta=1,group=1
    26                           	psect	text13,global,reloc=2,class=CODE,delta=1
    27                           	psect	text14,global,reloc=2,class=CODE,delta=1
    28                           	psect	text15,global,reloc=2,class=CODE,delta=1
    29                           	psect	text16,global,reloc=2,class=CODE,delta=1,group=1
    30                           	psect	text17,global,reloc=2,class=CODE,delta=1,group=1
    31                           	psect	text18,global,reloc=2,class=CODE,delta=1
    32                           	psect	text19,global,reloc=2,class=CODE,delta=1
    33                           	psect	text20,global,reloc=2,class=CODE,delta=1
    34                           	psect	text21,global,reloc=2,class=CODE,delta=1,group=1
    35                           	psect	text22,global,reloc=2,class=CODE,delta=1,group=1
    36                           	psect	text23,global,reloc=2,class=CODE,delta=1,group=1
    37                           	psect	intcode,global,reloc=2,class=CODE,delta=1
    38                           	psect	intcode_body,global,reloc=2,class=CODE,delta=1
    39                           	psect	intsave_regs,global,class=BIGRAM,space=1,delta=1,noexec
    40                           	psect	rparam,global,class=COMRAM,space=1,delta=1,noexec
    41                           	psect	temp,global,ovrld,common,class=COMRAM,space=1,delta=1
    42                           	psect	idloc,global,abs,ovrld,class=IDLOC,space=5,delta=1,noexec
    43                           	psect	config,global,abs,ovrld,class=CONFIG,space=4,delta=1,noexec
    44   000000                     
    45                           ; Version 2.20
    46                           ; Generated 12/02/2020 GMT
    47                           ; 
    48                           ; Copyright © 2020, Microchip Technology Inc. and its subsidiaries ("Microchip")
    49                           ; All rights reserved.
    50                           ; 
    51                           ; This software is developed by Microchip Technology Inc. and its subsidiaries ("Microch
      +                          ip").
    52                           ; 
    53                           ; Redistribution and use in source and binary forms, with or without modification, are
    54                           ; permitted provided that the following conditions are met:
    55                           ; 
    56                           ;     1. Redistributions of source code must retain the above copyright notice, this lis
      +                          t of
    57                           ;        conditions and the following disclaimer.
    58                           ; 
    59                           ;     2. Redistributions in binary form must reproduce the above copyright notice, this 
      +                          list
    60                           ;        of conditions and the following disclaimer in the documentation and/or other
    61                           ;        materials provided with the distribution.
    62                           ; 
    63                           ;     3. Microchip's name may not be used to endorse or promote products derived from th
      +                          is
    64                           ;        software without specific prior written permission.
    65                           ; 
    66                           ; THIS SOFTWARE IS PROVIDED BY MICROCHIP "AS IS" AND ANY EXPRESS OR IMPLIED WARRANTIES,
    67                           ; INCLUDING, BUT NOT LIMITED TO, THE IMPLIED WARRANTIES OF MERCHANTABILITY AND FITNESS F
      +                          OR
    68                           ; PURPOSE ARE DISCLAIMED.  IN NO EVENT SHALL MICROCHIP BE LIABLE FOR ANY DIRECT, INDIREC
      +                          T,
    69                           ; INCIDENTAL, SPECIAL, EXEMPLARY, OR CONSEQUENTIAL DAMAGES (INCLUDING BUT NOT LIMITED TO
    70                           ; PROCUREMENT OF SUBSTITUTE GOODS OR SERVICES; LOSS OF USE, DATA OR PROFITS; OR BUSINESS
    71                           ; INTERRUPTION) HOWSOEVER CAUSED AND ON ANY THEORY OF LIABILITY, WHETHER IN CONTRACT, ST
      +                          RICT
    72                           ; LIABILITY, OR TORT (INCLUDING NEGLIGENCE OR OTHERWISE) ARISING IN ANY WAY OUT OF THE U
      +                          SE OF
    73                           ; THIS SOFTWARE, EVEN IF ADVISED OF THE POSSIBILITY OF SUCH DAMAGE.
    74                           ; 
    75                           ; 
    76                           ; Code-generator required, PIC18F4580 Definitions
    77                           ; 
    78                           ; SFR Addresses
    79   000000                     
    80                           	psect	idataCOMRAM
    81   001AA0                     __pidataCOMRAM:
    82                           	callstack 0
    83                           
    84                           ;initializer for _menu_opt
    85   001AA0  72                 	db	low STR_9
    86   001AA1  06                 	db	high STR_9
    87   001AA2  8C                 	db	low STR_10
    88   001AA3  06                 	db	high STR_10
    89   001AA4  7F                 	db	low STR_11
    90   001AA5  06                 	db	high STR_11
    91   001AA6  65                 	db	low STR_12
    92   001AA7  06                 	db	high STR_12
    93   001AA8  99                 	db	low STR_13
    94   001AA9  06                 	db	high STR_13
    95                           
    96                           ;initializer for enter_password@F10476
    97   001AAA  31                 	db	49
    98   001AAB  30                 	db	48
    99   001AAC  31                 	db	49
   100   001AAD  30                 	db	48
   101   001AAE  00                 	db	0
   102                           
   103                           ;initializer for _sec
   104   001AAF  3C                 	db	60
   105                           
   106                           ;initializer for read_switches@once
   107   001AB0  01                 	db	1
   108                           
   109                           	psect	idataBANK0
   110   001AB1                     __pidataBANK0:
   111                           	callstack 0
   112                           
   113                           ;initializer for _signature
   114   001AB1  D5                 	db	low STR_1
   115   001AB2  06                 	db	high STR_1
   116   001AB3  D2                 	db	low STR_2
   117   001AB4  06                 	db	high STR_2
   118   001AB5  C6                 	db	low STR_3
   119   001AB6  06                 	db	high STR_3
   120   001AB7  C9                 	db	low STR_4
   121   001AB8  06                 	db	high STR_4
   122   001AB9  CC                 	db	low STR_5
   123   001ABA  06                 	db	high STR_5
   124   001ABB  CF                 	db	low STR_6
   125   001ABC  06                 	db	high STR_6
   126   001ABD  DB                 	db	low STR_7
   127   001ABE  06                 	db	high STR_7
   128   001ABF  C3                 	db	low STR_8
   129   001AC0  06                 	db	high STR_8
   130   000000                     _ADCON0	set	4034
   131   000000                     _TRISD	set	3989
   132   000000                     _PSA	set	32427
   133   000000                     _T0CS	set	32429
   134   000000                     _T08BIT	set	32430
   135   000000                     _TMR0IF	set	32658
   136   000000                     _TMR0IE	set	32661
   137   000000                     _PEIE	set	32662
   138   000000                     _GO	set	32273
   139   000000                     _ADFM	set	32263
   140   000000                     _ADCS0	set	32256
   141   000000                     _ADCS1	set	32257
   142   000000                     _ADCS2	set	32258
   143   000000                     _ACQT0	set	32259
   144   000000                     _ACQT1	set	32260
   145   000000                     _PCFG0	set	32264
   146   000000                     _PCFG1	set	32265
   147   000000                     _PCFG2	set	32266
   148   000000                     _PCFG3	set	32267
   149   000000                     _VCFG0	set	32268
   150   000000                     _RB4	set	31756
   151   000000                     _RB3	set	31755
   152   000000                     _RB2	set	31754
   153   000000                     _RB1	set	31753
   154   000000                     _RB7	set	31759
   155   000000                     _RB6	set	31758
   156   000000                     _RD7	set	31775
   157   000000                     _RC0	set	31760
   158   000000                     _RC2	set	31762
   159   000000                     _RB5	set	31757
   160   000000                     _RC1	set	31761
   161   000000                     _TRISB	set	3987
   162   000000                     _TRISC	set	3988
   163   000000                     _PORTD	set	3971
   164   000000                     _TRISD7	set	31919
   165   000000                     _ACQT2	set	32261
   166   000000                     _VCFG1	set	32269
   167   000000                     _ADON	set	32272
   168   000000                     _RBPU	set	32655
   169   000000                     _GIE	set	32663
   170   000000                     _TMR0	set	4054
   171   000000                     _ADRESH	set	4036
   172   000000                     _ADRESL	set	4035
   173   000000                     _TMR0ON	set	32431
   174                           
   175                           	psect	smallconst
   176   000600                     __psmallconst:
   177                           	callstack 0
   178   000600  00                 	db	0
   179   000601                     STR_40:
   180   000601  20                 	db	32
   181   000602  41                 	db	65	;'A'
   182   000603  74                 	db	116	;'t'
   183   000604  74                 	db	116	;'t'
   184   000605  65                 	db	101	;'e'
   185   000606  6D                 	db	109	;'m'
   186   000607  70                 	db	112	;'p'
   187   000608  74                 	db	116	;'t'
   188   000609  73                 	db	115	;'s'
   189   00060A  20                 	db	32
   190   00060B  6F                 	db	111	;'o'
   191   00060C  76                 	db	118	;'v'
   192   00060D  65                 	db	101	;'e'
   193   00060E  72                 	db	114	;'r'
   194   00060F  20                 	db	32
   195   000610  20                 	db	32
   196   000611  00                 	db	0
   197   000612                     STR_37:
   198   000612  20                 	db	32
   199   000613  57                 	db	87	;'W'
   200   000614  72                 	db	114	;'r'
   201   000615  6F                 	db	111	;'o'
   202   000616  6E                 	db	110	;'n'
   203   000617  67                 	db	103	;'g'
   204   000618  20                 	db	32
   205   000619  50                 	db	80	;'P'
   206   00061A  61                 	db	97	;'a'
   207   00061B  73                 	db	115	;'s'
   208   00061C  73                 	db	115	;'s'
   209   00061D  77                 	db	119	;'w'
   210   00061E  6F                 	db	111	;'o'
   211   00061F  72                 	db	114	;'r'
   212   000620  64                 	db	100	;'d'
   213   000621  20                 	db	32
   214   000622  00                 	db	0
   215   000623                     STR_32:
   216   000623  20                 	db	32
   217   000624  45                 	db	69	;'E'
   218   000625  6E                 	db	110	;'n'
   219   000626  74                 	db	116	;'t'
   220   000627  65                 	db	101	;'e'
   221   000628  72                 	db	114	;'r'
   222   000629  20                 	db	32
   223   00062A  50                 	db	80	;'P'
   224   00062B  61                 	db	97	;'a'
   225   00062C  73                 	db	115	;'s'
   226   00062D  73                 	db	115	;'s'
   227   00062E  77                 	db	119	;'w'
   228   00062F  6F                 	db	111	;'o'
   229   000630  72                 	db	114	;'r'
   230   000631  64                 	db	100	;'d'
   231   000632  20                 	db	32
   232   000633  00                 	db	0
   233   000634                     STR_34:
   234   000634  43                 	db	67	;'C'
   235   000635  6F                 	db	111	;'o'
   236   000636  72                 	db	114	;'r'
   237   000637  72                 	db	114	;'r'
   238   000638  65                 	db	101	;'e'
   239   000639  63                 	db	99	;'c'
   240   00063A  74                 	db	116	;'t'
   241   00063B  20                 	db	32
   242   00063C  70                 	db	112	;'p'
   243   00063D  61                 	db	97	;'a'
   244   00063E  73                 	db	115	;'s'
   245   00063F  73                 	db	115	;'s'
   246   000640  77                 	db	119	;'w'
   247   000641  6F                 	db	111	;'o'
   248   000642  72                 	db	114	;'r'
   249   000643  64                 	db	100	;'d'
   250   000644  00                 	db	0
   251   000645                     STR_14:
   252   000645  20                 	db	32
   253   000646  20                 	db	32
   254   000647  20                 	db	32
   255   000648  20                 	db	32
   256   000649  20                 	db	32
   257   00064A  20                 	db	32
   258   00064B  20                 	db	32
   259   00064C  20                 	db	32
   260   00064D  20                 	db	32
   261   00064E  20                 	db	32
   262   00064F  20                 	db	32
   263   000650  20                 	db	32
   264   000651  20                 	db	32
   265   000652  20                 	db	32
   266   000653  20                 	db	32
   267   000654  20                 	db	32
   268   000655  00                 	db	0
   269   000656                     STR_38:
   270   000656  20                 	db	32
   271   000657  2D                 	db	45
   272   000658  3E                 	db	62	;'>'
   273   000659  20                 	db	32
   274   00065A  61                 	db	97	;'a'
   275   00065B  74                 	db	116	;'t'
   276   00065C  74                 	db	116	;'t'
   277   00065D  65                 	db	101	;'e'
   278   00065E  6D                 	db	109	;'m'
   279   00065F  70                 	db	112	;'p'
   280   000660  74                 	db	116	;'t'
   281   000661  73                 	db	115	;'s'
   282   000662  20                 	db	32
   283   000663  20                 	db	32
   284   000664  00                 	db	0
   285   000665                     STR_12:
   286   000665  53                 	db	83	;'S'
   287   000666  65                 	db	101	;'e'
   288   000667  74                 	db	116	;'t'
   289   000668  20                 	db	32
   290   000669  74                 	db	116	;'t'
   291   00066A  69                 	db	105	;'i'
   292   00066B  6D                 	db	109	;'m'
   293   00066C  65                 	db	101	;'e'
   294   00066D  20                 	db	32
   295   00066E  20                 	db	32
   296   00066F  20                 	db	32
   297   000670  20                 	db	32
   298   000671  00                 	db	0
   299   000672                     STR_9:
   300   000672  56                 	db	86	;'V'
   301   000673  69                 	db	105	;'i'
   302   000674  65                 	db	101	;'e'
   303   000675  77                 	db	119	;'w'
   304   000676  20                 	db	32
   305   000677  6C                 	db	108	;'l'
   306   000678  6F                 	db	111	;'o'
   307   000679  67                 	db	103	;'g'
   308   00067A  20                 	db	32
   309   00067B  20                 	db	32
   310   00067C  20                 	db	32
   311   00067D  20                 	db	32
   312   00067E  00                 	db	0
   313   00067F                     STR_11:
   314   00067F  43                 	db	67	;'C'
   315   000680  6C                 	db	108	;'l'
   316   000681  65                 	db	101	;'e'
   317   000682  61                 	db	97	;'a'
   318   000683  72                 	db	114	;'r'
   319   000684  20                 	db	32
   320   000685  6C                 	db	108	;'l'
   321   000686  6F                 	db	111	;'o'
   322   000687  67                 	db	103	;'g'
   323   000688  20                 	db	32
   324   000689  20                 	db	32
   325   00068A  20                 	db	32
   326   00068B  00                 	db	0
   327   00068C                     STR_10:
   328   00068C  44                 	db	68	;'D'
   329   00068D  6F                 	db	111	;'o'
   330   00068E  77                 	db	119	;'w'
   331   00068F  6E                 	db	110	;'n'
   332   000690  20                 	db	32
   333   000691  2D                 	db	45
   334   000692  20                 	db	32
   335   000693  6C                 	db	108	;'l'
   336   000694  6F                 	db	111	;'o'
   337   000695  67                 	db	103	;'g'
   338   000696  20                 	db	32
   339   000697  20                 	db	32
   340   000698  00                 	db	0
   341   000699                     STR_13:
   342   000699  43                 	db	67	;'C'
   343   00069A  68                 	db	104	;'h'
   344   00069B  61                 	db	97	;'a'
   345   00069C  6E                 	db	110	;'n'
   346   00069D  67                 	db	103	;'g'
   347   00069E  65                 	db	101	;'e'
   348   00069F  20                 	db	32
   349   0006A0  70                 	db	112	;'p'
   350   0006A1  61                 	db	97	;'a'
   351   0006A2  73                 	db	115	;'s'
   352   0006A3  73                 	db	115	;'s'
   353   0006A4  20                 	db	32
   354   0006A5  00                 	db	0
   355   0006A6                     STR_41:
   356   0006A6  20                 	db	32
   357   0006A7  57                 	db	87	;'W'
   358   0006A8  61                 	db	97	;'a'
   359   0006A9  69                 	db	105	;'i'
   360   0006AA  74                 	db	116	;'t'
   361   0006AB  20                 	db	32
   362   0006AC  66                 	db	102	;'f'
   363   0006AD  6F                 	db	111	;'o'
   364   0006AE  72                 	db	114	;'r'
   365   0006AF  20                 	db	32
   366   0006B0  00                 	db	0
   367   0006B1                     STR_31:
   368   0006B1  31                 	db	49	;'1'
   369   0006B2  32                 	db	50	;'2'
   370   0006B3  3A                 	db	58	;':'
   371   0006B4  30                 	db	48	;'0'
   372   0006B5  30                 	db	48	;'0'
   373   0006B6  3A                 	db	58	;':'
   374   0006B7  30                 	db	48	;'0'
   375   0006B8  30                 	db	48	;'0'
   376   0006B9  00                 	db	0
   377   0006BA                     STR_15:
   378   0006BA  54                 	db	84	;'T'
   379   0006BB  49                 	db	73	;'I'
   380   0006BC  4D                 	db	77	;'M'
   381   0006BD  45                 	db	69	;'E'
   382   0006BE  00                 	db	0
   383   0006BF                     STR_42:
   384   0006BF  73                 	db	115	;'s'
   385   0006C0  65                 	db	101	;'e'
   386   0006C1  63                 	db	99	;'c'
   387   0006C2  00                 	db	0
   388   0006C3                     STR_8:
   389   0006C3  43                 	db	67	;'C'
   390   0006C4  20                 	db	32
   391   0006C5  00                 	db	0
   392   0006C6                     STR_3:
   393   0006C6  47                 	db	71	;'G'
   394   0006C7  31                 	db	49	;'1'
   395   0006C8  00                 	db	0
   396   0006C9                     STR_4:
   397   0006C9  47                 	db	71	;'G'
   398   0006CA  32                 	db	50	;'2'
   399   0006CB  00                 	db	0
   400   0006CC                     STR_5:
   401   0006CC  47                 	db	71	;'G'
   402   0006CD  33                 	db	51	;'3'
   403   0006CE  00                 	db	0
   404   0006CF                     STR_6:
   405   0006CF  47                 	db	71	;'G'
   406   0006D0  34                 	db	52	;'4'
   407   0006D1  00                 	db	0
   408   0006D2                     STR_2:
   409   0006D2  47                 	db	71	;'G'
   410   0006D3  4E                 	db	78	;'N'
   411   0006D4  00                 	db	0
   412   0006D5                     STR_1:
   413   0006D5  4F                 	db	79	;'O'
   414   0006D6  4E                 	db	78	;'N'
   415   0006D7  00                 	db	0
   416   0006D8                     STR_17:
   417   0006D8  53                 	db	83	;'S'
   418   0006D9  50                 	db	80	;'P'
   419   0006DA  00                 	db	0
   420   0006DB                     STR_7:
   421   0006DB  47                 	db	71	;'G'
   422   0006DC  52                 	db	82	;'R'
   423   0006DD  00                 	db	0
   424   0006DE                     STR_16:
   425   0006DE  45                 	db	69	;'E'
   426   0006DF  56                 	db	86	;'V'
   427   0006E0  00                 	db	0
   428   0006E1  00                 	db	0	; dummy byte at the end
   429   000000                     
   430                           ; #config settings
   431                           
   432                           	psect	cinit
   433   001866                     __pcinit:
   434                           	callstack 0
   435   001866                     start_initialization:
   436                           	callstack 0
   437   001866                     __initialization:
   438                           	callstack 0
   439                           
   440                           ; Initialize objects allocated to BANK0 (16 bytes)
   441                           ; load TBLPTR registers with __pidataBANK0
   442   001866  0EB1               	movlw	low __pidataBANK0
   443   001868  6EF6               	movwf	tblptrl,c
   444   00186A  0E1A               	movlw	high __pidataBANK0
   445   00186C  6EF7               	movwf	tblptrh,c
   446   00186E  0E00               	movlw	low (__pidataBANK0 shr (0+16))
   447   001870  6EF8               	movwf	tblptru,c
   448   001872  EE00  F060         	lfsr	0,__pdataBANK0
   449   001876  EE10 F010          	lfsr	1,16
   450   00187A                     copy_data0:
   451   00187A  0009               	tblrd		*+
   452   00187C  CFF5 FFEE          	movff	tablat,postinc0
   453   001880  50E5               	movf	postdec1,w,c
   454   001882  50E1               	movf	fsr1l,w,c
   455   001884  E1FA               	bnz	copy_data0
   456                           
   457                           ; Initialize objects allocated to COMRAM (17 bytes)
   458                           ; load TBLPTR registers with __pidataCOMRAM
   459   001886  0EA0               	movlw	low __pidataCOMRAM
   460   001888  6EF6               	movwf	tblptrl,c
   461   00188A  0E1A               	movlw	high __pidataCOMRAM
   462   00188C  6EF7               	movwf	tblptrh,c
   463   00188E  0E00               	movlw	low (__pidataCOMRAM shr (0+16))
   464   001890  6EF8               	movwf	tblptru,c
   465   001892  EE00  F03D         	lfsr	0,__pdataCOMRAM
   466   001896  EE10 F011          	lfsr	1,17
   467   00189A                     copy_data1:
   468   00189A  0009               	tblrd		*+
   469   00189C  CFF5 FFEE          	movff	tablat,postinc0
   470   0018A0  50E5               	movf	postdec1,w,c
   471   0018A2  50E1               	movf	fsr1l,w,c
   472   0018A4  E1FA               	bnz	copy_data1
   473                           
   474                           ; Clear objects allocated to COMRAM (6 bytes)
   475   0018A6  6A53               	clrf	(__pbssCOMRAM+5)& (0+255),c
   476   0018A8  6A52               	clrf	(__pbssCOMRAM+4)& (0+255),c
   477   0018AA  6A51               	clrf	(__pbssCOMRAM+3)& (0+255),c
   478   0018AC  6A50               	clrf	(__pbssCOMRAM+2)& (0+255),c
   479   0018AE  6A4F               	clrf	(__pbssCOMRAM+1)& (0+255),c
   480   0018B0  6A4E               	clrf	__pbssCOMRAM& (0+255),c
   481   0018B2                     end_of_initialization:
   482                           	callstack 0
   483   0018B2                     __end_of__initialization:
   484                           	callstack 0
   485   0018B2  9054               	bcf	int$flags,0,c	;clear compiler interrupt flag (level 1)
   486   0018B4  9254               	bcf	int$flags,1,c	;clear compiler interrupt flag (level 2)
   487   0018B6  0E00               	movlw	low (__Lsmallconst shr (0+16))
   488   0018B8  6EF8               	movwf	tblptru,c
   489   0018BA  0E06               	movlw	high __Lsmallconst
   490   0018BC  6EF7               	movwf	tblptrh,c
   491   0018BE  0100               	movlb	0
   492   0018C0  EFA7  F009         	goto	_main	;jump to C main() function
   493                           
   494                           	psect	bssCOMRAM
   495   00004E                     __pbssCOMRAM:
   496                           	callstack 0
   497   00004E                     _count:
   498                           	callstack 0
   499   00004E                     	ds	2
   500   000050                     display_event@flag:
   501                           	callstack 0
   502   000050                     	ds	1
   503   000051                     display_event@gear:
   504                           	callstack 0
   505   000051                     	ds	1
   506   000052                     read_switches@key:
   507                           	callstack 0
   508   000052                     	ds	1
   509   000053                     _pass_flag:
   510                           	callstack 0
   511   000053                     	ds	1
   512                           
   513                           	psect	dataCOMRAM
   514   00003D                     __pdataCOMRAM:
   515                           	callstack 0
   516   00003D                     _menu_opt:
   517                           	callstack 0
   518   00003D                     	ds	10
   519   000047                     enter_password@F10476:
   520                           	callstack 0
   521   000047                     	ds	5
   522   00004C                     _sec:
   523                           	callstack 0
   524   00004C                     	ds	1
   525   00004D                     read_switches@once:
   526                           	callstack 0
   527   00004D                     	ds	1
   528                           
   529                           	psect	dataBANK0
   530   000060                     __pdataBANK0:
   531                           	callstack 0
   532   000060                     _signature:
   533                           	callstack 0
   534   000060                     	ds	16
   535                           
   536                           	psect	cstackCOMRAM
   537   000001                     __pcstackCOMRAM:
   538                           	callstack 0
   539   000001                     ?_read_adc:
   540                           	callstack 0
   541   000001                     ?___awdiv:
   542                           	callstack 0
   543   000001                     ?___awmod:
   544                           	callstack 0
   545   000001                     ?___lwdiv:
   546                           	callstack 0
   547   000001                     ?___lwmod:
   548                           	callstack 0
   549   000001                     clcd_write@control_bit:
   550                           	callstack 0
   551   000001                     read_switches@detection:
   552                           	callstack 0
   553   000001                     ___awdiv@dividend:
   554                           	callstack 0
   555   000001                     ___awmod@dividend:
   556                           	callstack 0
   557   000001                     ___lwdiv@dividend:
   558                           	callstack 0
   559   000001                     ___lwmod@dividend:
   560                           	callstack 0
   561                           
   562                           ; 2 bytes @ 0x0
   563   000001                     	ds	1
   564   000002                     clcd_write@byte:
   565                           	callstack 0
   566                           
   567                           ; 1 bytes @ 0x1
   568   000002                     	ds	1
   569   000003                     ??_init_clcd:
   570   000003                     ??_read_adc:
   571   000003                     clcd_print@data:
   572                           	callstack 0
   573   000003                     ___awdiv@divisor:
   574                           	callstack 0
   575   000003                     ___awmod@divisor:
   576                           	callstack 0
   577   000003                     ___lwdiv@divisor:
   578                           	callstack 0
   579   000003                     ___lwmod@divisor:
   580                           	callstack 0
   581                           
   582                           ; 2 bytes @ 0x2
   583   000003                     	ds	2
   584   000005                     clcd_print@addr:
   585                           	callstack 0
   586   000005                     ___awdiv@counter:
   587                           	callstack 0
   588   000005                     ___awmod@counter:
   589                           	callstack 0
   590   000005                     ___lwmod@counter:
   591                           	callstack 0
   592   000005                     ___lwdiv@quotient:
   593                           	callstack 0
   594                           
   595                           ; 2 bytes @ 0x4
   596   000005                     	ds	1
   597   000006                     display_event@key:
   598                           	callstack 0
   599   000006                     ___awdiv@sign:
   600                           	callstack 0
   601   000006                     ___awmod@sign:
   602                           	callstack 0
   603                           
   604                           ; 1 bytes @ 0x5
   605   000006                     	ds	1
   606   000007                     ___lwdiv@counter:
   607                           	callstack 0
   608   000007                     ___awdiv@quotient:
   609                           	callstack 0
   610                           
   611                           ; 2 bytes @ 0x6
   612   000007                     	ds	1
   613   000008                     read_adc@channel:
   614                           	callstack 0
   615                           
   616                           ; 1 bytes @ 0x7
   617   000008                     	ds	1
   618   000009                     ?___xxtofl:
   619                           	callstack 0
   620   000009                     clcd_putch@addr:
   621                           	callstack 0
   622   000009                     ___xxtofl@val:
   623                           	callstack 0
   624                           
   625                           ; 4 bytes @ 0x8
   626   000009                     	ds	1
   627   00000A                     clcd_putch@data:
   628                           	callstack 0
   629                           
   630                           ; 1 bytes @ 0x9
   631   00000A                     	ds	1
   632   00000B                     ??_menu:
   633   00000B                     display_speed@speed:
   634                           	callstack 0
   635                           
   636                           ; 2 bytes @ 0xA
   637   00000B                     	ds	2
   638   00000D                     ??___xxtofl:
   639   00000D                     menu@pre_key:
   640                           	callstack 0
   641                           
   642                           ; 1 bytes @ 0xC
   643   00000D                     	ds	1
   644   00000E                     menu@star:
   645                           	callstack 0
   646                           
   647                           ; 1 bytes @ 0xD
   648   00000E                     	ds	1
   649   00000F                     menu@line:
   650                           	callstack 0
   651                           
   652                           ; 1 bytes @ 0xE
   653   00000F                     	ds	1
   654   000010                     menu@menu_key:
   655                           	callstack 0
   656                           
   657                           ; 1 bytes @ 0xF
   658   000010                     	ds	1
   659   000011                     ??_enter_password:
   660   000011                     ___xxtofl@sign:
   661                           	callstack 0
   662                           
   663                           ; 1 bytes @ 0x10
   664   000011                     	ds	1
   665   000012                     ___xxtofl@exp:
   666                           	callstack 0
   667                           
   668                           ; 1 bytes @ 0x11
   669   000012                     	ds	1
   670   000013                     ___xxtofl@arg:
   671                           	callstack 0
   672   000013                     enter_password@password:
   673                           	callstack 0
   674                           
   675                           ; 5 bytes @ 0x12
   676   000013                     	ds	4
   677   000017                     ?___fldiv:
   678                           	callstack 0
   679   000017                     ___fldiv@b:
   680                           	callstack 0
   681                           
   682                           ; 4 bytes @ 0x16
   683   000017                     	ds	1
   684   000018                     enter_password@input_pass:
   685                           	callstack 0
   686                           
   687                           ; 5 bytes @ 0x17
   688   000018                     	ds	3
   689   00001B                     ___fldiv@a:
   690                           	callstack 0
   691                           
   692                           ; 4 bytes @ 0x1A
   693   00001B                     	ds	2
   694   00001D                     enter_password@pass_key:
   695                           	callstack 0
   696                           
   697                           ; 1 bytes @ 0x1C
   698   00001D                     	ds	1
   699   00001E                     enter_password@attempt:
   700                           	callstack 0
   701                           
   702                           ; 1 bytes @ 0x1D
   703   00001E                     	ds	1
   704   00001F                     ??___fldiv:
   705   00001F                     enter_password@count:
   706                           	callstack 0
   707                           
   708                           ; 1 bytes @ 0x1E
   709   00001F                     	ds	1
   710   000020                     enter_password@wait:
   711                           	callstack 0
   712                           
   713                           ; 2 bytes @ 0x1F
   714   000020                     	ds	2
   715   000022                     enter_password@j:
   716                           	callstack 0
   717                           
   718                           ; 2 bytes @ 0x21
   719   000022                     	ds	1
   720   000023                     ___fldiv@rem:
   721                           	callstack 0
   722                           
   723                           ; 4 bytes @ 0x22
   724   000023                     	ds	1
   725   000024                     enter_password@ind:
   726                           	callstack 0
   727                           
   728                           ; 1 bytes @ 0x23
   729   000024                     	ds	3
   730   000027                     ___fldiv@sign:
   731                           	callstack 0
   732                           
   733                           ; 1 bytes @ 0x26
   734   000027                     	ds	1
   735   000028                     ___fldiv@new_exp:
   736                           	callstack 0
   737                           
   738                           ; 2 bytes @ 0x27
   739   000028                     	ds	2
   740   00002A                     ___fldiv@grs:
   741                           	callstack 0
   742                           
   743                           ; 4 bytes @ 0x29
   744   00002A                     	ds	4
   745   00002E                     ___fldiv@bexp:
   746                           	callstack 0
   747                           
   748                           ; 1 bytes @ 0x2D
   749   00002E                     	ds	1
   750   00002F                     ___fldiv@aexp:
   751                           	callstack 0
   752                           
   753                           ; 1 bytes @ 0x2E
   754   00002F                     	ds	1
   755   000030                     ?___fltol:
   756                           	callstack 0
   757   000030                     ___fltol@f1:
   758                           	callstack 0
   759                           
   760                           ; 4 bytes @ 0x2F
   761   000030                     	ds	4
   762   000034                     ??___fltol:
   763                           
   764                           ; 1 bytes @ 0x33
   765   000034                     	ds	4
   766   000038                     ___fltol@sign1:
   767                           	callstack 0
   768                           
   769                           ; 1 bytes @ 0x37
   770   000038                     	ds	1
   771   000039                     ___fltol@exp1:
   772                           	callstack 0
   773                           
   774                           ; 1 bytes @ 0x38
   775   000039                     	ds	1
   776   00003A                     main@adc_val:
   777                           	callstack 0
   778                           
   779                           ; 2 bytes @ 0x39
   780   00003A                     	ds	2
   781   00003C                     main@key:
   782                           	callstack 0
   783                           
   784                           ; 1 bytes @ 0x3B
   785   00003C                     	ds	1
   786                           
   787 ;;
   788 ;;Main: autosize = 0, tempsize = 0, incstack = 0, save=0
   789 ;;
   790 ;; *************** function _main *****************
   791 ;; Defined at:
   792 ;;		line 23 in file "main.c"
   793 ;; Parameters:    Size  Location     Type
   794 ;;		None
   795 ;; Auto vars:     Size  Location     Type
   796 ;;  adc_val         2   57[COMRAM] unsigned short 
   797 ;;  key             1   59[COMRAM] unsigned char 
   798 ;; Return value:  Size  Location     Type
   799 ;;                  1    wreg      void 
   800 ;; Registers used:
   801 ;;		wreg, fsr1l, fsr1h, fsr2l, fsr2h, status,2, status,0, tblptrl, tblptrh, tblptru, prodl, prodh, cstack
   802 ;; Tracked objects:
   803 ;;		On entry : 0/0
   804 ;;		On exit  : 0/0
   805 ;;		Unchanged: 0/0
   806 ;; Data sizes:     COMRAM   BANK0   BANK1   BANK2   BANK3   BANK4   BANK5
   807 ;;      Params:         0       0       0       0       0       0       0
   808 ;;      Locals:         3       0       0       0       0       0       0
   809 ;;      Temps:          0       0       0       0       0       0       0
   810 ;;      Totals:         3       0       0       0       0       0       0
   811 ;;Total ram usage:        3 bytes
   812 ;; Hardware stack levels required when called: 5
   813 ;; This function calls:
   814 ;;		___fldiv
   815 ;;		___fltol
   816 ;;		___xxtofl
   817 ;;		_clcd_print
   818 ;;		_display_event
   819 ;;		_display_speed
   820 ;;		_display_time
   821 ;;		_enter_password
   822 ;;		_init_config
   823 ;;		_read_adc
   824 ;;		_read_switches
   825 ;; This function is called by:
   826 ;;		Startup code after reset
   827 ;; This function uses a non-reentrant model
   828 ;;
   829                           
   830                           	psect	text0
   831   00134E                     __ptext0:
   832                           	callstack 0
   833   00134E                     _main:
   834                           	callstack 26
   835   00134E                     
   836                           ;main.c: 24:     init_config();
   837   00134E  EC3E  F00D         	call	_init_config	;wreg free
   838   001352                     l36:
   839                           
   840                           ;main.c: 29:         adc_val = read_adc(4) / 10.23;
   841   001352  0E14               	movlw	20
   842   001354  6E1B               	movwf	___fldiv@a^0,c
   843   001356  0EAE               	movlw	174
   844   001358  6E1C               	movwf	(___fldiv@a+1)^0,c
   845   00135A  0E23               	movlw	35
   846   00135C  6E1D               	movwf	(___fldiv@a+2)^0,c
   847   00135E  0E41               	movlw	65
   848   001360  6E1E               	movwf	(___fldiv@a+3)^0,c
   849   001362  0E04               	movlw	4
   850   001364  EC8E  F00C         	call	_read_adc
   851   001368  C001  F009         	movff	?_read_adc,___xxtofl@val
   852   00136C  C002  F00A         	movff	?_read_adc+1,___xxtofl@val+1
   853   001370  6A0B               	clrf	(___xxtofl@val+2)^0,c
   854   001372  6A0C               	clrf	(___xxtofl@val+3)^0,c
   855   001374  0E00               	movlw	0
   856   001376  ECF3  F006         	call	___xxtofl
   857   00137A  C009  F017         	movff	?___xxtofl,___fldiv@b
   858   00137E  C00A  F018         	movff	?___xxtofl+1,___fldiv@b+1
   859   001382  C00B  F019         	movff	?___xxtofl+2,___fldiv@b+2
   860   001386  C00C  F01A         	movff	?___xxtofl+3,___fldiv@b+3
   861   00138A  EC71  F003         	call	___fldiv	;wreg free
   862   00138E  C017  F030         	movff	?___fldiv,___fltol@f1
   863   001392  C018  F031         	movff	?___fldiv+1,___fltol@f1+1
   864   001396  C019  F032         	movff	?___fldiv+2,___fltol@f1+2
   865   00139A  C01A  F033         	movff	?___fldiv+3,___fltol@f1+3
   866   00139E  EC24  F009         	call	___fltol	;wreg free
   867   0013A2  C030  F03A         	movff	?___fltol,main@adc_val
   868   0013A6  C031  F03B         	movff	?___fltol+1,main@adc_val+1
   869                           
   870                           ;main.c: 30:         key = read_switches(1);
   871   0013AA  0E01               	movlw	1
   872   0013AC  ECC8  F00B         	call	_read_switches
   873   0013B0  6E3C               	movwf	main@key^0,c
   874   0013B2                     
   875                           ;main.c: 32:         if (key == 10) {
   876   0013B2  0E0A               	movlw	10
   877   0013B4  183C               	xorwf	main@key^0,w,c
   878   0013B6  A4D8               	btfss	status,2,c
   879   0013B8  EFE0  F009         	goto	u2281
   880   0013BC  EFE2  F009         	goto	u2280
   881   0013C0                     u2281:
   882   0013C0  EFE4  F009         	goto	l2502
   883   0013C4                     u2280:
   884   0013C4                     
   885                           ;main.c: 33:             pass_flag = 1;
   886   0013C4  0E01               	movlw	1
   887   0013C6  6E53               	movwf	_pass_flag^0,c
   888   0013C8                     l2502:
   889                           
   890                           ;main.c: 36:         if (pass_flag == 1) {
   891   0013C8  0453               	decf	_pass_flag^0,w,c
   892   0013CA  A4D8               	btfss	status,2,c
   893   0013CC  EFEA  F009         	goto	u2291
   894   0013D0  EFEC  F009         	goto	u2290
   895   0013D4                     u2291:
   896   0013D4  EFF8  F009         	goto	l2508
   897   0013D8                     u2290:
   898   0013D8                     
   899                           ;main.c: 37:             clcd_print("                ", (0xC0 + (0)));
   900   0013D8  0E45               	movlw	low STR_14
   901   0013DA  6E03               	movwf	clcd_print@data^0,c
   902   0013DC  0E06               	movlw	high STR_14
   903   0013DE  6E04               	movwf	(clcd_print@data+1)^0,c
   904   0013E0  0EC0               	movlw	192
   905   0013E2  6E05               	movwf	clcd_print@addr^0,c
   906   0013E4  ECB6  F00C         	call	_clcd_print	;wreg free
   907   0013E8                     
   908                           ;main.c: 38:             enter_password();
   909   0013E8  EC3E  F005         	call	_enter_password	;wreg free
   910                           
   911                           ;main.c: 39:         } else {
   912   0013EC  EFA9  F009         	goto	l36
   913   0013F0                     l2508:
   914                           
   915                           ;main.c: 40:             clcd_print("TIME", (0x80 + (2)));
   916   0013F0  0EBA               	movlw	low STR_15
   917   0013F2  6E03               	movwf	clcd_print@data^0,c
   918   0013F4  0E06               	movlw	high STR_15
   919   0013F6  6E04               	movwf	(clcd_print@data+1)^0,c
   920   0013F8  0E82               	movlw	130
   921   0013FA  6E05               	movwf	clcd_print@addr^0,c
   922   0013FC  ECB6  F00C         	call	_clcd_print	;wreg free
   923                           
   924                           ;main.c: 41:             clcd_print("EV", (0x80 + (10)));
   925   001400  0EDE               	movlw	low STR_16
   926   001402  6E03               	movwf	clcd_print@data^0,c
   927   001404  0E06               	movlw	high STR_16
   928   001406  6E04               	movwf	(clcd_print@data+1)^0,c
   929   001408  0E8A               	movlw	138
   930   00140A  6E05               	movwf	clcd_print@addr^0,c
   931   00140C  ECB6  F00C         	call	_clcd_print	;wreg free
   932                           
   933                           ;main.c: 42:             clcd_print("SP", (0x80 + (14)));
   934   001410  0ED8               	movlw	low STR_17
   935   001412  6E03               	movwf	clcd_print@data^0,c
   936   001414  0E06               	movlw	high STR_17
   937   001416  6E04               	movwf	(clcd_print@data+1)^0,c
   938   001418  0E8E               	movlw	142
   939   00141A  6E05               	movwf	clcd_print@addr^0,c
   940   00141C  ECB6  F00C         	call	_clcd_print	;wreg free
   941                           
   942                           ;main.c: 44:             display_time();
   943   001420  EC47  F00D         	call	_display_time	;wreg free
   944   001424                     
   945                           ;main.c: 45:             display_event(key);
   946   001424  503C               	movf	main@key^0,w,c
   947   001426  EC81  F00A         	call	_display_event
   948   00142A                     
   949                           ;main.c: 46:             display_speed(adc_val);
   950   00142A  C03A  F00B         	movff	main@adc_val,display_speed@speed
   951   00142E  C03B  F00C         	movff	main@adc_val+1,display_speed@speed+1
   952   001432  ECD8  F00C         	call	_display_speed	;wreg free
   953   001436  EFA9  F009         	goto	l36
   954   00143A  EF07  F000         	goto	start
   955   00143E                     __end_of_main:
   956                           	callstack 0
   957                           
   958 ;; *************** function _read_adc *****************
   959 ;; Defined at:
   960 ;;		line 30 in file "adc.c"
   961 ;; Parameters:    Size  Location     Type
   962 ;;  channel         1    wreg     unsigned char 
   963 ;; Auto vars:     Size  Location     Type
   964 ;;  channel         1    7[COMRAM] unsigned char 
   965 ;; Return value:  Size  Location     Type
   966 ;;                  2    0[COMRAM] unsigned short 
   967 ;; Registers used:
   968 ;;		wreg, status,2, status,0
   969 ;; Tracked objects:
   970 ;;		On entry : 0/0
   971 ;;		On exit  : 0/0
   972 ;;		Unchanged: 0/0
   973 ;; Data sizes:     COMRAM   BANK0   BANK1   BANK2   BANK3   BANK4   BANK5
   974 ;;      Params:         2       0       0       0       0       0       0
   975 ;;      Locals:         1       0       0       0       0       0       0
   976 ;;      Temps:          5       0       0       0       0       0       0
   977 ;;      Totals:         8       0       0       0       0       0       0
   978 ;;Total ram usage:        8 bytes
   979 ;; Hardware stack levels used: 1
   980 ;; Hardware stack levels required when called: 1
   981 ;; This function calls:
   982 ;;		Nothing
   983 ;; This function is called by:
   984 ;;		_main
   985 ;; This function uses a non-reentrant model
   986 ;;
   987                           
   988                           	psect	text1
   989   00191C                     __ptext1:
   990                           	callstack 0
   991   00191C                     _read_adc:
   992                           	callstack 29
   993                           
   994                           ;incstack = 0
   995                           ;read_adc@channel stored from wreg
   996   00191C  6E08               	movwf	read_adc@channel^0,c
   997   00191E                     
   998                           ;adc.c: 30: unsigned short read_adc(unsigned char channel);adc.c: 31: {;adc.c: 32:     A
      +                          DCON0 = (ADCON0 & 0xC3) | (channel << 2);
   999   00191E  C008  F003         	movff	read_adc@channel,??_read_adc
  1000   001922  90D8               	bcf	status,0,c
  1001   001924  3603               	rlcf	??_read_adc^0,f,c
  1002   001926  90D8               	bcf	status,0,c
  1003   001928  3603               	rlcf	??_read_adc^0,f,c
  1004   00192A  50C2               	movf	194,w,c	;volatile
  1005   00192C  0BC3               	andlw	195
  1006   00192E  1003               	iorwf	??_read_adc^0,w,c
  1007   001930  6EC2               	movwf	194,c	;volatile
  1008   001932                     
  1009                           ;adc.c: 34:     GO = 1;
  1010   001932  82C2               	bsf	4034,1,c	;volatile
  1011                           
  1012                           ;adc.c: 35:     while ( GO )
  1013   001934  EFAE  F00C         	goto	l260
  1014   001938                     l2112:
  1015                           
  1016                           ;adc.c: 36:     {;adc.c: 37:         return (ADRESL | ((ADRESH & 0x03) << 8));
  1017   001938  CFC4 F003          	movff	4036,??_read_adc	;volatile
  1018   00193C  0E03               	movlw	3
  1019   00193E  1603               	andwf	??_read_adc^0,f,c
  1020   001940  5003               	movf	??_read_adc^0,w,c
  1021   001942  6E05               	movwf	(??_read_adc+2)^0,c
  1022   001944  6A04               	clrf	(??_read_adc+1)^0,c
  1023   001946  50C3               	movf	195,w,c	;volatile
  1024   001948  6E06               	movwf	(??_read_adc+3)^0,c
  1025   00194A  6A07               	clrf	(??_read_adc+4)^0,c
  1026   00194C  5004               	movf	(??_read_adc+1)^0,w,c
  1027   00194E  1006               	iorwf	(??_read_adc+3)^0,w,c
  1028   001950  6E01               	movwf	?_read_adc^0,c
  1029   001952  5005               	movf	(??_read_adc+2)^0,w,c
  1030   001954  1007               	iorwf	(??_read_adc+4)^0,w,c
  1031   001956  6E02               	movwf	(?_read_adc+1)^0,c
  1032   001958  EFB5  F00C         	goto	l262
  1033   00195C                     l260:
  1034                           
  1035                           ;adc.c: 35:     while ( GO )
  1036   00195C  B2C2               	btfsc	4034,1,c	;volatile
  1037   00195E  EFB3  F00C         	goto	u1661
  1038   001962  EFB5  F00C         	goto	u1660
  1039   001966                     u1661:
  1040   001966  EF9C  F00C         	goto	l2112
  1041   00196A                     u1660:
  1042   00196A                     l262:
  1043   00196A  0012               	return		;funcret
  1044   00196C                     __end_of_read_adc:
  1045                           	callstack 0
  1046                           
  1047 ;; *************** function _init_config *****************
  1048 ;; Defined at:
  1049 ;;		line 16 in file "main.c"
  1050 ;; Parameters:    Size  Location     Type
  1051 ;;		None
  1052 ;; Auto vars:     Size  Location     Type
  1053 ;;		None
  1054 ;; Return value:  Size  Location     Type
  1055 ;;                  1    wreg      void 
  1056 ;; Registers used:
  1057 ;;		wreg, status,2, status,0, cstack
  1058 ;; Tracked objects:
  1059 ;;		On entry : 0/0
  1060 ;;		On exit  : 0/0
  1061 ;;		Unchanged: 0/0
  1062 ;; Data sizes:     COMRAM   BANK0   BANK1   BANK2   BANK3   BANK4   BANK5
  1063 ;;      Params:         0       0       0       0       0       0       0
  1064 ;;      Locals:         0       0       0       0       0       0       0
  1065 ;;      Temps:          0       0       0       0       0       0       0
  1066 ;;      Totals:         0       0       0       0       0       0       0
  1067 ;;Total ram usage:        0 bytes
  1068 ;; Hardware stack levels used: 1
  1069 ;; Hardware stack levels required when called: 3
  1070 ;; This function calls:
  1071 ;;		_init_adc
  1072 ;;		_init_clcd
  1073 ;;		_init_matrix_keypad
  1074 ;;		_init_timer0
  1075 ;; This function is called by:
  1076 ;;		_main
  1077 ;; This function uses a non-reentrant model
  1078 ;;
  1079                           
  1080                           	psect	text2
  1081   001A7C                     __ptext2:
  1082                           	callstack 0
  1083   001A7C                     _init_config:
  1084                           	callstack 27
  1085   001A7C                     
  1086                           ;main.c: 17:     init_clcd();
  1087   001A7C  ECDE  F00A         	call	_init_clcd	;wreg free
  1088   001A80                     
  1089                           ;main.c: 18:     init_matrix_keypad();
  1090   001A80  EC61  F00D         	call	_init_matrix_keypad	;wreg free
  1091   001A84                     
  1092                           ;main.c: 19:     init_adc();
  1093   001A84  EC16  F00D         	call	_init_adc	;wreg free
  1094   001A88                     
  1095                           ;main.c: 20:     init_timer0();
  1096   001A88  EC25  F00D         	call	_init_timer0	;wreg free
  1097   001A8C  0012               	return		;funcret
  1098   001A8E                     __end_of_init_config:
  1099                           	callstack 0
  1100                           
  1101 ;; *************** function _init_timer0 *****************
  1102 ;; Defined at:
  1103 ;;		line 11 in file "timer0.c"
  1104 ;; Parameters:    Size  Location     Type
  1105 ;;		None
  1106 ;; Auto vars:     Size  Location     Type
  1107 ;;		None
  1108 ;; Return value:  Size  Location     Type
  1109 ;;                  1    wreg      void 
  1110 ;; Registers used:
  1111 ;;		wreg, status,2
  1112 ;; Tracked objects:
  1113 ;;		On entry : 0/0
  1114 ;;		On exit  : 0/0
  1115 ;;		Unchanged: 0/0
  1116 ;; Data sizes:     COMRAM   BANK0   BANK1   BANK2   BANK3   BANK4   BANK5
  1117 ;;      Params:         0       0       0       0       0       0       0
  1118 ;;      Locals:         0       0       0       0       0       0       0
  1119 ;;      Temps:          0       0       0       0       0       0       0
  1120 ;;      Totals:         0       0       0       0       0       0       0
  1121 ;;Total ram usage:        0 bytes
  1122 ;; Hardware stack levels used: 1
  1123 ;; Hardware stack levels required when called: 1
  1124 ;; This function calls:
  1125 ;;		Nothing
  1126 ;; This function is called by:
  1127 ;;		_init_config
  1128 ;; This function uses a non-reentrant model
  1129 ;;
  1130                           
  1131                           	psect	text3
  1132   001A4A                     __ptext3:
  1133                           	callstack 0
  1134   001A4A                     _init_timer0:
  1135                           	callstack 28
  1136   001A4A                     
  1137                           ;timer0.c: 14:     GIE = 1;
  1138   001A4A  8EF2               	bsf	4082,7,c	;volatile
  1139                           
  1140                           ;timer0.c: 15:     PEIE = 1;
  1141   001A4C  8CF2               	bsf	4082,6,c	;volatile
  1142                           
  1143                           ;timer0.c: 16:     TMR0IE = 1;
  1144   001A4E  8AF2               	bsf	4082,5,c	;volatile
  1145                           
  1146                           ;timer0.c: 17:     TMR0IF = 0;
  1147   001A50  94F2               	bcf	4082,2,c	;volatile
  1148   001A52                     
  1149                           ;timer0.c: 20:     TMR0 = 3036;
  1150   001A52  0E0B               	movlw	11
  1151   001A54  6ED7               	movwf	215,c	;volatile
  1152   001A56  0EDC               	movlw	220
  1153   001A58  6ED6               	movwf	214,c	;volatile
  1154   001A5A                     
  1155                           ;timer0.c: 22:     TMR0ON = 1;
  1156   001A5A  8ED5               	bsf	4053,7,c	;volatile
  1157   001A5C                     
  1158                           ;timer0.c: 23:     T08BIT = 0;
  1159   001A5C  9CD5               	bcf	4053,6,c	;volatile
  1160   001A5E                     
  1161                           ;timer0.c: 25:     T0CS = 0;
  1162   001A5E  9AD5               	bcf	4053,5,c	;volatile
  1163   001A60                     
  1164                           ;timer0.c: 26:     PSA = 1;
  1165   001A60  86D5               	bsf	4053,3,c	;volatile
  1166   001A62  0012               	return		;funcret
  1167   001A64                     __end_of_init_timer0:
  1168                           	callstack 0
  1169                           
  1170 ;; *************** function _init_matrix_keypad *****************
  1171 ;; Defined at:
  1172 ;;		line 13 in file "matrix_keypad.c"
  1173 ;; Parameters:    Size  Location     Type
  1174 ;;		None
  1175 ;; Auto vars:     Size  Location     Type
  1176 ;;		None
  1177 ;; Return value:  Size  Location     Type
  1178 ;;                  1    wreg      void 
  1179 ;; Registers used:
  1180 ;;		wreg, status,2
  1181 ;; Tracked objects:
  1182 ;;		On entry : 0/0
  1183 ;;		On exit  : 0/0
  1184 ;;		Unchanged: 0/0
  1185 ;; Data sizes:     COMRAM   BANK0   BANK1   BANK2   BANK3   BANK4   BANK5
  1186 ;;      Params:         0       0       0       0       0       0       0
  1187 ;;      Locals:         0       0       0       0       0       0       0
  1188 ;;      Temps:          0       0       0       0       0       0       0
  1189 ;;      Totals:         0       0       0       0       0       0       0
  1190 ;;Total ram usage:        0 bytes
  1191 ;; Hardware stack levels used: 1
  1192 ;; Hardware stack levels required when called: 1
  1193 ;; This function calls:
  1194 ;;		Nothing
  1195 ;; This function is called by:
  1196 ;;		_init_config
  1197 ;; This function uses a non-reentrant model
  1198 ;;
  1199                           
  1200                           	psect	text4
  1201   001AC2                     __ptext4:
  1202                           	callstack 0
  1203   001AC2                     _init_matrix_keypad:
  1204                           	callstack 28
  1205   001AC2                     
  1206                           ;matrix_keypad.c: 15:     TRISB = 0x1E;
  1207   001AC2  0E1E               	movlw	30
  1208   001AC4  6E93               	movwf	147,c	;volatile
  1209   001AC6                     
  1210                           ;matrix_keypad.c: 16:     RBPU = 0;
  1211   001AC6  9EF1               	bcf	4081,7,c	;volatile
  1212   001AC8  0012               	return		;funcret
  1213   001ACA                     __end_of_init_matrix_keypad:
  1214                           	callstack 0
  1215                           
  1216 ;; *************** function _init_clcd *****************
  1217 ;; Defined at:
  1218 ;;		line 34 in file "clcd.c"
  1219 ;; Parameters:    Size  Location     Type
  1220 ;;		None
  1221 ;; Auto vars:     Size  Location     Type
  1222 ;;		None
  1223 ;; Return value:  Size  Location     Type
  1224 ;;                  1    wreg      void 
  1225 ;; Registers used:
  1226 ;;		wreg, status,2, status,0, cstack
  1227 ;; Tracked objects:
  1228 ;;		On entry : 0/0
  1229 ;;		On exit  : 0/0
  1230 ;;		Unchanged: 0/0
  1231 ;; Data sizes:     COMRAM   BANK0   BANK1   BANK2   BANK3   BANK4   BANK5
  1232 ;;      Params:         0       0       0       0       0       0       0
  1233 ;;      Locals:         0       0       0       0       0       0       0
  1234 ;;      Temps:          2       0       0       0       0       0       0
  1235 ;;      Totals:         2       0       0       0       0       0       0
  1236 ;;Total ram usage:        2 bytes
  1237 ;; Hardware stack levels used: 1
  1238 ;; Hardware stack levels required when called: 2
  1239 ;; This function calls:
  1240 ;;		_clcd_write
  1241 ;; This function is called by:
  1242 ;;		_init_config
  1243 ;; This function uses a non-reentrant model
  1244 ;;
  1245                           
  1246                           	psect	text5
  1247   0015BC                     __ptext5:
  1248                           	callstack 0
  1249   0015BC                     _init_clcd:
  1250                           	callstack 27
  1251   0015BC                     
  1252                           ;clcd.c: 37:  TRISD = 0x00;
  1253   0015BC  0E00               	movlw	0
  1254   0015BE  6E95               	movwf	149,c	;volatile
  1255   0015C0                     
  1256                           ;clcd.c: 39:  TRISC = TRISC & 0xF8;
  1257   0015C0  5094               	movf	148,w,c	;volatile
  1258   0015C2  0BF8               	andlw	248
  1259   0015C4  6E94               	movwf	148,c	;volatile
  1260   0015C6                     
  1261                           ;clcd.c: 41:  RC0 = 0;
  1262   0015C6  9082               	bcf	3970,0,c	;volatile
  1263   0015C8                     
  1264                           ;clcd.c: 45:     _delay((unsigned long)((40)*(20000000/4000.0)));
  1265   0015C8  0E02               	movlw	2
  1266   0015CA  6E04               	movwf	(??_init_clcd+1)^0,c
  1267   0015CC  0E04               	movlw	4
  1268   0015CE  6E03               	movwf	??_init_clcd^0,c
  1269   0015D0  0EBA               	movlw	186
  1270   0015D2                     u2337:
  1271   0015D2  2EE8               	decfsz	wreg,f,c
  1272   0015D4  D7FE               	bra	u2337
  1273   0015D6  2E03               	decfsz	??_init_clcd^0,f,c
  1274   0015D8  D7FC               	bra	u2337
  1275   0015DA  2E04               	decfsz	(??_init_clcd+1)^0,f,c
  1276   0015DC  D7FA               	bra	u2337
  1277   0015DE  D000               	nop2	
  1278   0015E0                     
  1279                           ;clcd.c: 48:     clcd_write(0x33, 0 );
  1280   0015E0  0E00               	movlw	0
  1281   0015E2  6E01               	movwf	clcd_write@control_bit^0,c
  1282   0015E4  0E33               	movlw	51
  1283   0015E6  ECF9  F00C         	call	_clcd_write
  1284   0015EA                     
  1285                           ;clcd.c: 49:     _delay((unsigned long)((4100)*(20000000/4000000.0)));
  1286   0015EA  0E1B               	movlw	27
  1287   0015EC  6E03               	movwf	??_init_clcd^0,c
  1288   0015EE  0E9E               	movlw	158
  1289   0015F0                     u2347:
  1290   0015F0  2EE8               	decfsz	wreg,f,c
  1291   0015F2  D7FE               	bra	u2347
  1292   0015F4  2E03               	decfsz	??_init_clcd^0,f,c
  1293   0015F6  D7FC               	bra	u2347
  1294   0015F8  D000               	nop2	
  1295   0015FA                     
  1296                           ;clcd.c: 50:     clcd_write(0x33, 0 );
  1297   0015FA  0E00               	movlw	0
  1298   0015FC  6E01               	movwf	clcd_write@control_bit^0,c
  1299   0015FE  0E33               	movlw	51
  1300   001600  ECF9  F00C         	call	_clcd_write
  1301   001604                     
  1302                           ;clcd.c: 51:     _delay((unsigned long)((100)*(20000000/4000000.0)));
  1303   001604  0EA6               	movlw	166
  1304   001606                     u2357:
  1305   001606  2EE8               	decfsz	wreg,f,c
  1306   001608  D7FE               	bra	u2357
  1307   00160A  D000               	nop2	
  1308   00160C                     
  1309                           ;clcd.c: 52:     clcd_write(0x33, 0 );
  1310   00160C  0E00               	movlw	0
  1311   00160E  6E01               	movwf	clcd_write@control_bit^0,c
  1312   001610  0E33               	movlw	51
  1313   001612  ECF9  F00C         	call	_clcd_write
  1314   001616                     
  1315                           ;clcd.c: 53:     _delay((unsigned long)((1)*(20000000/4000000.0)));
  1316   001616  D000               	nop2		;2 cycle nop
  1317   001618  D000               	nop2		;2 cycle nop
  1318   00161A  F000               	nop	
  1319   00161C                     
  1320                           ;clcd.c: 55:     clcd_write(0x02, 0);
  1321   00161C  0E00               	movlw	0
  1322   00161E  6E01               	movwf	clcd_write@control_bit^0,c
  1323   001620  0E02               	movlw	2
  1324   001622  ECF9  F00C         	call	_clcd_write
  1325   001626                     
  1326                           ;clcd.c: 56:     _delay((unsigned long)((100)*(20000000/4000000.0)));
  1327   001626  0EA6               	movlw	166
  1328   001628                     u2367:
  1329   001628  2EE8               	decfsz	wreg,f,c
  1330   00162A  D7FE               	bra	u2367
  1331   00162C  D000               	nop2	
  1332   00162E                     
  1333                           ;clcd.c: 57:     clcd_write(0x38, 0);
  1334   00162E  0E00               	movlw	0
  1335   001630  6E01               	movwf	clcd_write@control_bit^0,c
  1336   001632  0E38               	movlw	56
  1337   001634  ECF9  F00C         	call	_clcd_write
  1338   001638                     
  1339                           ;clcd.c: 58:     _delay((unsigned long)((100)*(20000000/4000000.0)));
  1340   001638  0EA6               	movlw	166
  1341   00163A                     u2377:
  1342   00163A  2EE8               	decfsz	wreg,f,c
  1343   00163C  D7FE               	bra	u2377
  1344   00163E  D000               	nop2	
  1345   001640                     
  1346                           ;clcd.c: 59:     clcd_write(0x01, 0);
  1347   001640  0E00               	movlw	0
  1348   001642  6E01               	movwf	clcd_write@control_bit^0,c
  1349   001644  0E01               	movlw	1
  1350   001646  ECF9  F00C         	call	_clcd_write
  1351   00164A                     
  1352                           ;clcd.c: 60:     _delay((unsigned long)((500)*(20000000/4000000.0)));
  1353   00164A  0E04               	movlw	4
  1354   00164C  6E03               	movwf	??_init_clcd^0,c
  1355   00164E  0E3E               	movlw	62
  1356   001650                     u2387:
  1357   001650  2EE8               	decfsz	wreg,f,c
  1358   001652  D7FE               	bra	u2387
  1359   001654  2E03               	decfsz	??_init_clcd^0,f,c
  1360   001656  D7FC               	bra	u2387
  1361   001658                     
  1362                           ;clcd.c: 61:     clcd_write(0x0C, 0);
  1363   001658  0E00               	movlw	0
  1364   00165A  6E01               	movwf	clcd_write@control_bit^0,c
  1365   00165C  0E0C               	movlw	12
  1366   00165E  ECF9  F00C         	call	_clcd_write
  1367   001662                     
  1368                           ;clcd.c: 62:     _delay((unsigned long)((100)*(20000000/4000000.0)));
  1369   001662  0EA6               	movlw	166
  1370   001664                     u2397:
  1371   001664  2EE8               	decfsz	wreg,f,c
  1372   001666  D7FE               	bra	u2397
  1373   001668  D000               	nop2	
  1374   00166A  0012               	return		;funcret
  1375   00166C                     __end_of_init_clcd:
  1376                           	callstack 0
  1377                           
  1378 ;; *************** function _init_adc *****************
  1379 ;; Defined at:
  1380 ;;		line 12 in file "adc.c"
  1381 ;; Parameters:    Size  Location     Type
  1382 ;;		None
  1383 ;; Auto vars:     Size  Location     Type
  1384 ;;		None
  1385 ;; Return value:  Size  Location     Type
  1386 ;;                  1    wreg      void 
  1387 ;; Registers used:
  1388 ;;		None
  1389 ;; Tracked objects:
  1390 ;;		On entry : 0/0
  1391 ;;		On exit  : 0/0
  1392 ;;		Unchanged: 0/0
  1393 ;; Data sizes:     COMRAM   BANK0   BANK1   BANK2   BANK3   BANK4   BANK5
  1394 ;;      Params:         0       0       0       0       0       0       0
  1395 ;;      Locals:         0       0       0       0       0       0       0
  1396 ;;      Temps:          0       0       0       0       0       0       0
  1397 ;;      Totals:         0       0       0       0       0       0       0
  1398 ;;Total ram usage:        0 bytes
  1399 ;; Hardware stack levels used: 1
  1400 ;; Hardware stack levels required when called: 1
  1401 ;; This function calls:
  1402 ;;		Nothing
  1403 ;; This function is called by:
  1404 ;;		_init_config
  1405 ;; This function uses a non-reentrant model
  1406 ;;
  1407                           
  1408                           	psect	text6
  1409   001A2C                     __ptext6:
  1410                           	callstack 0
  1411   001A2C                     _init_adc:
  1412                           	callstack 28
  1413   001A2C                     
  1414                           ;adc.c: 14:     ADON = 1;
  1415   001A2C  80C2               	bsf	4034,0,c	;volatile
  1416                           
  1417                           ;adc.c: 15:     VCFG1 = 0;
  1418   001A2E  9AC1               	bcf	4033,5,c	;volatile
  1419                           
  1420                           ;adc.c: 16:     VCFG0 = 0;
  1421   001A30  98C1               	bcf	4033,4,c	;volatile
  1422                           
  1423                           ;adc.c: 17:     PCFG3 = 1;
  1424   001A32  86C1               	bsf	4033,3,c	;volatile
  1425                           
  1426                           ;adc.c: 18:     PCFG2 = 0;
  1427   001A34  94C1               	bcf	4033,2,c	;volatile
  1428                           
  1429                           ;adc.c: 19:     PCFG1 = 1;
  1430   001A36  82C1               	bsf	4033,1,c	;volatile
  1431                           
  1432                           ;adc.c: 20:     PCFG0 = 0;
  1433   001A38  90C1               	bcf	4033,0,c	;volatile
  1434                           
  1435                           ;adc.c: 21:     ACQT2 = 1;
  1436   001A3A  8AC0               	bsf	4032,5,c	;volatile
  1437                           
  1438                           ;adc.c: 22:     ACQT1 = 0;
  1439   001A3C  98C0               	bcf	4032,4,c	;volatile
  1440                           
  1441                           ;adc.c: 23:     ACQT0 = 0;
  1442   001A3E  96C0               	bcf	4032,3,c	;volatile
  1443                           
  1444                           ;adc.c: 24:     ADCS2 = 0;
  1445   001A40  94C0               	bcf	4032,2,c	;volatile
  1446                           
  1447                           ;adc.c: 25:     ADCS1 = 1;
  1448   001A42  82C0               	bsf	4032,1,c	;volatile
  1449                           
  1450                           ;adc.c: 26:     ADCS0 = 0;
  1451   001A44  90C0               	bcf	4032,0,c	;volatile
  1452                           
  1453                           ;adc.c: 27:     ADFM = 1;
  1454   001A46  8EC0               	bsf	4032,7,c	;volatile
  1455   001A48  0012               	return		;funcret
  1456   001A4A                     __end_of_init_adc:
  1457                           	callstack 0
  1458                           
  1459 ;; *************** function _enter_password *****************
  1460 ;; Defined at:
  1461 ;;		line 53 in file "car_black_box.c"
  1462 ;; Parameters:    Size  Location     Type
  1463 ;;		None
  1464 ;; Auto vars:     Size  Location     Type
  1465 ;;  j               2   33[COMRAM] int 
  1466 ;;  input_pass      5   23[COMRAM] unsigned char [5]
  1467 ;;  password        5   18[COMRAM] unsigned char [5]
  1468 ;;  wait            2   31[COMRAM] unsigned int 
  1469 ;;  ind             1   35[COMRAM] unsigned char 
  1470 ;;  count           1   30[COMRAM] unsigned char 
  1471 ;;  attempt         1   29[COMRAM] unsigned char 
  1472 ;;  pass_key        1   28[COMRAM] unsigned char 
  1473 ;; Return value:  Size  Location     Type
  1474 ;;                  1    wreg      void 
  1475 ;; Registers used:
  1476 ;;		wreg, fsr1l, fsr1h, fsr2l, fsr2h, status,2, status,0, tblptrl, tblptrh, tblptru, prodl, prodh, cstack
  1477 ;; Tracked objects:
  1478 ;;		On entry : 0/0
  1479 ;;		On exit  : 0/0
  1480 ;;		Unchanged: 0/0
  1481 ;; Data sizes:     COMRAM   BANK0   BANK1   BANK2   BANK3   BANK4   BANK5
  1482 ;;      Params:         0       0       0       0       0       0       0
  1483 ;;      Locals:        18       0       0       0       0       0       0
  1484 ;;      Temps:          2       0       0       0       0       0       0
  1485 ;;      Totals:        20       0       0       0       0       0       0
  1486 ;;Total ram usage:       20 bytes
  1487 ;; Hardware stack levels used: 1
  1488 ;; Hardware stack levels required when called: 4
  1489 ;; This function calls:
  1490 ;;		___awdiv
  1491 ;;		___awmod
  1492 ;;		_clcd_print
  1493 ;;		_clcd_putch
  1494 ;;		_menu
  1495 ;;		_read_switches
  1496 ;; This function is called by:
  1497 ;;		_main
  1498 ;; This function uses a non-reentrant model
  1499 ;;
  1500                           
  1501                           	psect	text7
  1502   000A7C                     __ptext7:
  1503                           	callstack 0
  1504   000A7C                     _enter_password:
  1505                           	callstack 26
  1506   000A7C                     
  1507                           ;car_black_box.c: 54:     unsigned char pass_key, password[5] = "1010", input_pass[5];
  1508   000A7C  EE20  F047         	lfsr	2,enter_password@F10476
  1509   000A80  EE10  F013         	lfsr	1,enter_password@password
  1510   000A84  0E04               	movlw	4
  1511   000A86                     u1671:
  1512   000A86  CFDB FFE3          	movff	plusw2,plusw1
  1513   000A8A  06E8               	decf	wreg,f,c
  1514   000A8C  E2FC               	bc	u1671
  1515   000A8E                     
  1516                           ;car_black_box.c: 55:     unsigned char ind = 0, count = 0, attempt = 3;
  1517   000A8E  0E00               	movlw	0
  1518   000A90  6E24               	movwf	enter_password@ind^0,c
  1519   000A92  0E00               	movlw	0
  1520   000A94  6E1F               	movwf	enter_password@count^0,c
  1521   000A96  0E03               	movlw	3
  1522   000A98  6E1E               	movwf	enter_password@attempt^0,c
  1523   000A9A                     
  1524                           ;car_black_box.c: 56:     unsigned int wait = 0;
  1525   000A9A  0E00               	movlw	0
  1526   000A9C  6E21               	movwf	(enter_password@wait+1)^0,c
  1527   000A9E  0E00               	movlw	0
  1528   000AA0  6E20               	movwf	enter_password@wait^0,c
  1529   000AA2                     
  1530                           ;car_black_box.c: 58:     sec = 60;
  1531   000AA2  0E3C               	movlw	60
  1532   000AA4  6E4C               	movwf	_sec^0,c
  1533                           
  1534                           ;car_black_box.c: 59:     while (pass_flag == 1) {
  1535   000AA6  EFEA  F006         	goto	l2234
  1536   000AAA                     l2128:
  1537                           
  1538                           ;car_black_box.c: 60:         pass_key = read_switches(1);
  1539   000AAA  0E01               	movlw	1
  1540   000AAC  ECC8  F00B         	call	_read_switches
  1541   000AB0  6E1D               	movwf	enter_password@pass_key^0,c
  1542   000AB2                     
  1543                           ;car_black_box.c: 62:         clcd_print(" Enter Password ", (0x80 + (0)));
  1544   000AB2  0E23               	movlw	low STR_32
  1545   000AB4  6E03               	movwf	clcd_print@data^0,c
  1546   000AB6  0E06               	movlw	high STR_32
  1547   000AB8  6E04               	movwf	(clcd_print@data+1)^0,c
  1548   000ABA  0E80               	movlw	128
  1549   000ABC  6E05               	movwf	clcd_print@addr^0,c
  1550   000ABE  ECB6  F00C         	call	_clcd_print	;wreg free
  1551   000AC2                     
  1552                           ;car_black_box.c: 65:         if (pass_key == 11) {
  1553   000AC2  0E0B               	movlw	11
  1554   000AC4  181D               	xorwf	enter_password@pass_key^0,w,c
  1555   000AC6  A4D8               	btfss	status,2,c
  1556   000AC8  EF68  F005         	goto	u1681
  1557   000ACC  EF6A  F005         	goto	u1680
  1558   000AD0                     u1681:
  1559   000AD0  EF7D  F005         	goto	l2142
  1560   000AD4                     u1680:
  1561   000AD4                     
  1562                           ;car_black_box.c: 66:             sec = 60;
  1563   000AD4  0E3C               	movlw	60
  1564   000AD6  6E4C               	movwf	_sec^0,c
  1565   000AD8                     
  1566                           ;car_black_box.c: 67:             input_pass[ind] = '1';
  1567   000AD8  0E18               	movlw	low enter_password@input_pass
  1568   000ADA  2424               	addwf	enter_password@ind^0,w,c
  1569   000ADC  6ED9               	movwf	fsr2l,c
  1570   000ADE  6ADA               	clrf	fsr2h,c
  1571   000AE0  0E00               	movlw	high enter_password@input_pass
  1572   000AE2  22DA               	addwfc	fsr2h,f,c
  1573   000AE4  0E31               	movlw	49
  1574   000AE6  6EDF               	movwf	indf2,c
  1575   000AE8                     
  1576                           ;car_black_box.c: 68:             clcd_putch('*', (0xC0 + (ind + 5)));
  1577   000AE8  5024               	movf	enter_password@ind^0,w,c
  1578   000AEA  0FC5               	addlw	197
  1579   000AEC  6E09               	movwf	clcd_putch@addr^0,c
  1580   000AEE  0E2A               	movlw	42
  1581   000AF0  EC32  F00D         	call	_clcd_putch
  1582   000AF4                     l2140:
  1583                           
  1584                           ;car_black_box.c: 69:             ind++;
  1585   000AF4  2A24               	incf	enter_password@ind^0,f,c
  1586                           
  1587                           ;car_black_box.c: 70:         } else if (pass_key == 12) {
  1588   000AF6  EF98  F005         	goto	l2152
  1589   000AFA                     l2142:
  1590   000AFA  0E0C               	movlw	12
  1591   000AFC  181D               	xorwf	enter_password@pass_key^0,w,c
  1592   000AFE  A4D8               	btfss	status,2,c
  1593   000B00  EF84  F005         	goto	u1691
  1594   000B04  EF86  F005         	goto	u1690
  1595   000B08                     u1691:
  1596   000B08  EF98  F005         	goto	l2152
  1597   000B0C                     u1690:
  1598   000B0C                     
  1599                           ;car_black_box.c: 71:             sec = 60;
  1600   000B0C  0E3C               	movlw	60
  1601   000B0E  6E4C               	movwf	_sec^0,c
  1602   000B10                     
  1603                           ;car_black_box.c: 72:             input_pass[ind] = '0';
  1604   000B10  0E18               	movlw	low enter_password@input_pass
  1605   000B12  2424               	addwf	enter_password@ind^0,w,c
  1606   000B14  6ED9               	movwf	fsr2l,c
  1607   000B16  6ADA               	clrf	fsr2h,c
  1608   000B18  0E00               	movlw	high enter_password@input_pass
  1609   000B1A  22DA               	addwfc	fsr2h,f,c
  1610   000B1C  0E30               	movlw	48
  1611   000B1E  6EDF               	movwf	indf2,c
  1612   000B20                     
  1613                           ;car_black_box.c: 73:             clcd_putch('*', (0xC0 + (ind + 5)));
  1614   000B20  5024               	movf	enter_password@ind^0,w,c
  1615   000B22  0FC5               	addlw	197
  1616   000B24  6E09               	movwf	clcd_putch@addr^0,c
  1617   000B26  0E2A               	movlw	42
  1618   000B28  EC32  F00D         	call	_clcd_putch
  1619   000B2C  EF7A  F005         	goto	l2140
  1620   000B30                     l2152:
  1621                           
  1622                           ;car_black_box.c: 76:         if (sec == 55) {
  1623   000B30  0E37               	movlw	55
  1624   000B32  184C               	xorwf	_sec^0,w,c
  1625   000B34  A4D8               	btfss	status,2,c
  1626   000B36  EF9F  F005         	goto	u1701
  1627   000B3A  EFA1  F005         	goto	u1700
  1628   000B3E                     u1701:
  1629   000B3E  EFAB  F005         	goto	l2158
  1630   000B42                     u1700:
  1631   000B42                     
  1632                           ;car_black_box.c: 77:             clcd_print("                ", (0x80 + (0)));
  1633   000B42  0E45               	movlw	low STR_14
  1634   000B44  6E03               	movwf	clcd_print@data^0,c
  1635   000B46  0E06               	movlw	high STR_14
  1636   000B48  6E04               	movwf	(clcd_print@data+1)^0,c
  1637   000B4A  0E80               	movlw	128
  1638   000B4C  6E05               	movwf	clcd_print@addr^0,c
  1639   000B4E  ECB6  F00C         	call	_clcd_print	;wreg free
  1640   000B52                     
  1641                           ;car_black_box.c: 78:             pass_flag = 0;
  1642   000B52  0E00               	movlw	0
  1643   000B54  6E53               	movwf	_pass_flag^0,c
  1644   000B56                     l2158:
  1645                           
  1646                           ;car_black_box.c: 81:         if (wait++ < 500)
  1647   000B56  5020               	movf	enter_password@wait^0,w,c
  1648   000B58  6E11               	movwf	??_enter_password^0,c
  1649   000B5A  5021               	movf	(enter_password@wait+1)^0,w,c
  1650   000B5C  6E12               	movwf	(??_enter_password+1)^0,c
  1651   000B5E  4A20               	infsnz	enter_password@wait^0,f,c
  1652   000B60  2A21               	incf	(enter_password@wait+1)^0,f,c
  1653   000B62  0EF4               	movlw	244
  1654   000B64  5C11               	subwf	??_enter_password^0,w,c
  1655   000B66  0E01               	movlw	1
  1656   000B68  5812               	subwfb	(??_enter_password+1)^0,w,c
  1657   000B6A  B0D8               	btfsc	status,0,c
  1658   000B6C  EFBA  F005         	goto	u1711
  1659   000B70  EFBC  F005         	goto	u1710
  1660   000B74                     u1711:
  1661   000B74  EFC4  F005         	goto	l2162
  1662   000B78                     u1710:
  1663   000B78                     
  1664                           ;car_black_box.c: 82:             clcd_putch('_', (0xC0 + (ind + 5)));
  1665   000B78  5024               	movf	enter_password@ind^0,w,c
  1666   000B7A  0FC5               	addlw	197
  1667   000B7C  6E09               	movwf	clcd_putch@addr^0,c
  1668   000B7E  0E5F               	movlw	95
  1669   000B80  EC32  F00D         	call	_clcd_putch
  1670   000B84  EFD5  F005         	goto	l2166
  1671   000B88                     l2162:
  1672   000B88  0EF5               	movlw	245
  1673   000B8A  5C20               	subwf	enter_password@wait^0,w,c
  1674   000B8C  0E01               	movlw	1
  1675   000B8E  5821               	subwfb	(enter_password@wait+1)^0,w,c
  1676   000B90  A0D8               	btfss	status,0,c
  1677   000B92  EFCD  F005         	goto	u1721
  1678   000B96  EFCF  F005         	goto	u1720
  1679   000B9A                     u1721:
  1680   000B9A  EFD5  F005         	goto	l2166
  1681   000B9E                     u1720:
  1682   000B9E                     
  1683                           ;car_black_box.c: 84:             clcd_putch(' ', (0xC0 + (ind + 5)));
  1684   000B9E  5024               	movf	enter_password@ind^0,w,c
  1685   000BA0  0FC5               	addlw	197
  1686   000BA2  6E09               	movwf	clcd_putch@addr^0,c
  1687   000BA4  0E20               	movlw	32
  1688   000BA6  EC32  F00D         	call	_clcd_putch
  1689   000BAA                     l2166:
  1690                           
  1691                           ;car_black_box.c: 86:         if (wait == 1000)
  1692   000BAA  0EE8               	movlw	232
  1693   000BAC  1820               	xorwf	enter_password@wait^0,w,c
  1694   000BAE  E107               	bnz	u1731
  1695   000BB0  0E03               	movlw	3
  1696   000BB2  1821               	xorwf	(enter_password@wait+1)^0,w,c
  1697   000BB4  A4D8               	btfss	status,2,c
  1698   000BB6  EFDF  F005         	goto	u1731
  1699   000BBA  EFE1  F005         	goto	u1730
  1700   000BBE                     u1731:
  1701   000BBE  EFE5  F005         	goto	l2170
  1702   000BC2                     u1730:
  1703   000BC2                     
  1704                           ;car_black_box.c: 87:             wait = 0;
  1705   000BC2  0E00               	movlw	0
  1706   000BC4  6E21               	movwf	(enter_password@wait+1)^0,c
  1707   000BC6  0E00               	movlw	0
  1708   000BC8  6E20               	movwf	enter_password@wait^0,c
  1709   000BCA                     l2170:
  1710                           
  1711                           ;car_black_box.c: 90:         if (ind == 4) {
  1712   000BCA  0E04               	movlw	4
  1713   000BCC  1824               	xorwf	enter_password@ind^0,w,c
  1714   000BCE  A4D8               	btfss	status,2,c
  1715   000BD0  EFEC  F005         	goto	u1741
  1716   000BD4  EFEE  F005         	goto	u1740
  1717   000BD8                     u1741:
  1718   000BD8  EF8B  F006         	goto	l2214
  1719   000BDC                     u1740:
  1720   000BDC                     
  1721                           ;car_black_box.c: 91:             _delay((unsigned long)((300)*(20000000/4000.0)));
  1722   000BDC  0E08               	movlw	8
  1723   000BDE  6E12               	movwf	(??_enter_password+1)^0,c
  1724   000BE0  0E9D               	movlw	157
  1725   000BE2  6E11               	movwf	??_enter_password^0,c
  1726   000BE4  0E06               	movlw	6
  1727   000BE6                     u2407:
  1728   000BE6  2EE8               	decfsz	wreg,f,c
  1729   000BE8  D7FE               	bra	u2407
  1730   000BEA  2E11               	decfsz	??_enter_password^0,f,c
  1731   000BEC  D7FC               	bra	u2407
  1732   000BEE  2E12               	decfsz	(??_enter_password+1)^0,f,c
  1733   000BF0  D7FA               	bra	u2407
  1734   000BF2                     
  1735                           ;car_black_box.c: 92:             ind = 0;
  1736   000BF2  0E00               	movlw	0
  1737   000BF4  6E24               	movwf	enter_password@ind^0,c
  1738   000BF6                     
  1739                           ;car_black_box.c: 93:             for (int j = 0; j < 4; j++) {
  1740   000BF6  0E00               	movlw	0
  1741   000BF8  6E23               	movwf	(enter_password@j+1)^0,c
  1742   000BFA  0E00               	movlw	0
  1743   000BFC  6E22               	movwf	enter_password@j^0,c
  1744   000BFE                     l2182:
  1745                           
  1746                           ;car_black_box.c: 94:                 if (password[j] == input_pass[j]) {
  1747   000BFE  0E18               	movlw	low enter_password@input_pass
  1748   000C00  2422               	addwf	enter_password@j^0,w,c
  1749   000C02  6ED9               	movwf	fsr2l,c
  1750   000C04  0E00               	movlw	high enter_password@input_pass
  1751   000C06  2023               	addwfc	(enter_password@j+1)^0,w,c
  1752   000C08  6EDA               	movwf	fsr2h,c
  1753   000C0A  0E13               	movlw	low enter_password@password
  1754   000C0C  2422               	addwf	enter_password@j^0,w,c
  1755   000C0E  6EE1               	movwf	fsr1l,c
  1756   000C10  0E00               	movlw	high enter_password@password
  1757   000C12  2023               	addwfc	(enter_password@j+1)^0,w,c
  1758   000C14  6EE2               	movwf	fsr1h,c
  1759   000C16  50DE               	movf	postinc2,w,c
  1760   000C18  18E6               	xorwf	postinc1,w,c
  1761   000C1A  A4D8               	btfss	status,2,c
  1762   000C1C  EF12  F006         	goto	u1751
  1763   000C20  EF14  F006         	goto	u1750
  1764   000C24                     u1751:
  1765   000C24  EF15  F006         	goto	l193
  1766   000C28                     u1750:
  1767   000C28                     
  1768                           ;car_black_box.c: 95:                     count++;
  1769   000C28  2A1F               	incf	enter_password@count^0,f,c
  1770   000C2A                     l193:
  1771                           
  1772                           ;car_black_box.c: 97:             }
  1773   000C2A  4A22               	infsnz	enter_password@j^0,f,c
  1774   000C2C  2A23               	incf	(enter_password@j+1)^0,f,c
  1775   000C2E  BE23               	btfsc	(enter_password@j+1)^0,7,c
  1776   000C30  EF23  F006         	goto	u1761
  1777   000C34  5023               	movf	(enter_password@j+1)^0,w,c
  1778   000C36  E109               	bnz	u1760
  1779   000C38  0E04               	movlw	4
  1780   000C3A  5C22               	subwf	enter_password@j^0,w,c
  1781   000C3C  A0D8               	btfss	status,0,c
  1782   000C3E  EF23  F006         	goto	u1761
  1783   000C42  EF25  F006         	goto	u1760
  1784   000C46                     u1761:
  1785   000C46  EFFF  F005         	goto	l2182
  1786   000C4A                     u1760:
  1787   000C4A                     
  1788                           ;car_black_box.c: 101:             if (count == 4) {
  1789   000C4A  0E04               	movlw	4
  1790   000C4C  181F               	xorwf	enter_password@count^0,w,c
  1791   000C4E  A4D8               	btfss	status,2,c
  1792   000C50  EF2C  F006         	goto	u1771
  1793   000C54  EF2E  F006         	goto	u1770
  1794   000C58                     u1771:
  1795   000C58  EF56  F006         	goto	l2198
  1796   000C5C                     u1770:
  1797   000C5C                     
  1798                           ;car_black_box.c: 102:                 clcd_print("Correct password", (0x80 + (0)));
  1799   000C5C  0E34               	movlw	low STR_34
  1800   000C5E  6E03               	movwf	clcd_print@data^0,c
  1801   000C60  0E06               	movlw	high STR_34
  1802   000C62  6E04               	movwf	(clcd_print@data+1)^0,c
  1803   000C64  0E80               	movlw	128
  1804   000C66  6E05               	movwf	clcd_print@addr^0,c
  1805   000C68  ECB6  F00C         	call	_clcd_print	;wreg free
  1806                           
  1807                           ;car_black_box.c: 103:                 clcd_print("                ", (0xC0 + (0)));
  1808   000C6C  0E45               	movlw	low STR_14
  1809   000C6E  6E03               	movwf	clcd_print@data^0,c
  1810   000C70  0E06               	movlw	high STR_14
  1811   000C72  6E04               	movwf	(clcd_print@data+1)^0,c
  1812   000C74  0EC0               	movlw	192
  1813   000C76  6E05               	movwf	clcd_print@addr^0,c
  1814   000C78  ECB6  F00C         	call	_clcd_print	;wreg free
  1815   000C7C                     
  1816                           ;car_black_box.c: 104:                 _delay((unsigned long)((500)*(20000000/4000.0)));
  1817   000C7C  0E0D               	movlw	13
  1818   000C7E  6E12               	movwf	(??_enter_password+1)^0,c
  1819   000C80  0EAF               	movlw	175
  1820   000C82  6E11               	movwf	??_enter_password^0,c
  1821   000C84  0EB6               	movlw	182
  1822   000C86                     u2417:
  1823   000C86  2EE8               	decfsz	wreg,f,c
  1824   000C88  D7FE               	bra	u2417
  1825   000C8A  2E11               	decfsz	??_enter_password^0,f,c
  1826   000C8C  D7FC               	bra	u2417
  1827   000C8E  2E12               	decfsz	(??_enter_password+1)^0,f,c
  1828   000C90  D7FA               	bra	u2417
  1829   000C92  D000               	nop2	
  1830   000C94                     
  1831                           ;car_black_box.c: 105:                 clcd_print("                ", (0x80 + (0)));
  1832   000C94  0E45               	movlw	low STR_14
  1833   000C96  6E03               	movwf	clcd_print@data^0,c
  1834   000C98  0E06               	movlw	high STR_14
  1835   000C9A  6E04               	movwf	(clcd_print@data+1)^0,c
  1836   000C9C  0E80               	movlw	128
  1837   000C9E  6E05               	movwf	clcd_print@addr^0,c
  1838   000CA0  ECB6  F00C         	call	_clcd_print	;wreg free
  1839   000CA4                     
  1840                           ;car_black_box.c: 107:                 menu();
  1841   000CA4  ECCD  F007         	call	_menu	;wreg free
  1842                           
  1843                           ;car_black_box.c: 108:             }
  1844   000CA8  EF8B  F006         	goto	l2214
  1845   000CAC                     l2198:
  1846   000CAC  0E04               	movlw	4
  1847   000CAE  601F               	cpfslt	enter_password@count^0,c
  1848   000CB0  EF5C  F006         	goto	u1781
  1849   000CB4  EF5E  F006         	goto	u1780
  1850   000CB8                     u1781:
  1851   000CB8  EF8B  F006         	goto	l2214
  1852   000CBC                     u1780:
  1853   000CBC                     
  1854                           ;car_black_box.c: 110:                 count = 0;
  1855   000CBC  0E00               	movlw	0
  1856   000CBE  6E1F               	movwf	enter_password@count^0,c
  1857   000CC0                     
  1858                           ;car_black_box.c: 111:                 attempt--;
  1859   000CC0  061E               	decf	enter_password@attempt^0,f,c
  1860   000CC2                     
  1861                           ;car_black_box.c: 114:                 clcd_print(" Wrong Password ", (0x80 + (0)));
  1862   000CC2  0E12               	movlw	low STR_37
  1863   000CC4  6E03               	movwf	clcd_print@data^0,c
  1864   000CC6  0E06               	movlw	high STR_37
  1865   000CC8  6E04               	movwf	(clcd_print@data+1)^0,c
  1866   000CCA  0E80               	movlw	128
  1867   000CCC  6E05               	movwf	clcd_print@addr^0,c
  1868   000CCE  ECB6  F00C         	call	_clcd_print	;wreg free
  1869   000CD2                     
  1870                           ;car_black_box.c: 115:                 clcd_putch(attempt + 48, (0xC0 + (1)));
  1871   000CD2  0EC1               	movlw	193
  1872   000CD4  6E09               	movwf	clcd_putch@addr^0,c
  1873   000CD6  501E               	movf	enter_password@attempt^0,w,c
  1874   000CD8  0F30               	addlw	48
  1875   000CDA  EC32  F00D         	call	_clcd_putch
  1876   000CDE                     
  1877                           ;car_black_box.c: 116:                 clcd_print(" -> attempts  ", (0xC0 + (2)));
  1878   000CDE  0E56               	movlw	low STR_38
  1879   000CE0  6E03               	movwf	clcd_print@data^0,c
  1880   000CE2  0E06               	movlw	high STR_38
  1881   000CE4  6E04               	movwf	(clcd_print@data+1)^0,c
  1882   000CE6  0EC2               	movlw	194
  1883   000CE8  6E05               	movwf	clcd_print@addr^0,c
  1884   000CEA  ECB6  F00C         	call	_clcd_print	;wreg free
  1885   000CEE                     
  1886                           ;car_black_box.c: 117:                 _delay((unsigned long)((1000)*(20000000/4000.0)))
      +                          ;
  1887   000CEE  0E1A               	movlw	26
  1888   000CF0  6E12               	movwf	(??_enter_password+1)^0,c
  1889   000CF2  0E5E               	movlw	94
  1890   000CF4  6E11               	movwf	??_enter_password^0,c
  1891   000CF6  0E6E               	movlw	110
  1892   000CF8                     u2427:
  1893   000CF8  2EE8               	decfsz	wreg,f,c
  1894   000CFA  D7FE               	bra	u2427
  1895   000CFC  2E11               	decfsz	??_enter_password^0,f,c
  1896   000CFE  D7FC               	bra	u2427
  1897   000D00  2E12               	decfsz	(??_enter_password+1)^0,f,c
  1898   000D02  D7FA               	bra	u2427
  1899   000D04  D000               	nop2	
  1900   000D06                     
  1901                           ;car_black_box.c: 118:                 clcd_print("                ", (0xC0 + (0)));
  1902   000D06  0E45               	movlw	low STR_14
  1903   000D08  6E03               	movwf	clcd_print@data^0,c
  1904   000D0A  0E06               	movlw	high STR_14
  1905   000D0C  6E04               	movwf	(clcd_print@data+1)^0,c
  1906   000D0E  0EC0               	movlw	192
  1907   000D10  6E05               	movwf	clcd_print@addr^0,c
  1908   000D12  ECB6  F00C         	call	_clcd_print	;wreg free
  1909   000D16                     l2214:
  1910                           
  1911                           ;car_black_box.c: 123:         if (attempt == 0) {
  1912   000D16  501E               	movf	enter_password@attempt^0,w,c
  1913   000D18  A4D8               	btfss	status,2,c
  1914   000D1A  EF91  F006         	goto	u1791
  1915   000D1E  EF93  F006         	goto	u1790
  1916   000D22                     u1791:
  1917   000D22  EFEA  F006         	goto	l2234
  1918   000D26                     u1790:
  1919   000D26                     
  1920                           ;car_black_box.c: 124:             for (sec = 59; sec != 60;) {
  1921   000D26  0E3B               	movlw	59
  1922   000D28  6E4C               	movwf	_sec^0,c
  1923   000D2A                     l2218:
  1924   000D2A  0E3C               	movlw	60
  1925   000D2C  184C               	xorwf	_sec^0,w,c
  1926   000D2E  A4D8               	btfss	status,2,c
  1927   000D30  EF9C  F006         	goto	u1801
  1928   000D34  EF9E  F006         	goto	u1800
  1929   000D38                     u1801:
  1930   000D38  EFA0  F006         	goto	l2222
  1931   000D3C                     u1800:
  1932   000D3C  EFD8  F006         	goto	l2230
  1933   000D40                     l2222:
  1934                           
  1935                           ;car_black_box.c: 125:                 clcd_print(" Attempts over  ", (0x80 + (0)));
  1936   000D40  0E01               	movlw	low STR_40
  1937   000D42  6E03               	movwf	clcd_print@data^0,c
  1938   000D44  0E06               	movlw	high STR_40
  1939   000D46  6E04               	movwf	(clcd_print@data+1)^0,c
  1940   000D48  0E80               	movlw	128
  1941   000D4A  6E05               	movwf	clcd_print@addr^0,c
  1942   000D4C  ECB6  F00C         	call	_clcd_print	;wreg free
  1943                           
  1944                           ;car_black_box.c: 126:                 clcd_print(" Wait for ", (0xC0 + (0)));
  1945   000D50  0EA6               	movlw	low STR_41
  1946   000D52  6E03               	movwf	clcd_print@data^0,c
  1947   000D54  0E06               	movlw	high STR_41
  1948   000D56  6E04               	movwf	(clcd_print@data+1)^0,c
  1949   000D58  0EC0               	movlw	192
  1950   000D5A  6E05               	movwf	clcd_print@addr^0,c
  1951   000D5C  ECB6  F00C         	call	_clcd_print	;wreg free
  1952   000D60                     
  1953                           ;car_black_box.c: 127:                 clcd_putch(sec / 10 + 48, (0xC0 + (10)));
  1954   000D60  0ECA               	movlw	202
  1955   000D62  6E09               	movwf	clcd_putch@addr^0,c
  1956   000D64  C04C  F001         	movff	_sec,___awdiv@dividend
  1957   000D68  6A02               	clrf	(___awdiv@dividend+1)^0,c
  1958   000D6A  0E00               	movlw	0
  1959   000D6C  6E04               	movwf	(___awdiv@divisor+1)^0,c
  1960   000D6E  0E0A               	movlw	10
  1961   000D70  6E03               	movwf	___awdiv@divisor^0,c
  1962   000D72  EC1F  F00A         	call	___awdiv	;wreg free
  1963   000D76  5001               	movf	?___awdiv^0,w,c
  1964   000D78  0F30               	addlw	48
  1965   000D7A  EC32  F00D         	call	_clcd_putch
  1966   000D7E                     
  1967                           ;car_black_box.c: 128:                 clcd_putch(sec % 10 + 48, (0xC0 + (11)));
  1968   000D7E  0ECB               	movlw	203
  1969   000D80  6E09               	movwf	clcd_putch@addr^0,c
  1970   000D82  C04C  F001         	movff	_sec,___awmod@dividend
  1971   000D86  6A02               	clrf	(___awmod@dividend+1)^0,c
  1972   000D88  0E00               	movlw	0
  1973   000D8A  6E04               	movwf	(___awmod@divisor+1)^0,c
  1974   000D8C  0E0A               	movlw	10
  1975   000D8E  6E03               	movwf	___awmod@divisor^0,c
  1976   000D90  EC36  F00B         	call	___awmod	;wreg free
  1977   000D94  5001               	movf	?___awmod^0,w,c
  1978   000D96  0F30               	addlw	48
  1979   000D98  EC32  F00D         	call	_clcd_putch
  1980                           
  1981                           ;car_black_box.c: 129:                 clcd_print("sec", (0xC0 + (13)));
  1982   000D9C  0EBF               	movlw	low STR_42
  1983   000D9E  6E03               	movwf	clcd_print@data^0,c
  1984   000DA0  0E06               	movlw	high STR_42
  1985   000DA2  6E04               	movwf	(clcd_print@data+1)^0,c
  1986   000DA4  0ECD               	movlw	205
  1987   000DA6  6E05               	movwf	clcd_print@addr^0,c
  1988   000DA8  ECB6  F00C         	call	_clcd_print	;wreg free
  1989   000DAC  EF95  F006         	goto	l2218
  1990   000DB0                     l2230:
  1991                           
  1992                           ;car_black_box.c: 131:             clcd_print("                ", (0x80 + (0)));
  1993   000DB0  0E45               	movlw	low STR_14
  1994   000DB2  6E03               	movwf	clcd_print@data^0,c
  1995   000DB4  0E06               	movlw	high STR_14
  1996   000DB6  6E04               	movwf	(clcd_print@data+1)^0,c
  1997   000DB8  0E80               	movlw	128
  1998   000DBA  6E05               	movwf	clcd_print@addr^0,c
  1999   000DBC  ECB6  F00C         	call	_clcd_print	;wreg free
  2000                           
  2001                           ;car_black_box.c: 132:             clcd_print("                ", (0xC0 + (0)));
  2002   000DC0  0E45               	movlw	low STR_14
  2003   000DC2  6E03               	movwf	clcd_print@data^0,c
  2004   000DC4  0E06               	movlw	high STR_14
  2005   000DC6  6E04               	movwf	(clcd_print@data+1)^0,c
  2006   000DC8  0EC0               	movlw	192
  2007   000DCA  6E05               	movwf	clcd_print@addr^0,c
  2008   000DCC  ECB6  F00C         	call	_clcd_print	;wreg free
  2009   000DD0                     
  2010                           ;car_black_box.c: 134:             pass_flag = 0;
  2011   000DD0  0E00               	movlw	0
  2012   000DD2  6E53               	movwf	_pass_flag^0,c
  2013   000DD4                     l2234:
  2014                           
  2015                           ;car_black_box.c: 59:     while (pass_flag == 1) {
  2016   000DD4  0453               	decf	_pass_flag^0,w,c
  2017   000DD6  B4D8               	btfsc	status,2,c
  2018   000DD8  EFF0  F006         	goto	u1811
  2019   000DDC  EFF2  F006         	goto	u1810
  2020   000DE0                     u1811:
  2021   000DE0  EF55  F005         	goto	l2128
  2022   000DE4                     u1810:
  2023   000DE4  0012               	return		;funcret
  2024   000DE6                     __end_of_enter_password:
  2025                           	callstack 0
  2026                           
  2027 ;; *************** function _menu *****************
  2028 ;; Defined at:
  2029 ;;		line 139 in file "car_black_box.c"
  2030 ;; Parameters:    Size  Location     Type
  2031 ;;		None
  2032 ;; Auto vars:     Size  Location     Type
  2033 ;;  menu_key        1   15[COMRAM] unsigned char 
  2034 ;;  line            1   14[COMRAM] unsigned char 
  2035 ;;  star            1   13[COMRAM] unsigned char 
  2036 ;;  pre_key         1   12[COMRAM] unsigned char 
  2037 ;;  delay           1    0        unsigned char 
  2038 ;; Return value:  Size  Location     Type
  2039 ;;                  1    wreg      void 
  2040 ;; Registers used:
  2041 ;;		wreg, fsr2l, fsr2h, status,2, status,0, tblptrl, tblptrh, tblptru, prodl, prodh, cstack
  2042 ;; Tracked objects:
  2043 ;;		On entry : 0/0
  2044 ;;		On exit  : 0/0
  2045 ;;		Unchanged: 0/0
  2046 ;; Data sizes:     COMRAM   BANK0   BANK1   BANK2   BANK3   BANK4   BANK5
  2047 ;;      Params:         0       0       0       0       0       0       0
  2048 ;;      Locals:         4       0       0       0       0       0       0
  2049 ;;      Temps:          2       0       0       0       0       0       0
  2050 ;;      Totals:         6       0       0       0       0       0       0
  2051 ;;Total ram usage:        6 bytes
  2052 ;; Hardware stack levels used: 1
  2053 ;; Hardware stack levels required when called: 3
  2054 ;; This function calls:
  2055 ;;		___awmod
  2056 ;;		_clcd_print
  2057 ;;		_clcd_putch
  2058 ;;		_read_switches
  2059 ;; This function is called by:
  2060 ;;		_enter_password
  2061 ;; This function uses a non-reentrant model
  2062 ;;
  2063                           
  2064                           	psect	text8
  2065   000F9A                     __ptext8:
  2066                           	callstack 0
  2067   000F9A                     _menu:
  2068                           	callstack 26
  2069   000F9A                     
  2070                           ;car_black_box.c: 140:     unsigned char menu_key, star = 0, pre_key, delay = 0;
  2071   000F9A  0E00               	movlw	0
  2072   000F9C  6E0E               	movwf	menu@star^0,c
  2073                           
  2074                           ;car_black_box.c: 141:     char line = 0;
  2075   000F9E  0E00               	movlw	0
  2076   000FA0  6E0F               	movwf	menu@line^0,c
  2077                           
  2078                           ;car_black_box.c: 142:     sec = 60;
  2079   000FA2  0E3C               	movlw	60
  2080   000FA4  6E4C               	movwf	_sec^0,c
  2081                           
  2082                           ;car_black_box.c: 144:     while (pass_flag == 1) {
  2083   000FA6  EF97  F008         	goto	l2016
  2084   000FAA                     l1970:
  2085                           
  2086                           ;car_black_box.c: 145:         menu_key = read_switches(1);
  2087   000FAA  0E01               	movlw	1
  2088   000FAC  ECC8  F00B         	call	_read_switches
  2089   000FB0  6E10               	movwf	menu@menu_key^0,c
  2090   000FB2                     
  2091                           ;car_black_box.c: 146:         if (menu_key == 11) {
  2092   000FB2  0E0B               	movlw	11
  2093   000FB4  1810               	xorwf	menu@menu_key^0,w,c
  2094   000FB6  A4D8               	btfss	status,2,c
  2095   000FB8  EFE0  F007         	goto	u1441
  2096   000FBC  EFE2  F007         	goto	u1440
  2097   000FC0                     u1441:
  2098   000FC0  EFFE  F007         	goto	l1984
  2099   000FC4                     u1440:
  2100   000FC4                     
  2101                           ;car_black_box.c: 147:             sec = 60;
  2102   000FC4  0E3C               	movlw	60
  2103   000FC6  6E4C               	movwf	_sec^0,c
  2104                           
  2105                           ;car_black_box.c: 148:             star = 0;
  2106   000FC8  0E00               	movlw	0
  2107   000FCA  6E0E               	movwf	menu@star^0,c
  2108   000FCC                     
  2109                           ;car_black_box.c: 149:             if (pre_key == menu_key) {
  2110   000FCC  5010               	movf	menu@menu_key^0,w,c
  2111   000FCE  180D               	xorwf	menu@pre_key^0,w,c
  2112   000FD0  A4D8               	btfss	status,2,c
  2113   000FD2  EFED  F007         	goto	u1451
  2114   000FD6  EFEF  F007         	goto	u1450
  2115   000FDA                     u1451:
  2116   000FDA  EFFA  F007         	goto	l1982
  2117   000FDE                     u1450:
  2118   000FDE                     
  2119                           ;car_black_box.c: 150:                 if (line-- <= 0) {
  2120   000FDE  060F               	decf	menu@line^0,f,c
  2121   000FE0  280F               	incf	menu@line^0,w,c
  2122   000FE2  A4D8               	btfss	status,2,c
  2123   000FE4  EFF6  F007         	goto	u1461
  2124   000FE8  EFF8  F007         	goto	u1460
  2125   000FEC                     u1461:
  2126   000FEC  EFFA  F007         	goto	l1982
  2127   000FF0                     u1460:
  2128   000FF0                     
  2129                           ;car_black_box.c: 151:                     line = 0;
  2130   000FF0  0E00               	movlw	0
  2131   000FF2  6E0F               	movwf	menu@line^0,c
  2132   000FF4                     l1982:
  2133                           
  2134                           ;car_black_box.c: 154:             pre_key = menu_key;
  2135   000FF4  C010  F00D         	movff	menu@menu_key,menu@pre_key
  2136                           
  2137                           ;car_black_box.c: 155:         } else if (menu_key == 12) {
  2138   000FF8  EF23  F008         	goto	l1996
  2139   000FFC                     l1984:
  2140   000FFC  0E0C               	movlw	12
  2141   000FFE  1810               	xorwf	menu@menu_key^0,w,c
  2142   001000  A4D8               	btfss	status,2,c
  2143   001002  EF05  F008         	goto	u1471
  2144   001006  EF07  F008         	goto	u1470
  2145   00100A                     u1471:
  2146   00100A  EF23  F008         	goto	l1996
  2147   00100E                     u1470:
  2148   00100E                     
  2149                           ;car_black_box.c: 156:             star = 1;
  2150   00100E  0E01               	movlw	1
  2151   001010  6E0E               	movwf	menu@star^0,c
  2152                           
  2153                           ;car_black_box.c: 157:             sec = 60;
  2154   001012  0E3C               	movlw	60
  2155   001014  6E4C               	movwf	_sec^0,c
  2156   001016                     
  2157                           ;car_black_box.c: 158:             if (pre_key == menu_key) {
  2158   001016  5010               	movf	menu@menu_key^0,w,c
  2159   001018  180D               	xorwf	menu@pre_key^0,w,c
  2160   00101A  A4D8               	btfss	status,2,c
  2161   00101C  EF12  F008         	goto	u1481
  2162   001020  EF14  F008         	goto	u1480
  2163   001024                     u1481:
  2164   001024  EFFA  F007         	goto	l1982
  2165   001028                     u1480:
  2166   001028                     
  2167                           ;car_black_box.c: 159:                 if (line++ >= 3) {
  2168   001028  2A0F               	incf	menu@line^0,f,c
  2169   00102A  040F               	decf	menu@line^0,w,c
  2170   00102C  6E0B               	movwf	??_menu^0,c
  2171   00102E  0E02               	movlw	2
  2172   001030  640B               	cpfsgt	??_menu^0,c
  2173   001032  EF1D  F008         	goto	u1491
  2174   001036  EF1F  F008         	goto	u1490
  2175   00103A                     u1491:
  2176   00103A  EFFA  F007         	goto	l1982
  2177   00103E                     u1490:
  2178   00103E                     
  2179                           ;car_black_box.c: 160:                     line = 3;
  2180   00103E  0E03               	movlw	3
  2181   001040  6E0F               	movwf	menu@line^0,c
  2182   001042  EFFA  F007         	goto	l1982
  2183   001046                     l1996:
  2184                           
  2185                           ;car_black_box.c: 165:         clcd_putch(line%10+48, (0x80 + (15)));
  2186   001046  0E8F               	movlw	143
  2187   001048  6E09               	movwf	clcd_putch@addr^0,c
  2188   00104A  C00F  F001         	movff	menu@line,___awmod@dividend
  2189   00104E  6A02               	clrf	(___awmod@dividend+1)^0,c
  2190   001050  0E00               	movlw	0
  2191   001052  6E04               	movwf	(___awmod@divisor+1)^0,c
  2192   001054  0E0A               	movlw	10
  2193   001056  6E03               	movwf	___awmod@divisor^0,c
  2194   001058  EC36  F00B         	call	___awmod	;wreg free
  2195   00105C  5001               	movf	?___awmod^0,w,c
  2196   00105E  0F30               	addlw	48
  2197   001060  EC32  F00D         	call	_clcd_putch
  2198   001064                     
  2199                           ;car_black_box.c: 166:         if (star == 1) {
  2200   001064  040E               	decf	menu@star^0,w,c
  2201   001066  A4D8               	btfss	status,2,c
  2202   001068  EF38  F008         	goto	u1501
  2203   00106C  EF3A  F008         	goto	u1500
  2204   001070                     u1501:
  2205   001070  EF46  F008         	goto	l2002
  2206   001074                     u1500:
  2207   001074                     
  2208                           ;car_black_box.c: 167:             clcd_putch(' ', (0x80 + (0)));
  2209   001074  0E80               	movlw	128
  2210   001076  6E09               	movwf	clcd_putch@addr^0,c
  2211   001078  0E20               	movlw	32
  2212   00107A  EC32  F00D         	call	_clcd_putch
  2213                           
  2214                           ;car_black_box.c: 168:             clcd_putch('*', (0xC0 + (0)));
  2215   00107E  0EC0               	movlw	192
  2216   001080  6E09               	movwf	clcd_putch@addr^0,c
  2217   001082  0E2A               	movlw	42
  2218   001084  EC32  F00D         	call	_clcd_putch
  2219                           
  2220                           ;car_black_box.c: 169:         } else if (star == 0) {
  2221   001088  EF58  F008         	goto	l2006
  2222   00108C                     l2002:
  2223   00108C  500E               	movf	menu@star^0,w,c
  2224   00108E  A4D8               	btfss	status,2,c
  2225   001090  EF4C  F008         	goto	u1511
  2226   001094  EF4E  F008         	goto	u1510
  2227   001098                     u1511:
  2228   001098  EF58  F008         	goto	l2006
  2229   00109C                     u1510:
  2230   00109C                     
  2231                           ;car_black_box.c: 170:             clcd_putch('*', (0x80 + (0)));
  2232   00109C  0E80               	movlw	128
  2233   00109E  6E09               	movwf	clcd_putch@addr^0,c
  2234   0010A0  0E2A               	movlw	42
  2235   0010A2  EC32  F00D         	call	_clcd_putch
  2236                           
  2237                           ;car_black_box.c: 171:             clcd_putch(' ', (0xC0 + (0)));
  2238   0010A6  0EC0               	movlw	192
  2239   0010A8  6E09               	movwf	clcd_putch@addr^0,c
  2240   0010AA  0E20               	movlw	32
  2241   0010AC  EC32  F00D         	call	_clcd_putch
  2242   0010B0                     l2006:
  2243                           
  2244                           ;car_black_box.c: 174:         clcd_print(menu_opt[line], (0x80 + (2)));
  2245   0010B0  500F               	movf	menu@line^0,w,c
  2246   0010B2  0D02               	mullw	2
  2247   0010B4  0E3D               	movlw	low _menu_opt
  2248   0010B6  24F3               	addwf	243,w,c
  2249   0010B8  6ED9               	movwf	fsr2l,c
  2250   0010BA  0E00               	movlw	high _menu_opt
  2251   0010BC  20F4               	addwfc	prodh,w,c
  2252   0010BE  6EDA               	movwf	fsr2h,c
  2253   0010C0  CFDE F003          	movff	postinc2,clcd_print@data
  2254   0010C4  CFDD F004          	movff	postdec2,clcd_print@data+1
  2255   0010C8  0E82               	movlw	130
  2256   0010CA  6E05               	movwf	clcd_print@addr^0,c
  2257   0010CC  ECB6  F00C         	call	_clcd_print	;wreg free
  2258   0010D0                     
  2259                           ;car_black_box.c: 175:         clcd_print(menu_opt[line + 1], (0xC0 + (2)));
  2260   0010D0  500F               	movf	menu@line^0,w,c
  2261   0010D2  6E0B               	movwf	??_menu^0,c
  2262   0010D4  6A0C               	clrf	(??_menu+1)^0,c
  2263   0010D6  90D8               	bcf	status,0,c
  2264   0010D8  360B               	rlcf	??_menu^0,f,c
  2265   0010DA  360C               	rlcf	(??_menu+1)^0,f,c
  2266   0010DC  0E3F               	movlw	low (_menu_opt+2)
  2267   0010DE  240B               	addwf	??_menu^0,w,c
  2268   0010E0  6ED9               	movwf	fsr2l,c
  2269   0010E2  0E00               	movlw	high (_menu_opt+2)
  2270   0010E4  200C               	addwfc	(??_menu+1)^0,w,c
  2271   0010E6  6EDA               	movwf	fsr2h,c
  2272   0010E8  CFDE F003          	movff	postinc2,clcd_print@data
  2273   0010EC  CFDD F004          	movff	postdec2,clcd_print@data+1
  2274   0010F0  0EC2               	movlw	194
  2275   0010F2  6E05               	movwf	clcd_print@addr^0,c
  2276   0010F4  ECB6  F00C         	call	_clcd_print	;wreg free
  2277   0010F8                     
  2278                           ;car_black_box.c: 177:         if (sec == 55) {
  2279   0010F8  0E37               	movlw	55
  2280   0010FA  184C               	xorwf	_sec^0,w,c
  2281   0010FC  A4D8               	btfss	status,2,c
  2282   0010FE  EF83  F008         	goto	u1521
  2283   001102  EF85  F008         	goto	u1520
  2284   001106                     u1521:
  2285   001106  EF97  F008         	goto	l2016
  2286   00110A                     u1520:
  2287   00110A                     
  2288                           ;car_black_box.c: 178:             clcd_print("                ", (0x80 + (0)));
  2289   00110A  0E45               	movlw	low STR_14
  2290   00110C  6E03               	movwf	clcd_print@data^0,c
  2291   00110E  0E06               	movlw	high STR_14
  2292   001110  6E04               	movwf	(clcd_print@data+1)^0,c
  2293   001112  0E80               	movlw	128
  2294   001114  6E05               	movwf	clcd_print@addr^0,c
  2295   001116  ECB6  F00C         	call	_clcd_print	;wreg free
  2296                           
  2297                           ;car_black_box.c: 179:             clcd_print("                ", (0xC0 + (0)));
  2298   00111A  0E45               	movlw	low STR_14
  2299   00111C  6E03               	movwf	clcd_print@data^0,c
  2300   00111E  0E06               	movlw	high STR_14
  2301   001120  6E04               	movwf	(clcd_print@data+1)^0,c
  2302   001122  0EC0               	movlw	192
  2303   001124  6E05               	movwf	clcd_print@addr^0,c
  2304   001126  ECB6  F00C         	call	_clcd_print	;wreg free
  2305   00112A                     
  2306                           ;car_black_box.c: 180:             pass_flag = 0;
  2307   00112A  0E00               	movlw	0
  2308   00112C  6E53               	movwf	_pass_flag^0,c
  2309   00112E                     l2016:
  2310                           
  2311                           ;car_black_box.c: 144:     while (pass_flag == 1) {
  2312   00112E  0453               	decf	_pass_flag^0,w,c
  2313   001130  B4D8               	btfsc	status,2,c
  2314   001132  EF9D  F008         	goto	u1531
  2315   001136  EF9F  F008         	goto	u1530
  2316   00113A                     u1531:
  2317   00113A  EFD5  F007         	goto	l1970
  2318   00113E                     u1530:
  2319   00113E  0012               	return		;funcret
  2320   001140                     __end_of_menu:
  2321                           	callstack 0
  2322                           
  2323 ;; *************** function _read_switches *****************
  2324 ;; Defined at:
  2325 ;;		line 20 in file "matrix_keypad.c"
  2326 ;; Parameters:    Size  Location     Type
  2327 ;;  detection       1    wreg     unsigned char 
  2328 ;; Auto vars:     Size  Location     Type
  2329 ;;  detection       1    0[COMRAM] unsigned char 
  2330 ;; Return value:  Size  Location     Type
  2331 ;;                  1    wreg      unsigned char 
  2332 ;; Registers used:
  2333 ;;		wreg, status,2, status,0, cstack
  2334 ;; Tracked objects:
  2335 ;;		On entry : 0/0
  2336 ;;		On exit  : 0/0
  2337 ;;		Unchanged: 0/0
  2338 ;; Data sizes:     COMRAM   BANK0   BANK1   BANK2   BANK3   BANK4   BANK5
  2339 ;;      Params:         0       0       0       0       0       0       0
  2340 ;;      Locals:         1       0       0       0       0       0       0
  2341 ;;      Temps:          0       0       0       0       0       0       0
  2342 ;;      Totals:         1       0       0       0       0       0       0
  2343 ;;Total ram usage:        1 bytes
  2344 ;; Hardware stack levels used: 1
  2345 ;; Hardware stack levels required when called: 2
  2346 ;; This function calls:
  2347 ;;		_scan_key
  2348 ;; This function is called by:
  2349 ;;		_main
  2350 ;;		_enter_password
  2351 ;;		_menu
  2352 ;; This function uses a non-reentrant model
  2353 ;;
  2354                           
  2355                           	psect	text9
  2356   001790                     __ptext9:
  2357                           	callstack 0
  2358   001790                     _read_switches:
  2359                           	callstack 28
  2360                           
  2361                           ;incstack = 0
  2362                           ;read_switches@detection stored from wreg
  2363   001790  6E01               	movwf	read_switches@detection^0,c
  2364   001792                     
  2365                           ;matrix_keypad.c: 20: unsigned char read_switches(unsigned char detection);matrix_keypad
      +                          .c: 21: {;matrix_keypad.c: 22:     static unsigned char once = 1, key;;matrix_keypad.c: 
      +                          25:     if ( detection == 0 )
  2366   001792  5001               	movf	read_switches@detection^0,w,c
  2367   001794  A4D8               	btfss	status,2,c
  2368   001796  EFCF  F00B         	goto	u1321
  2369   00179A  EFD1  F00B         	goto	u1320
  2370   00179E                     u1321:
  2371   00179E  EFD5  F00B         	goto	l1864
  2372   0017A2                     u1320:
  2373   0017A2                     
  2374                           ;matrix_keypad.c: 26:     {;matrix_keypad.c: 27:         return scan_key();
  2375   0017A2  ECA0  F008         	call	_scan_key	;wreg free
  2376   0017A6  EF00  F00C         	goto	l108
  2377   0017AA                     l1864:
  2378   0017AA  0401               	decf	read_switches@detection^0,w,c
  2379   0017AC  A4D8               	btfss	status,2,c
  2380   0017AE  EFDB  F00B         	goto	u1331
  2381   0017B2  EFDD  F00B         	goto	u1330
  2382   0017B6                     u1331:
  2383   0017B6  EF00  F00C         	goto	l108
  2384   0017BA                     u1330:
  2385   0017BA                     
  2386                           ;matrix_keypad.c: 32:     {;matrix_keypad.c: 33:         key = scan_key();
  2387   0017BA  ECA0  F008         	call	_scan_key	;wreg free
  2388   0017BE  6E52               	movwf	read_switches@key^0,c
  2389   0017C0                     
  2390                           ;matrix_keypad.c: 35:         if ( (key != 0xFF) && once )
  2391   0017C0  2852               	incf	read_switches@key^0,w,c
  2392   0017C2  B4D8               	btfsc	status,2,c
  2393   0017C4  EFE6  F00B         	goto	u1341
  2394   0017C8  EFE8  F00B         	goto	u1340
  2395   0017CC                     u1341:
  2396   0017CC  EFF5  F00B         	goto	l1878
  2397   0017D0                     u1340:
  2398   0017D0  504D               	movf	read_switches@once^0,w,c
  2399   0017D2  B4D8               	btfsc	status,2,c
  2400   0017D4  EFEE  F00B         	goto	u1351
  2401   0017D8  EFF0  F00B         	goto	u1350
  2402   0017DC                     u1351:
  2403   0017DC  EFF5  F00B         	goto	l1878
  2404   0017E0                     u1350:
  2405   0017E0                     
  2406                           ;matrix_keypad.c: 36:         {;matrix_keypad.c: 37:             once = 0;
  2407   0017E0  0E00               	movlw	0
  2408   0017E2  6E4D               	movwf	read_switches@once^0,c
  2409                           
  2410                           ;matrix_keypad.c: 38:             return key;
  2411   0017E4  5052               	movf	read_switches@key^0,w,c
  2412   0017E6  EF00  F00C         	goto	l108
  2413   0017EA                     l1878:
  2414   0017EA  2852               	incf	read_switches@key^0,w,c
  2415   0017EC  A4D8               	btfss	status,2,c
  2416   0017EE  EFFB  F00B         	goto	u1361
  2417   0017F2  EFFD  F00B         	goto	u1360
  2418   0017F6                     u1361:
  2419   0017F6  EFFF  F00B         	goto	l1882
  2420   0017FA                     u1360:
  2421   0017FA                     
  2422                           ;matrix_keypad.c: 41:         {;matrix_keypad.c: 42:             once = 1;
  2423   0017FA  0E01               	movlw	1
  2424   0017FC  6E4D               	movwf	read_switches@once^0,c
  2425   0017FE                     l1882:
  2426                           
  2427                           ;matrix_keypad.c: 45:         return 0xFF;
  2428   0017FE  0EFF               	movlw	255
  2429   001800                     l108:
  2430   001800  0012               	return		;funcret
  2431   001802                     __end_of_read_switches:
  2432                           	callstack 0
  2433                           
  2434 ;; *************** function _scan_key *****************
  2435 ;; Defined at:
  2436 ;;		line 50 in file "matrix_keypad.c"
  2437 ;; Parameters:    Size  Location     Type
  2438 ;;		None
  2439 ;; Auto vars:     Size  Location     Type
  2440 ;;		None
  2441 ;; Return value:  Size  Location     Type
  2442 ;;                  1    wreg      unsigned char 
  2443 ;; Registers used:
  2444 ;;		wreg
  2445 ;; Tracked objects:
  2446 ;;		On entry : 0/0
  2447 ;;		On exit  : 0/0
  2448 ;;		Unchanged: 0/0
  2449 ;; Data sizes:     COMRAM   BANK0   BANK1   BANK2   BANK3   BANK4   BANK5
  2450 ;;      Params:         0       0       0       0       0       0       0
  2451 ;;      Locals:         0       0       0       0       0       0       0
  2452 ;;      Temps:          0       0       0       0       0       0       0
  2453 ;;      Totals:         0       0       0       0       0       0       0
  2454 ;;Total ram usage:        0 bytes
  2455 ;; Hardware stack levels used: 1
  2456 ;; Hardware stack levels required when called: 1
  2457 ;; This function calls:
  2458 ;;		Nothing
  2459 ;; This function is called by:
  2460 ;;		_read_switches
  2461 ;; This function uses a non-reentrant model
  2462 ;;
  2463                           
  2464                           	psect	text10
  2465   001140                     __ptext10:
  2466                           	callstack 0
  2467   001140                     _scan_key:
  2468                           	callstack 28
  2469   001140                     
  2470                           ;matrix_keypad.c: 53:     RB5 = 0;
  2471   001140  9A81               	bcf	3969,5,c	;volatile
  2472                           
  2473                           ;matrix_keypad.c: 54:     RB6 = 1;
  2474   001142  8C81               	bsf	3969,6,c	;volatile
  2475                           
  2476                           ;matrix_keypad.c: 55:     RB7 = 1;
  2477   001144  8E81               	bsf	3969,7,c	;volatile
  2478                           
  2479                           ;matrix_keypad.c: 58:     if ( RB1 == 0 )
  2480   001146  B281               	btfsc	3969,1,c	;volatile
  2481   001148  EFA8  F008         	goto	u1201
  2482   00114C  EFAA  F008         	goto	u1200
  2483   001150                     u1201:
  2484   001150  EFAD  F008         	goto	l116
  2485   001154                     u1200:
  2486   001154                     
  2487                           ;matrix_keypad.c: 59:         return 1;
  2488   001154  0E01               	movlw	1
  2489   001156  EF23  F009         	goto	l117
  2490   00115A                     l116:
  2491   00115A  B481               	btfsc	3969,2,c	;volatile
  2492   00115C  EFB2  F008         	goto	u1211
  2493   001160  EFB4  F008         	goto	u1210
  2494   001164                     u1211:
  2495   001164  EFB7  F008         	goto	l119
  2496   001168                     u1210:
  2497   001168                     
  2498                           ;matrix_keypad.c: 61:         return 4;
  2499   001168  0E04               	movlw	4
  2500   00116A  EF23  F009         	goto	l117
  2501   00116E                     l119:
  2502   00116E  B681               	btfsc	3969,3,c	;volatile
  2503   001170  EFBC  F008         	goto	u1221
  2504   001174  EFBE  F008         	goto	u1220
  2505   001178                     u1221:
  2506   001178  EFC1  F008         	goto	l121
  2507   00117C                     u1220:
  2508   00117C                     
  2509                           ;matrix_keypad.c: 63:         return 7;
  2510   00117C  0E07               	movlw	7
  2511   00117E  EF23  F009         	goto	l117
  2512   001182                     l121:
  2513   001182  B881               	btfsc	3969,4,c	;volatile
  2514   001184  EFC6  F008         	goto	u1231
  2515   001188  EFC8  F008         	goto	u1230
  2516   00118C                     u1231:
  2517   00118C  EFCB  F008         	goto	l118
  2518   001190                     u1230:
  2519   001190                     
  2520                           ;matrix_keypad.c: 65:         return 10;
  2521   001190  0E0A               	movlw	10
  2522   001192  EF23  F009         	goto	l117
  2523   001196                     l118:
  2524                           
  2525                           ;matrix_keypad.c: 68:     RB5 = 1;
  2526   001196  8A81               	bsf	3969,5,c	;volatile
  2527                           
  2528                           ;matrix_keypad.c: 69:     RB6 = 0;
  2529   001198  9C81               	bcf	3969,6,c	;volatile
  2530                           
  2531                           ;matrix_keypad.c: 70:     RB7 = 1;
  2532   00119A  8E81               	bsf	3969,7,c	;volatile
  2533                           
  2534                           ;matrix_keypad.c: 73:     if ( RB1 == 0 )
  2535   00119C  B281               	btfsc	3969,1,c	;volatile
  2536   00119E  EFD3  F008         	goto	u1241
  2537   0011A2  EFD5  F008         	goto	u1240
  2538   0011A6                     u1241:
  2539   0011A6  EFD8  F008         	goto	l124
  2540   0011AA                     u1240:
  2541   0011AA                     
  2542                           ;matrix_keypad.c: 74:         return 2;
  2543   0011AA  0E02               	movlw	2
  2544   0011AC  EF23  F009         	goto	l117
  2545   0011B0                     l124:
  2546   0011B0  B481               	btfsc	3969,2,c	;volatile
  2547   0011B2  EFDD  F008         	goto	u1251
  2548   0011B6  EFDF  F008         	goto	u1250
  2549   0011BA                     u1251:
  2550   0011BA  EFE2  F008         	goto	l126
  2551   0011BE                     u1250:
  2552   0011BE                     
  2553                           ;matrix_keypad.c: 76:         return 5;
  2554   0011BE  0E05               	movlw	5
  2555   0011C0  EF23  F009         	goto	l117
  2556   0011C4                     l126:
  2557   0011C4  B681               	btfsc	3969,3,c	;volatile
  2558   0011C6  EFE7  F008         	goto	u1261
  2559   0011CA  EFE9  F008         	goto	u1260
  2560   0011CE                     u1261:
  2561   0011CE  EFEC  F008         	goto	l128
  2562   0011D2                     u1260:
  2563   0011D2                     
  2564                           ;matrix_keypad.c: 78:         return 8;
  2565   0011D2  0E08               	movlw	8
  2566   0011D4  EF23  F009         	goto	l117
  2567   0011D8                     l128:
  2568   0011D8  B881               	btfsc	3969,4,c	;volatile
  2569   0011DA  EFF1  F008         	goto	u1271
  2570   0011DE  EFF3  F008         	goto	u1270
  2571   0011E2                     u1271:
  2572   0011E2  EFF6  F008         	goto	l125
  2573   0011E6                     u1270:
  2574   0011E6                     
  2575                           ;matrix_keypad.c: 80:         return 11;
  2576   0011E6  0E0B               	movlw	11
  2577   0011E8  EF23  F009         	goto	l117
  2578   0011EC                     l125:
  2579                           
  2580                           ;matrix_keypad.c: 83:     RB5 = 1;
  2581   0011EC  8A81               	bsf	3969,5,c	;volatile
  2582                           
  2583                           ;matrix_keypad.c: 84:     RB6 = 1;
  2584   0011EE  8C81               	bsf	3969,6,c	;volatile
  2585                           
  2586                           ;matrix_keypad.c: 85:     RB7 = 0;
  2587   0011F0  9E81               	bcf	3969,7,c	;volatile
  2588                           
  2589                           ;matrix_keypad.c: 86:     RB7 = 0;
  2590   0011F2  9E81               	bcf	3969,7,c	;volatile
  2591                           
  2592                           ;matrix_keypad.c: 89:     if ( RB1 == 0 )
  2593   0011F4  B281               	btfsc	3969,1,c	;volatile
  2594   0011F6  EFFF  F008         	goto	u1281
  2595   0011FA  EF01  F009         	goto	u1280
  2596   0011FE                     u1281:
  2597   0011FE  EF04  F009         	goto	l131
  2598   001202                     u1280:
  2599   001202                     
  2600                           ;matrix_keypad.c: 90:         return 3;
  2601   001202  0E03               	movlw	3
  2602   001204  EF23  F009         	goto	l117
  2603   001208                     l131:
  2604   001208  B481               	btfsc	3969,2,c	;volatile
  2605   00120A  EF09  F009         	goto	u1291
  2606   00120E  EF0B  F009         	goto	u1290
  2607   001212                     u1291:
  2608   001212  EF0E  F009         	goto	l133
  2609   001216                     u1290:
  2610   001216                     
  2611                           ;matrix_keypad.c: 92:         return 6;
  2612   001216  0E06               	movlw	6
  2613   001218  EF23  F009         	goto	l117
  2614   00121C                     l133:
  2615   00121C  B681               	btfsc	3969,3,c	;volatile
  2616   00121E  EF13  F009         	goto	u1301
  2617   001222  EF15  F009         	goto	u1300
  2618   001226                     u1301:
  2619   001226  EF18  F009         	goto	l135
  2620   00122A                     u1300:
  2621   00122A                     
  2622                           ;matrix_keypad.c: 94:         return 9;
  2623   00122A  0E09               	movlw	9
  2624   00122C  EF23  F009         	goto	l117
  2625   001230                     l135:
  2626   001230  B881               	btfsc	3969,4,c	;volatile
  2627   001232  EF1D  F009         	goto	u1311
  2628   001236  EF1F  F009         	goto	u1310
  2629   00123A                     u1311:
  2630   00123A  EF22  F009         	goto	l134
  2631   00123E                     u1310:
  2632   00123E                     
  2633                           ;matrix_keypad.c: 96:         return 12;
  2634   00123E  0E0C               	movlw	12
  2635   001240  EF23  F009         	goto	l117
  2636   001244                     l134:
  2637   001244                     
  2638                           ;matrix_keypad.c: 98:     return 0xFF;
  2639   001244  0EFF               	movlw	255
  2640   001246                     l117:
  2641   001246  0012               	return		;funcret
  2642   001248                     __end_of_scan_key:
  2643                           	callstack 0
  2644                           
  2645 ;; *************** function ___awmod *****************
  2646 ;; Defined at:
  2647 ;;		line 7 in file "C:\Program Files\Microchip\xc8\v2.41\pic\sources\c99\common\awmod.c"
  2648 ;; Parameters:    Size  Location     Type
  2649 ;;  dividend        2    0[COMRAM] int 
  2650 ;;  divisor         2    2[COMRAM] int 
  2651 ;; Auto vars:     Size  Location     Type
  2652 ;;  sign            1    5[COMRAM] unsigned char 
  2653 ;;  counter         1    4[COMRAM] unsigned char 
  2654 ;; Return value:  Size  Location     Type
  2655 ;;                  2    0[COMRAM] int 
  2656 ;; Registers used:
  2657 ;;		wreg, status,2, status,0
  2658 ;; Tracked objects:
  2659 ;;		On entry : 0/0
  2660 ;;		On exit  : 0/0
  2661 ;;		Unchanged: 0/0
  2662 ;; Data sizes:     COMRAM   BANK0   BANK1   BANK2   BANK3   BANK4   BANK5
  2663 ;;      Params:         4       0       0       0       0       0       0
  2664 ;;      Locals:         2       0       0       0       0       0       0
  2665 ;;      Temps:          0       0       0       0       0       0       0
  2666 ;;      Totals:         6       0       0       0       0       0       0
  2667 ;;Total ram usage:        6 bytes
  2668 ;; Hardware stack levels used: 1
  2669 ;; Hardware stack levels required when called: 1
  2670 ;; This function calls:
  2671 ;;		Nothing
  2672 ;; This function is called by:
  2673 ;;		_enter_password
  2674 ;;		_menu
  2675 ;; This function uses a non-reentrant model
  2676 ;;
  2677                           
  2678                           	psect	text11
  2679   00166C                     __ptext11:
  2680                           	callstack 0
  2681   00166C                     ___awmod:
  2682                           	callstack 27
  2683   00166C  0E00               	movlw	0
  2684   00166E  6E06               	movwf	___awmod@sign^0,c
  2685   001670  BE02               	btfsc	(___awmod@dividend+1)^0,7,c
  2686   001672  EF3F  F00B         	goto	u1380
  2687   001676  EF3D  F00B         	goto	u1381
  2688   00167A                     u1381:
  2689   00167A  EF45  F00B         	goto	l1904
  2690   00167E                     u1380:
  2691   00167E  6C01               	negf	___awmod@dividend^0,c
  2692   001680  1E02               	comf	(___awmod@dividend+1)^0,f,c
  2693   001682  B0D8               	btfsc	status,0,c
  2694   001684  2A02               	incf	(___awmod@dividend+1)^0,f,c
  2695   001686  0E01               	movlw	1
  2696   001688  6E06               	movwf	___awmod@sign^0,c
  2697   00168A                     l1904:
  2698   00168A  BE04               	btfsc	(___awmod@divisor+1)^0,7,c
  2699   00168C  EF4C  F00B         	goto	u1390
  2700   001690  EF4A  F00B         	goto	u1391
  2701   001694                     u1391:
  2702   001694  EF50  F00B         	goto	l1908
  2703   001698                     u1390:
  2704   001698  6C03               	negf	___awmod@divisor^0,c
  2705   00169A  1E04               	comf	(___awmod@divisor+1)^0,f,c
  2706   00169C  B0D8               	btfsc	status,0,c
  2707   00169E  2A04               	incf	(___awmod@divisor+1)^0,f,c
  2708   0016A0                     l1908:
  2709   0016A0  5003               	movf	___awmod@divisor^0,w,c
  2710   0016A2  1004               	iorwf	(___awmod@divisor+1)^0,w,c
  2711   0016A4  B4D8               	btfsc	status,2,c
  2712   0016A6  EF57  F00B         	goto	u1401
  2713   0016AA  EF59  F00B         	goto	u1400
  2714   0016AE                     u1401:
  2715   0016AE  EF7D  F00B         	goto	l1924
  2716   0016B2                     u1400:
  2717   0016B2  0E01               	movlw	1
  2718   0016B4  6E05               	movwf	___awmod@counter^0,c
  2719   0016B6  EF61  F00B         	goto	l1914
  2720   0016BA                     l1912:
  2721   0016BA  90D8               	bcf	status,0,c
  2722   0016BC  3603               	rlcf	___awmod@divisor^0,f,c
  2723   0016BE  3604               	rlcf	(___awmod@divisor+1)^0,f,c
  2724   0016C0  2A05               	incf	___awmod@counter^0,f,c
  2725   0016C2                     l1914:
  2726   0016C2  AE04               	btfss	(___awmod@divisor+1)^0,7,c
  2727   0016C4  EF66  F00B         	goto	u1411
  2728   0016C8  EF68  F00B         	goto	u1410
  2729   0016CC                     u1411:
  2730   0016CC  EF5D  F00B         	goto	l1912
  2731   0016D0                     u1410:
  2732   0016D0                     l1916:
  2733   0016D0  5003               	movf	___awmod@divisor^0,w,c
  2734   0016D2  5C01               	subwf	___awmod@dividend^0,w,c
  2735   0016D4  5004               	movf	(___awmod@divisor+1)^0,w,c
  2736   0016D6  5802               	subwfb	(___awmod@dividend+1)^0,w,c
  2737   0016D8  A0D8               	btfss	status,0,c
  2738   0016DA  EF71  F00B         	goto	u1421
  2739   0016DE  EF73  F00B         	goto	u1420
  2740   0016E2                     u1421:
  2741   0016E2  EF77  F00B         	goto	l1920
  2742   0016E6                     u1420:
  2743   0016E6  5003               	movf	___awmod@divisor^0,w,c
  2744   0016E8  5E01               	subwf	___awmod@dividend^0,f,c
  2745   0016EA  5004               	movf	(___awmod@divisor+1)^0,w,c
  2746   0016EC  5A02               	subwfb	(___awmod@dividend+1)^0,f,c
  2747   0016EE                     l1920:
  2748   0016EE  90D8               	bcf	status,0,c
  2749   0016F0  3204               	rrcf	(___awmod@divisor+1)^0,f,c
  2750   0016F2  3203               	rrcf	___awmod@divisor^0,f,c
  2751   0016F4  2E05               	decfsz	___awmod@counter^0,f,c
  2752   0016F6  EF68  F00B         	goto	l1916
  2753   0016FA                     l1924:
  2754   0016FA  5006               	movf	___awmod@sign^0,w,c
  2755   0016FC  B4D8               	btfsc	status,2,c
  2756   0016FE  EF83  F00B         	goto	u1431
  2757   001702  EF85  F00B         	goto	u1430
  2758   001706                     u1431:
  2759   001706  EF89  F00B         	goto	l1928
  2760   00170A                     u1430:
  2761   00170A  6C01               	negf	___awmod@dividend^0,c
  2762   00170C  1E02               	comf	(___awmod@dividend+1)^0,f,c
  2763   00170E  B0D8               	btfsc	status,0,c
  2764   001710  2A02               	incf	(___awmod@dividend+1)^0,f,c
  2765   001712                     l1928:
  2766   001712  C001  F001         	movff	___awmod@dividend,?___awmod
  2767   001716  C002  F002         	movff	___awmod@dividend+1,?___awmod+1
  2768   00171A  0012               	return		;funcret
  2769   00171C                     __end_of___awmod:
  2770                           	callstack 0
  2771                           
  2772 ;; *************** function ___awdiv *****************
  2773 ;; Defined at:
  2774 ;;		line 7 in file "C:\Program Files\Microchip\xc8\v2.41\pic\sources\c99\common\awdiv.c"
  2775 ;; Parameters:    Size  Location     Type
  2776 ;;  dividend        2    0[COMRAM] int 
  2777 ;;  divisor         2    2[COMRAM] int 
  2778 ;; Auto vars:     Size  Location     Type
  2779 ;;  quotient        2    6[COMRAM] int 
  2780 ;;  sign            1    5[COMRAM] unsigned char 
  2781 ;;  counter         1    4[COMRAM] unsigned char 
  2782 ;; Return value:  Size  Location     Type
  2783 ;;                  2    0[COMRAM] int 
  2784 ;; Registers used:
  2785 ;;		wreg, status,2, status,0
  2786 ;; Tracked objects:
  2787 ;;		On entry : 0/0
  2788 ;;		On exit  : 0/0
  2789 ;;		Unchanged: 0/0
  2790 ;; Data sizes:     COMRAM   BANK0   BANK1   BANK2   BANK3   BANK4   BANK5
  2791 ;;      Params:         4       0       0       0       0       0       0
  2792 ;;      Locals:         4       0       0       0       0       0       0
  2793 ;;      Temps:          0       0       0       0       0       0       0
  2794 ;;      Totals:         8       0       0       0       0       0       0
  2795 ;;Total ram usage:        8 bytes
  2796 ;; Hardware stack levels used: 1
  2797 ;; Hardware stack levels required when called: 1
  2798 ;; This function calls:
  2799 ;;		Nothing
  2800 ;; This function is called by:
  2801 ;;		_enter_password
  2802 ;; This function uses a non-reentrant model
  2803 ;;
  2804                           
  2805                           	psect	text12
  2806   00143E                     __ptext12:
  2807                           	callstack 0
  2808   00143E                     ___awdiv:
  2809                           	callstack 28
  2810   00143E  0E00               	movlw	0
  2811   001440  6E06               	movwf	___awdiv@sign^0,c
  2812   001442  BE04               	btfsc	(___awdiv@divisor+1)^0,7,c
  2813   001444  EF28  F00A         	goto	u1540
  2814   001448  EF26  F00A         	goto	u1541
  2815   00144C                     u1541:
  2816   00144C  EF2E  F00A         	goto	l2026
  2817   001450                     u1540:
  2818   001450  6C03               	negf	___awdiv@divisor^0,c
  2819   001452  1E04               	comf	(___awdiv@divisor+1)^0,f,c
  2820   001454  B0D8               	btfsc	status,0,c
  2821   001456  2A04               	incf	(___awdiv@divisor+1)^0,f,c
  2822   001458  0E01               	movlw	1
  2823   00145A  6E06               	movwf	___awdiv@sign^0,c
  2824   00145C                     l2026:
  2825   00145C  BE02               	btfsc	(___awdiv@dividend+1)^0,7,c
  2826   00145E  EF35  F00A         	goto	u1550
  2827   001462  EF33  F00A         	goto	u1551
  2828   001466                     u1551:
  2829   001466  EF3B  F00A         	goto	l2032
  2830   00146A                     u1550:
  2831   00146A  6C01               	negf	___awdiv@dividend^0,c
  2832   00146C  1E02               	comf	(___awdiv@dividend+1)^0,f,c
  2833   00146E  B0D8               	btfsc	status,0,c
  2834   001470  2A02               	incf	(___awdiv@dividend+1)^0,f,c
  2835   001472  0E01               	movlw	1
  2836   001474  1A06               	xorwf	___awdiv@sign^0,f,c
  2837   001476                     l2032:
  2838   001476  0E00               	movlw	0
  2839   001478  6E08               	movwf	(___awdiv@quotient+1)^0,c
  2840   00147A  0E00               	movlw	0
  2841   00147C  6E07               	movwf	___awdiv@quotient^0,c
  2842   00147E  5003               	movf	___awdiv@divisor^0,w,c
  2843   001480  1004               	iorwf	(___awdiv@divisor+1)^0,w,c
  2844   001482  B4D8               	btfsc	status,2,c
  2845   001484  EF46  F00A         	goto	u1561
  2846   001488  EF48  F00A         	goto	u1560
  2847   00148C                     u1561:
  2848   00148C  EF70  F00A         	goto	l2054
  2849   001490                     u1560:
  2850   001490  0E01               	movlw	1
  2851   001492  6E05               	movwf	___awdiv@counter^0,c
  2852   001494  EF50  F00A         	goto	l2040
  2853   001498                     l2038:
  2854   001498  90D8               	bcf	status,0,c
  2855   00149A  3603               	rlcf	___awdiv@divisor^0,f,c
  2856   00149C  3604               	rlcf	(___awdiv@divisor+1)^0,f,c
  2857   00149E  2A05               	incf	___awdiv@counter^0,f,c
  2858   0014A0                     l2040:
  2859   0014A0  AE04               	btfss	(___awdiv@divisor+1)^0,7,c
  2860   0014A2  EF55  F00A         	goto	u1571
  2861   0014A6  EF57  F00A         	goto	u1570
  2862   0014AA                     u1571:
  2863   0014AA  EF4C  F00A         	goto	l2038
  2864   0014AE                     u1570:
  2865   0014AE                     l2042:
  2866   0014AE  90D8               	bcf	status,0,c
  2867   0014B0  3607               	rlcf	___awdiv@quotient^0,f,c
  2868   0014B2  3608               	rlcf	(___awdiv@quotient+1)^0,f,c
  2869   0014B4  5003               	movf	___awdiv@divisor^0,w,c
  2870   0014B6  5C01               	subwf	___awdiv@dividend^0,w,c
  2871   0014B8  5004               	movf	(___awdiv@divisor+1)^0,w,c
  2872   0014BA  5802               	subwfb	(___awdiv@dividend+1)^0,w,c
  2873   0014BC  A0D8               	btfss	status,0,c
  2874   0014BE  EF63  F00A         	goto	u1581
  2875   0014C2  EF65  F00A         	goto	u1580
  2876   0014C6                     u1581:
  2877   0014C6  EF6A  F00A         	goto	l2050
  2878   0014CA                     u1580:
  2879   0014CA  5003               	movf	___awdiv@divisor^0,w,c
  2880   0014CC  5E01               	subwf	___awdiv@dividend^0,f,c
  2881   0014CE  5004               	movf	(___awdiv@divisor+1)^0,w,c
  2882   0014D0  5A02               	subwfb	(___awdiv@dividend+1)^0,f,c
  2883   0014D2  8007               	bsf	___awdiv@quotient^0,0,c
  2884   0014D4                     l2050:
  2885   0014D4  90D8               	bcf	status,0,c
  2886   0014D6  3204               	rrcf	(___awdiv@divisor+1)^0,f,c
  2887   0014D8  3203               	rrcf	___awdiv@divisor^0,f,c
  2888   0014DA  2E05               	decfsz	___awdiv@counter^0,f,c
  2889   0014DC  EF57  F00A         	goto	l2042
  2890   0014E0                     l2054:
  2891   0014E0  5006               	movf	___awdiv@sign^0,w,c
  2892   0014E2  B4D8               	btfsc	status,2,c
  2893   0014E4  EF76  F00A         	goto	u1591
  2894   0014E8  EF78  F00A         	goto	u1590
  2895   0014EC                     u1591:
  2896   0014EC  EF7C  F00A         	goto	l2058
  2897   0014F0                     u1590:
  2898   0014F0  6C07               	negf	___awdiv@quotient^0,c
  2899   0014F2  1E08               	comf	(___awdiv@quotient+1)^0,f,c
  2900   0014F4  B0D8               	btfsc	status,0,c
  2901   0014F6  2A08               	incf	(___awdiv@quotient+1)^0,f,c
  2902   0014F8                     l2058:
  2903   0014F8  C007  F001         	movff	___awdiv@quotient,?___awdiv
  2904   0014FC  C008  F002         	movff	___awdiv@quotient+1,?___awdiv+1
  2905   001500  0012               	return		;funcret
  2906   001502                     __end_of___awdiv:
  2907                           	callstack 0
  2908                           
  2909 ;; *************** function _display_time *****************
  2910 ;; Defined at:
  2911 ;;		line 18 in file "car_black_box.c"
  2912 ;; Parameters:    Size  Location     Type
  2913 ;;		None
  2914 ;; Auto vars:     Size  Location     Type
  2915 ;;		None
  2916 ;; Return value:  Size  Location     Type
  2917 ;;                  1    wreg      void 
  2918 ;; Registers used:
  2919 ;;		wreg, status,2, status,0, tblptrl, tblptrh, tblptru, cstack
  2920 ;; Tracked objects:
  2921 ;;		On entry : 0/0
  2922 ;;		On exit  : 0/0
  2923 ;;		Unchanged: 0/0
  2924 ;; Data sizes:     COMRAM   BANK0   BANK1   BANK2   BANK3   BANK4   BANK5
  2925 ;;      Params:         0       0       0       0       0       0       0
  2926 ;;      Locals:         0       0       0       0       0       0       0
  2927 ;;      Temps:          0       0       0       0       0       0       0
  2928 ;;      Totals:         0       0       0       0       0       0       0
  2929 ;;Total ram usage:        0 bytes
  2930 ;; Hardware stack levels used: 1
  2931 ;; Hardware stack levels required when called: 3
  2932 ;; This function calls:
  2933 ;;		_clcd_print
  2934 ;; This function is called by:
  2935 ;;		_main
  2936 ;; This function uses a non-reentrant model
  2937 ;;
  2938                           
  2939                           	psect	text13
  2940   001A8E                     __ptext13:
  2941                           	callstack 0
  2942   001A8E                     _display_time:
  2943                           	callstack 27
  2944   001A8E                     
  2945                           ;car_black_box.c: 19:     clcd_print("12:00:00", (0xC0 + (0)));
  2946   001A8E  0EB1               	movlw	low STR_31
  2947   001A90  6E03               	movwf	clcd_print@data^0,c
  2948   001A92  0E06               	movlw	high STR_31
  2949   001A94  6E04               	movwf	(clcd_print@data+1)^0,c
  2950   001A96  0EC0               	movlw	192
  2951   001A98  6E05               	movwf	clcd_print@addr^0,c
  2952   001A9A  ECB6  F00C         	call	_clcd_print	;wreg free
  2953   001A9E  0012               	return		;funcret
  2954   001AA0                     __end_of_display_time:
  2955                           	callstack 0
  2956                           
  2957 ;; *************** function _display_speed *****************
  2958 ;; Defined at:
  2959 ;;		line 46 in file "car_black_box.c"
  2960 ;; Parameters:    Size  Location     Type
  2961 ;;  speed           2   10[COMRAM] unsigned short 
  2962 ;; Auto vars:     Size  Location     Type
  2963 ;;		None
  2964 ;; Return value:  Size  Location     Type
  2965 ;;                  1    wreg      void 
  2966 ;; Registers used:
  2967 ;;		wreg, status,2, status,0, cstack
  2968 ;; Tracked objects:
  2969 ;;		On entry : 0/0
  2970 ;;		On exit  : 0/0
  2971 ;;		Unchanged: 0/0
  2972 ;; Data sizes:     COMRAM   BANK0   BANK1   BANK2   BANK3   BANK4   BANK5
  2973 ;;      Params:         2       0       0       0       0       0       0
  2974 ;;      Locals:         0       0       0       0       0       0       0
  2975 ;;      Temps:          0       0       0       0       0       0       0
  2976 ;;      Totals:         2       0       0       0       0       0       0
  2977 ;;Total ram usage:        2 bytes
  2978 ;; Hardware stack levels used: 1
  2979 ;; Hardware stack levels required when called: 3
  2980 ;; This function calls:
  2981 ;;		___lwdiv
  2982 ;;		___lwmod
  2983 ;;		_clcd_putch
  2984 ;; This function is called by:
  2985 ;;		_main
  2986 ;; This function uses a non-reentrant model
  2987 ;;
  2988                           
  2989                           	psect	text14
  2990   0019B0                     __ptext14:
  2991                           	callstack 0
  2992   0019B0                     _display_speed:
  2993                           	callstack 27
  2994   0019B0                     
  2995                           ;car_black_box.c: 48:     clcd_putch((speed / 10) + 48, (0xC0 + (14)));
  2996   0019B0  0ECE               	movlw	206
  2997   0019B2  6E09               	movwf	clcd_putch@addr^0,c
  2998   0019B4  C00B  F001         	movff	display_speed@speed,___lwdiv@dividend
  2999   0019B8  C00C  F002         	movff	display_speed@speed+1,___lwdiv@dividend+1
  3000   0019BC  0E00               	movlw	0
  3001   0019BE  6E04               	movwf	(___lwdiv@divisor+1)^0,c
  3002   0019C0  0E0A               	movlw	10
  3003   0019C2  6E03               	movwf	___lwdiv@divisor^0,c
  3004   0019C4  EC8E  F00B         	call	___lwdiv	;wreg free
  3005   0019C8  5001               	movf	?___lwdiv^0,w,c
  3006   0019CA  0F30               	addlw	48
  3007   0019CC  EC32  F00D         	call	_clcd_putch
  3008                           
  3009                           ;car_black_box.c: 49:     clcd_putch((speed % 10) + 48, (0xC0 + (15)));
  3010   0019D0  0ECF               	movlw	207
  3011   0019D2  6E09               	movwf	clcd_putch@addr^0,c
  3012   0019D4  C00B  F001         	movff	display_speed@speed,___lwmod@dividend
  3013   0019D8  C00C  F002         	movff	display_speed@speed+1,___lwmod@dividend+1
  3014   0019DC  0E00               	movlw	0
  3015   0019DE  6E04               	movwf	(___lwmod@divisor+1)^0,c
  3016   0019E0  0E0A               	movlw	10
  3017   0019E2  6E03               	movwf	___lwmod@divisor^0,c
  3018   0019E4  EC01  F00C         	call	___lwmod	;wreg free
  3019   0019E8  5001               	movf	?___lwmod^0,w,c
  3020   0019EA  0F30               	addlw	48
  3021   0019EC  EC32  F00D         	call	_clcd_putch
  3022   0019F0  0012               	return		;funcret
  3023   0019F2                     __end_of_display_speed:
  3024                           	callstack 0
  3025                           
  3026 ;; *************** function _clcd_putch *****************
  3027 ;; Defined at:
  3028 ;;		line 74 in file "clcd.c"
  3029 ;; Parameters:    Size  Location     Type
  3030 ;;  data            1    wreg     const unsigned char 
  3031 ;;  addr            1    8[COMRAM] unsigned char 
  3032 ;; Auto vars:     Size  Location     Type
  3033 ;;  data            1    9[COMRAM] const unsigned char 
  3034 ;; Return value:  Size  Location     Type
  3035 ;;                  1    wreg      void 
  3036 ;; Registers used:
  3037 ;;		wreg, status,2, cstack
  3038 ;; Tracked objects:
  3039 ;;		On entry : 0/0
  3040 ;;		On exit  : 0/0
  3041 ;;		Unchanged: 0/0
  3042 ;; Data sizes:     COMRAM   BANK0   BANK1   BANK2   BANK3   BANK4   BANK5
  3043 ;;      Params:         1       0       0       0       0       0       0
  3044 ;;      Locals:         1       0       0       0       0       0       0
  3045 ;;      Temps:          0       0       0       0       0       0       0
  3046 ;;      Totals:         2       0       0       0       0       0       0
  3047 ;;Total ram usage:        2 bytes
  3048 ;; Hardware stack levels used: 1
  3049 ;; Hardware stack levels required when called: 2
  3050 ;; This function calls:
  3051 ;;		_clcd_write
  3052 ;; This function is called by:
  3053 ;;		_display_speed
  3054 ;;		_enter_password
  3055 ;;		_menu
  3056 ;; This function uses a non-reentrant model
  3057 ;;
  3058                           
  3059                           	psect	text15
  3060   001A64                     __ptext15:
  3061                           	callstack 0
  3062   001A64                     _clcd_putch:
  3063                           	callstack 26
  3064                           
  3065                           ;incstack = 0
  3066                           ;clcd_putch@data stored from wreg
  3067   001A64  6E0A               	movwf	clcd_putch@data^0,c
  3068   001A66                     
  3069                           ;clcd.c: 74: void clcd_putch(const unsigned char data, unsigned char addr);clcd.c: 75: {
      +                          ;clcd.c: 76:  clcd_write(addr, 0);
  3070   001A66  0E00               	movlw	0
  3071   001A68  6E01               	movwf	clcd_write@control_bit^0,c
  3072   001A6A  5009               	movf	clcd_putch@addr^0,w,c
  3073   001A6C  ECF9  F00C         	call	_clcd_write
  3074                           
  3075                           ;clcd.c: 77:  clcd_write(data, 1);
  3076   001A70  0E01               	movlw	1
  3077   001A72  6E01               	movwf	clcd_write@control_bit^0,c
  3078   001A74  500A               	movf	clcd_putch@data^0,w,c
  3079   001A76  ECF9  F00C         	call	_clcd_write
  3080   001A7A  0012               	return		;funcret
  3081   001A7C                     __end_of_clcd_putch:
  3082                           	callstack 0
  3083                           
  3084 ;; *************** function ___lwmod *****************
  3085 ;; Defined at:
  3086 ;;		line 7 in file "C:\Program Files\Microchip\xc8\v2.41\pic\sources\c99\common\lwmod.c"
  3087 ;; Parameters:    Size  Location     Type
  3088 ;;  dividend        2    0[COMRAM] unsigned int 
  3089 ;;  divisor         2    2[COMRAM] unsigned int 
  3090 ;; Auto vars:     Size  Location     Type
  3091 ;;  counter         1    4[COMRAM] unsigned char 
  3092 ;; Return value:  Size  Location     Type
  3093 ;;                  2    0[COMRAM] unsigned int 
  3094 ;; Registers used:
  3095 ;;		wreg, status,2, status,0
  3096 ;; Tracked objects:
  3097 ;;		On entry : 0/0
  3098 ;;		On exit  : 0/0
  3099 ;;		Unchanged: 0/0
  3100 ;; Data sizes:     COMRAM   BANK0   BANK1   BANK2   BANK3   BANK4   BANK5
  3101 ;;      Params:         4       0       0       0       0       0       0
  3102 ;;      Locals:         1       0       0       0       0       0       0
  3103 ;;      Temps:          0       0       0       0       0       0       0
  3104 ;;      Totals:         5       0       0       0       0       0       0
  3105 ;;Total ram usage:        5 bytes
  3106 ;; Hardware stack levels used: 1
  3107 ;; Hardware stack levels required when called: 1
  3108 ;; This function calls:
  3109 ;;		Nothing
  3110 ;; This function is called by:
  3111 ;;		_display_speed
  3112 ;; This function uses a non-reentrant model
  3113 ;;
  3114                           
  3115                           	psect	text16
  3116   001802                     __ptext16:
  3117                           	callstack 0
  3118   001802                     ___lwmod:
  3119                           	callstack 28
  3120   001802  5003               	movf	___lwmod@divisor^0,w,c
  3121   001804  1004               	iorwf	(___lwmod@divisor+1)^0,w,c
  3122   001806  B4D8               	btfsc	status,2,c
  3123   001808  EF08  F00C         	goto	u1631
  3124   00180C  EF0A  F00C         	goto	u1630
  3125   001810                     u1631:
  3126   001810  EF2E  F00C         	goto	l804
  3127   001814                     u1630:
  3128   001814  0E01               	movlw	1
  3129   001816  6E05               	movwf	___lwmod@counter^0,c
  3130   001818  EF12  F00C         	goto	l2090
  3131   00181C                     l2088:
  3132   00181C  90D8               	bcf	status,0,c
  3133   00181E  3603               	rlcf	___lwmod@divisor^0,f,c
  3134   001820  3604               	rlcf	(___lwmod@divisor+1)^0,f,c
  3135   001822  2A05               	incf	___lwmod@counter^0,f,c
  3136   001824                     l2090:
  3137   001824  AE04               	btfss	(___lwmod@divisor+1)^0,7,c
  3138   001826  EF17  F00C         	goto	u1641
  3139   00182A  EF19  F00C         	goto	u1640
  3140   00182E                     u1641:
  3141   00182E  EF0E  F00C         	goto	l2088
  3142   001832                     u1640:
  3143   001832                     l2092:
  3144   001832  5003               	movf	___lwmod@divisor^0,w,c
  3145   001834  5C01               	subwf	___lwmod@dividend^0,w,c
  3146   001836  5004               	movf	(___lwmod@divisor+1)^0,w,c
  3147   001838  5802               	subwfb	(___lwmod@dividend+1)^0,w,c
  3148   00183A  A0D8               	btfss	status,0,c
  3149   00183C  EF22  F00C         	goto	u1651
  3150   001840  EF24  F00C         	goto	u1650
  3151   001844                     u1651:
  3152   001844  EF28  F00C         	goto	l2096
  3153   001848                     u1650:
  3154   001848  5003               	movf	___lwmod@divisor^0,w,c
  3155   00184A  5E01               	subwf	___lwmod@dividend^0,f,c
  3156   00184C  5004               	movf	(___lwmod@divisor+1)^0,w,c
  3157   00184E  5A02               	subwfb	(___lwmod@dividend+1)^0,f,c
  3158   001850                     l2096:
  3159   001850  90D8               	bcf	status,0,c
  3160   001852  3204               	rrcf	(___lwmod@divisor+1)^0,f,c
  3161   001854  3203               	rrcf	___lwmod@divisor^0,f,c
  3162   001856  2E05               	decfsz	___lwmod@counter^0,f,c
  3163   001858  EF19  F00C         	goto	l2092
  3164   00185C                     l804:
  3165   00185C  C001  F001         	movff	___lwmod@dividend,?___lwmod
  3166   001860  C002  F002         	movff	___lwmod@dividend+1,?___lwmod+1
  3167   001864  0012               	return		;funcret
  3168   001866                     __end_of___lwmod:
  3169                           	callstack 0
  3170                           
  3171 ;; *************** function ___lwdiv *****************
  3172 ;; Defined at:
  3173 ;;		line 7 in file "C:\Program Files\Microchip\xc8\v2.41\pic\sources\c99\common\lwdiv.c"
  3174 ;; Parameters:    Size  Location     Type
  3175 ;;  dividend        2    0[COMRAM] unsigned int 
  3176 ;;  divisor         2    2[COMRAM] unsigned int 
  3177 ;; Auto vars:     Size  Location     Type
  3178 ;;  quotient        2    4[COMRAM] unsigned int 
  3179 ;;  counter         1    6[COMRAM] unsigned char 
  3180 ;; Return value:  Size  Location     Type
  3181 ;;                  2    0[COMRAM] unsigned int 
  3182 ;; Registers used:
  3183 ;;		wreg, status,2, status,0
  3184 ;; Tracked objects:
  3185 ;;		On entry : 0/0
  3186 ;;		On exit  : 0/0
  3187 ;;		Unchanged: 0/0
  3188 ;; Data sizes:     COMRAM   BANK0   BANK1   BANK2   BANK3   BANK4   BANK5
  3189 ;;      Params:         4       0       0       0       0       0       0
  3190 ;;      Locals:         3       0       0       0       0       0       0
  3191 ;;      Temps:          0       0       0       0       0       0       0
  3192 ;;      Totals:         7       0       0       0       0       0       0
  3193 ;;Total ram usage:        7 bytes
  3194 ;; Hardware stack levels used: 1
  3195 ;; Hardware stack levels required when called: 1
  3196 ;; This function calls:
  3197 ;;		Nothing
  3198 ;; This function is called by:
  3199 ;;		_display_speed
  3200 ;; This function uses a non-reentrant model
  3201 ;;
  3202                           
  3203                           	psect	text17
  3204   00171C                     __ptext17:
  3205                           	callstack 0
  3206   00171C                     ___lwdiv:
  3207                           	callstack 28
  3208   00171C  0E00               	movlw	0
  3209   00171E  6E06               	movwf	(___lwdiv@quotient+1)^0,c
  3210   001720  0E00               	movlw	0
  3211   001722  6E05               	movwf	___lwdiv@quotient^0,c
  3212   001724  5003               	movf	___lwdiv@divisor^0,w,c
  3213   001726  1004               	iorwf	(___lwdiv@divisor+1)^0,w,c
  3214   001728  B4D8               	btfsc	status,2,c
  3215   00172A  EF99  F00B         	goto	u1601
  3216   00172E  EF9B  F00B         	goto	u1600
  3217   001732                     u1601:
  3218   001732  EFC3  F00B         	goto	l794
  3219   001736                     u1600:
  3220   001736  0E01               	movlw	1
  3221   001738  6E07               	movwf	___lwdiv@counter^0,c
  3222   00173A  EFA3  F00B         	goto	l2070
  3223   00173E                     l2068:
  3224   00173E  90D8               	bcf	status,0,c
  3225   001740  3603               	rlcf	___lwdiv@divisor^0,f,c
  3226   001742  3604               	rlcf	(___lwdiv@divisor+1)^0,f,c
  3227   001744  2A07               	incf	___lwdiv@counter^0,f,c
  3228   001746                     l2070:
  3229   001746  AE04               	btfss	(___lwdiv@divisor+1)^0,7,c
  3230   001748  EFA8  F00B         	goto	u1611
  3231   00174C  EFAA  F00B         	goto	u1610
  3232   001750                     u1611:
  3233   001750  EF9F  F00B         	goto	l2068
  3234   001754                     u1610:
  3235   001754                     l2072:
  3236   001754  90D8               	bcf	status,0,c
  3237   001756  3605               	rlcf	___lwdiv@quotient^0,f,c
  3238   001758  3606               	rlcf	(___lwdiv@quotient+1)^0,f,c
  3239   00175A  5003               	movf	___lwdiv@divisor^0,w,c
  3240   00175C  5C01               	subwf	___lwdiv@dividend^0,w,c
  3241   00175E  5004               	movf	(___lwdiv@divisor+1)^0,w,c
  3242   001760  5802               	subwfb	(___lwdiv@dividend+1)^0,w,c
  3243   001762  A0D8               	btfss	status,0,c
  3244   001764  EFB6  F00B         	goto	u1621
  3245   001768  EFB8  F00B         	goto	u1620
  3246   00176C                     u1621:
  3247   00176C  EFBD  F00B         	goto	l2080
  3248   001770                     u1620:
  3249   001770  5003               	movf	___lwdiv@divisor^0,w,c
  3250   001772  5E01               	subwf	___lwdiv@dividend^0,f,c
  3251   001774  5004               	movf	(___lwdiv@divisor+1)^0,w,c
  3252   001776  5A02               	subwfb	(___lwdiv@dividend+1)^0,f,c
  3253   001778  8005               	bsf	___lwdiv@quotient^0,0,c
  3254   00177A                     l2080:
  3255   00177A  90D8               	bcf	status,0,c
  3256   00177C  3204               	rrcf	(___lwdiv@divisor+1)^0,f,c
  3257   00177E  3203               	rrcf	___lwdiv@divisor^0,f,c
  3258   001780  2E07               	decfsz	___lwdiv@counter^0,f,c
  3259   001782  EFAA  F00B         	goto	l2072
  3260   001786                     l794:
  3261   001786  C005  F001         	movff	___lwdiv@quotient,?___lwdiv
  3262   00178A  C006  F002         	movff	___lwdiv@quotient+1,?___lwdiv+1
  3263   00178E  0012               	return		;funcret
  3264   001790                     __end_of___lwdiv:
  3265                           	callstack 0
  3266                           
  3267 ;; *************** function _display_event *****************
  3268 ;; Defined at:
  3269 ;;		line 22 in file "car_black_box.c"
  3270 ;; Parameters:    Size  Location     Type
  3271 ;;  key             1    wreg     unsigned char 
  3272 ;; Auto vars:     Size  Location     Type
  3273 ;;  key             1    5[COMRAM] unsigned char 
  3274 ;; Return value:  Size  Location     Type
  3275 ;;                  1    wreg      void 
  3276 ;; Registers used:
  3277 ;;		wreg, fsr2l, fsr2h, status,2, status,0, tblptrl, tblptrh, tblptru, prodl, prodh, cstack
  3278 ;; Tracked objects:
  3279 ;;		On entry : 0/0
  3280 ;;		On exit  : 0/0
  3281 ;;		Unchanged: 0/0
  3282 ;; Data sizes:     COMRAM   BANK0   BANK1   BANK2   BANK3   BANK4   BANK5
  3283 ;;      Params:         0       0       0       0       0       0       0
  3284 ;;      Locals:         1       0       0       0       0       0       0
  3285 ;;      Temps:          0       0       0       0       0       0       0
  3286 ;;      Totals:         1       0       0       0       0       0       0
  3287 ;;Total ram usage:        1 bytes
  3288 ;; Hardware stack levels used: 1
  3289 ;; Hardware stack levels required when called: 3
  3290 ;; This function calls:
  3291 ;;		_clcd_print
  3292 ;; This function is called by:
  3293 ;;		_main
  3294 ;; This function uses a non-reentrant model
  3295 ;;
  3296                           
  3297                           	psect	text18
  3298   001502                     __ptext18:
  3299                           	callstack 0
  3300   001502                     _display_event:
  3301                           	callstack 27
  3302                           
  3303                           ;incstack = 0
  3304                           ;display_event@key stored from wreg
  3305   001502  6E06               	movwf	display_event@key^0,c
  3306   001504                     
  3307                           ;car_black_box.c: 23:     static unsigned char gear = 0, flag = 0;;car_black_box.c: 24: 
      +                              if (key == 1) {
  3308   001504  0406               	decf	display_event@key^0,w,c
  3309   001506  A4D8               	btfss	status,2,c
  3310   001508  EF88  F00A         	goto	u1821
  3311   00150C  EF8A  F00A         	goto	u1820
  3312   001510                     u1821:
  3313   001510  EF8E  F00A         	goto	l2242
  3314   001514                     u1820:
  3315   001514                     
  3316                           ;car_black_box.c: 25:         flag = 1;
  3317   001514  0E01               	movlw	1
  3318   001516  6E50               	movwf	display_event@flag^0,c
  3319                           
  3320                           ;car_black_box.c: 26:         gear = 0;
  3321   001518  0E00               	movlw	0
  3322   00151A  6E51               	movwf	display_event@gear^0,c
  3323   00151C                     l2242:
  3324                           
  3325                           ;car_black_box.c: 28:     if (key == 2) {
  3326   00151C  0E02               	movlw	2
  3327   00151E  1806               	xorwf	display_event@key^0,w,c
  3328   001520  A4D8               	btfss	status,2,c
  3329   001522  EF95  F00A         	goto	u1831
  3330   001526  EF97  F00A         	goto	u1830
  3331   00152A                     u1831:
  3332   00152A  EFA5  F00A         	goto	l2252
  3333   00152E                     u1830:
  3334   00152E                     
  3335                           ;car_black_box.c: 29:         flag = 0;
  3336   00152E  0E00               	movlw	0
  3337   001530  6E50               	movwf	display_event@flag^0,c
  3338   001532                     
  3339                           ;car_black_box.c: 30:         gear++;
  3340   001532  2A51               	incf	display_event@gear^0,f,c
  3341   001534                     
  3342                           ;car_black_box.c: 31:         if (gear == 7)
  3343   001534  0E07               	movlw	7
  3344   001536  1851               	xorwf	display_event@gear^0,w,c
  3345   001538  A4D8               	btfss	status,2,c
  3346   00153A  EFA1  F00A         	goto	u1841
  3347   00153E  EFA3  F00A         	goto	u1840
  3348   001542                     u1841:
  3349   001542  EFA5  F00A         	goto	l2252
  3350   001546                     u1840:
  3351   001546                     
  3352                           ;car_black_box.c: 32:             gear = 6;
  3353   001546  0E06               	movlw	6
  3354   001548  6E51               	movwf	display_event@gear^0,c
  3355   00154A                     l2252:
  3356                           
  3357                           ;car_black_box.c: 34:     if (key == 3 && flag == 0) {
  3358   00154A  0E03               	movlw	3
  3359   00154C  1806               	xorwf	display_event@key^0,w,c
  3360   00154E  A4D8               	btfss	status,2,c
  3361   001550  EFAC  F00A         	goto	u1851
  3362   001554  EFAE  F00A         	goto	u1850
  3363   001558                     u1851:
  3364   001558  EFBB  F00A         	goto	l2260
  3365   00155C                     u1850:
  3366   00155C  5050               	movf	display_event@flag^0,w,c
  3367   00155E  A4D8               	btfss	status,2,c
  3368   001560  EFB4  F00A         	goto	u1861
  3369   001564  EFB6  F00A         	goto	u1860
  3370   001568                     u1861:
  3371   001568  EFBB  F00A         	goto	l2260
  3372   00156C                     u1860:
  3373   00156C                     
  3374                           ;car_black_box.c: 35:         if (--gear == 0)
  3375   00156C  2E51               	decfsz	display_event@gear^0,f,c
  3376   00156E  EFBB  F00A         	goto	l2260
  3377   001572                     
  3378                           ;car_black_box.c: 36:             gear = 1;
  3379   001572  0E01               	movlw	1
  3380   001574  6E51               	movwf	display_event@gear^0,c
  3381   001576                     l2260:
  3382                           
  3383                           ;car_black_box.c: 39:     if (flag == 1) {
  3384   001576  0450               	decf	display_event@flag^0,w,c
  3385   001578  A4D8               	btfss	status,2,c
  3386   00157A  EFC1  F00A         	goto	u1871
  3387   00157E  EFC3  F00A         	goto	u1870
  3388   001582                     u1871:
  3389   001582  EFCD  F00A         	goto	l2264
  3390   001586                     u1870:
  3391   001586                     
  3392                           ;car_black_box.c: 40:         clcd_print(signature[7], (0xC0 + (10)));
  3393   001586  C06E  F003         	movff	_signature+14,clcd_print@data
  3394   00158A  C06F  F004         	movff	_signature+15,clcd_print@data+1
  3395   00158E  0ECA               	movlw	202
  3396   001590  6E05               	movwf	clcd_print@addr^0,c
  3397   001592  ECB6  F00C         	call	_clcd_print	;wreg free
  3398                           
  3399                           ;car_black_box.c: 41:     } else {
  3400   001596  EFDD  F00A         	goto	l172
  3401   00159A                     l2264:
  3402                           
  3403                           ;car_black_box.c: 42:         clcd_print(signature[gear], (0xC0 + (10)));
  3404   00159A  5051               	movf	display_event@gear^0,w,c
  3405   00159C  0D02               	mullw	2
  3406   00159E  0E60               	movlw	low _signature
  3407   0015A0  24F3               	addwf	243,w,c
  3408   0015A2  6ED9               	movwf	fsr2l,c
  3409   0015A4  0E00               	movlw	high _signature
  3410   0015A6  20F4               	addwfc	prodh,w,c
  3411   0015A8  6EDA               	movwf	fsr2h,c
  3412   0015AA  CFDE F003          	movff	postinc2,clcd_print@data
  3413   0015AE  CFDD F004          	movff	postdec2,clcd_print@data+1
  3414   0015B2  0ECA               	movlw	202
  3415   0015B4  6E05               	movwf	clcd_print@addr^0,c
  3416   0015B6  ECB6  F00C         	call	_clcd_print	;wreg free
  3417   0015BA                     l172:
  3418   0015BA  0012               	return		;funcret
  3419   0015BC                     __end_of_display_event:
  3420                           	callstack 0
  3421                           
  3422 ;; *************** function _clcd_print *****************
  3423 ;; Defined at:
  3424 ;;		line 65 in file "clcd.c"
  3425 ;; Parameters:    Size  Location     Type
  3426 ;;  data            2    2[COMRAM] PTR const unsigned char 
  3427 ;;		 -> STR_46(17), STR_45(17), STR_44(17), STR_43(17), 
  3428 ;;		 -> STR_42(4), STR_41(11), STR_40(17), STR_39(17), 
  3429 ;;		 -> STR_38(15), STR_37(17), STR_36(17), STR_35(17), 
  3430 ;;		 -> STR_34(17), STR_33(17), STR_32(17), STR_31(9), 
  3431 ;;		 -> STR_30(13), STR_29(13), STR_28(13), STR_27(13), 
  3432 ;;		 -> STR_26(13), STR_25(3), STR_24(3), STR_23(3), 
  3433 ;;		 -> STR_22(3), STR_21(3), STR_20(3), STR_19(3), 
  3434 ;;		 -> STR_18(3), STR_17(3), STR_16(3), STR_15(5), 
  3435 ;;		 -> STR_14(17), STR_13(13), STR_12(13), STR_11(13), 
  3436 ;;		 -> STR_10(13), STR_9(13), STR_8(3), STR_7(3), 
  3437 ;;		 -> STR_6(3), STR_5(3), STR_4(3), STR_3(3), 
  3438 ;;		 -> STR_2(3), STR_1(3), 
  3439 ;;  addr            1    4[COMRAM] unsigned char 
  3440 ;; Auto vars:     Size  Location     Type
  3441 ;;		None
  3442 ;; Return value:  Size  Location     Type
  3443 ;;                  1    wreg      void 
  3444 ;; Registers used:
  3445 ;;		wreg, status,2, status,0, tblptrl, tblptrh, tblptru, cstack
  3446 ;; Tracked objects:
  3447 ;;		On entry : 0/0
  3448 ;;		On exit  : 0/0
  3449 ;;		Unchanged: 0/0
  3450 ;; Data sizes:     COMRAM   BANK0   BANK1   BANK2   BANK3   BANK4   BANK5
  3451 ;;      Params:         3       0       0       0       0       0       0
  3452 ;;      Locals:         0       0       0       0       0       0       0
  3453 ;;      Temps:          0       0       0       0       0       0       0
  3454 ;;      Totals:         3       0       0       0       0       0       0
  3455 ;;Total ram usage:        3 bytes
  3456 ;; Hardware stack levels used: 1
  3457 ;; Hardware stack levels required when called: 2
  3458 ;; This function calls:
  3459 ;;		_clcd_write
  3460 ;; This function is called by:
  3461 ;;		_main
  3462 ;;		_display_time
  3463 ;;		_display_event
  3464 ;;		_enter_password
  3465 ;;		_menu
  3466 ;; This function uses a non-reentrant model
  3467 ;;
  3468                           
  3469                           	psect	text19
  3470   00196C                     __ptext19:
  3471                           	callstack 0
  3472   00196C                     _clcd_print:
  3473                           	callstack 26
  3474   00196C                     
  3475                           ;clcd.c: 65: void clcd_print(const unsigned char *data, unsigned char addr);clcd.c: 66: 
      +                          {;clcd.c: 67:  clcd_write(addr, 0);
  3476   00196C  0E00               	movlw	0
  3477   00196E  6E01               	movwf	clcd_write@control_bit^0,c
  3478   001970  5005               	movf	clcd_print@addr^0,w,c
  3479   001972  ECF9  F00C         	call	_clcd_write
  3480                           
  3481                           ;clcd.c: 68:  while (*data != '\0')
  3482   001976  EFC9  F00C         	goto	l1892
  3483   00197A                     l1888:
  3484                           
  3485                           ;clcd.c: 69:  {;clcd.c: 70:   clcd_write(*data++, 1);
  3486   00197A  0E01               	movlw	1
  3487   00197C  6E01               	movwf	clcd_write@control_bit^0,c
  3488   00197E  C003  FFF6         	movff	clcd_print@data,tblptrl
  3489   001982  C004  FFF7         	movff	clcd_print@data+1,tblptrh
  3490   001986                     	if	0	;tblptru may be non-zero
  3491   001986                     	endif
  3492   001986                     	if	0	;tblptru may be non-zero
  3493   001986                     	endif
  3494   001986  0008               	tblrd		*
  3495   001988  50F5               	movf	tablat,w,c
  3496   00198A  ECF9  F00C         	call	_clcd_write
  3497   00198E  4A03               	infsnz	clcd_print@data^0,f,c
  3498   001990  2A04               	incf	(clcd_print@data+1)^0,f,c
  3499   001992                     l1892:
  3500                           
  3501                           ;clcd.c: 68:  while (*data != '\0')
  3502   001992  C003  FFF6         	movff	clcd_print@data,tblptrl
  3503   001996  C004  FFF7         	movff	clcd_print@data+1,tblptrh
  3504   00199A                     	if	0	;tblptru may be non-zero
  3505   00199A                     	endif
  3506   00199A                     	if	0	;tblptru may be non-zero
  3507   00199A                     	endif
  3508   00199A  0008               	tblrd		*
  3509   00199C  50F5               	movf	tablat,w,c
  3510   00199E  0900               	iorlw	0
  3511   0019A0  A4D8               	btfss	status,2,c
  3512   0019A2  EFD5  F00C         	goto	u1371
  3513   0019A6  EFD7  F00C         	goto	u1370
  3514   0019AA                     u1371:
  3515   0019AA  EFBD  F00C         	goto	l1888
  3516   0019AE                     u1370:
  3517   0019AE  0012               	return		;funcret
  3518   0019B0                     __end_of_clcd_print:
  3519                           	callstack 0
  3520                           
  3521 ;; *************** function _clcd_write *****************
  3522 ;; Defined at:
  3523 ;;		line 11 in file "clcd.c"
  3524 ;; Parameters:    Size  Location     Type
  3525 ;;  byte            1    wreg     unsigned char 
  3526 ;;  control_bit     1    0[COMRAM] unsigned char 
  3527 ;; Auto vars:     Size  Location     Type
  3528 ;;  byte            1    1[COMRAM] unsigned char 
  3529 ;; Return value:  Size  Location     Type
  3530 ;;                  1    wreg      void 
  3531 ;; Registers used:
  3532 ;;		wreg
  3533 ;; Tracked objects:
  3534 ;;		On entry : 0/0
  3535 ;;		On exit  : 0/0
  3536 ;;		Unchanged: 0/0
  3537 ;; Data sizes:     COMRAM   BANK0   BANK1   BANK2   BANK3   BANK4   BANK5
  3538 ;;      Params:         1       0       0       0       0       0       0
  3539 ;;      Locals:         1       0       0       0       0       0       0
  3540 ;;      Temps:          0       0       0       0       0       0       0
  3541 ;;      Totals:         2       0       0       0       0       0       0
  3542 ;;Total ram usage:        2 bytes
  3543 ;; Hardware stack levels used: 1
  3544 ;; Hardware stack levels required when called: 1
  3545 ;; This function calls:
  3546 ;;		Nothing
  3547 ;; This function is called by:
  3548 ;;		_init_clcd
  3549 ;;		_clcd_print
  3550 ;;		_clcd_putch
  3551 ;; This function uses a non-reentrant model
  3552 ;;
  3553                           
  3554                           	psect	text20
  3555   0019F2                     __ptext20:
  3556                           	callstack 0
  3557   0019F2                     _clcd_write:
  3558                           	callstack 27
  3559                           
  3560                           ;incstack = 0
  3561                           ;clcd_write@byte stored from wreg
  3562   0019F2  6E02               	movwf	clcd_write@byte^0,c
  3563   0019F4                     
  3564                           ;clcd.c: 11: void clcd_write(unsigned char byte, unsigned char control_bit);clcd.c: 12: 
      +                          {;clcd.c: 13:  RC1 = control_bit;
  3565   0019F4  B001               	btfsc	clcd_write@control_bit^0,0,c
  3566   0019F6  EFFF  F00C         	goto	u1171
  3567   0019FA  EF02  F00D         	goto	u1170
  3568   0019FE                     u1171:
  3569   0019FE  8282               	bsf	3970,1,c	;volatile
  3570   001A00  EF03  F00D         	goto	u1185
  3571   001A04                     u1170:
  3572   001A04  9282               	bcf	3970,1,c	;volatile
  3573   001A06                     u1185:
  3574   001A06                     
  3575                           ;clcd.c: 14:  PORTD = byte;
  3576   001A06  C002  FF83         	movff	clcd_write@byte,3971	;volatile
  3577   001A0A                     
  3578                           ;clcd.c: 17:  RC2 = 1;
  3579   001A0A  8482               	bsf	3970,2,c	;volatile
  3580   001A0C                     
  3581                           ;clcd.c: 18:  RC2 = 0;
  3582   001A0C  9482               	bcf	3970,2,c	;volatile
  3583   001A0E                     
  3584                           ;clcd.c: 20:  TRISD7 = 0xFF;
  3585   001A0E  8E95               	bsf	3989,7,c	;volatile
  3586   001A10                     
  3587                           ;clcd.c: 21:  RC0 = 1;
  3588   001A10  8082               	bsf	3970,0,c	;volatile
  3589   001A12                     
  3590                           ;clcd.c: 22:  RC1 = 0;
  3591   001A12  9282               	bcf	3970,1,c	;volatile
  3592   001A14                     l1778:
  3593                           
  3594                           ;clcd.c: 25:  {;clcd.c: 26:   RC2 = 1;
  3595   001A14  8482               	bsf	3970,2,c	;volatile
  3596   001A16                     
  3597                           ;clcd.c: 27:   RC2 = 0;
  3598   001A16  9482               	bcf	3970,2,c	;volatile
  3599   001A18                     
  3600                           ;clcd.c: 28:  } while (RD7);
  3601   001A18  BE83               	btfsc	3971,7,c	;volatile
  3602   001A1A  EF11  F00D         	goto	u1191
  3603   001A1E  EF13  F00D         	goto	u1190
  3604   001A22                     u1191:
  3605   001A22  EF0A  F00D         	goto	l1778
  3606   001A26                     u1190:
  3607   001A26                     
  3608                           ;clcd.c: 30:  RC0 = 0;
  3609   001A26  9082               	bcf	3970,0,c	;volatile
  3610                           
  3611                           ;clcd.c: 31:  TRISD7 = 0x00;
  3612   001A28  9E95               	bcf	3989,7,c	;volatile
  3613   001A2A  0012               	return		;funcret
  3614   001A2C                     __end_of_clcd_write:
  3615                           	callstack 0
  3616                           
  3617 ;; *************** function ___xxtofl *****************
  3618 ;; Defined at:
  3619 ;;		line 10 in file "C:\Program Files\Microchip\xc8\v2.41\pic\sources\c99\common\xxtofl.c"
  3620 ;; Parameters:    Size  Location     Type
  3621 ;;  sign            1    wreg     unsigned char 
  3622 ;;  val             4    8[COMRAM] long 
  3623 ;; Auto vars:     Size  Location     Type
  3624 ;;  sign            1   16[COMRAM] unsigned char 
  3625 ;;  arg             4   18[COMRAM] unsigned long 
  3626 ;;  exp             1   17[COMRAM] unsigned char 
  3627 ;; Return value:  Size  Location     Type
  3628 ;;                  4    8[COMRAM] unsigned char 
  3629 ;; Registers used:
  3630 ;;		wreg, status,2, status,0
  3631 ;; Tracked objects:
  3632 ;;		On entry : 0/0
  3633 ;;		On exit  : 0/0
  3634 ;;		Unchanged: 0/0
  3635 ;; Data sizes:     COMRAM   BANK0   BANK1   BANK2   BANK3   BANK4   BANK5
  3636 ;;      Params:         4       0       0       0       0       0       0
  3637 ;;      Locals:         6       0       0       0       0       0       0
  3638 ;;      Temps:          4       0       0       0       0       0       0
  3639 ;;      Totals:        14       0       0       0       0       0       0
  3640 ;;Total ram usage:       14 bytes
  3641 ;; Hardware stack levels used: 1
  3642 ;; Hardware stack levels required when called: 1
  3643 ;; This function calls:
  3644 ;;		Nothing
  3645 ;; This function is called by:
  3646 ;;		_main
  3647 ;; This function uses a non-reentrant model
  3648 ;;
  3649                           
  3650                           	psect	text21
  3651   000DE6                     __ptext21:
  3652                           	callstack 0
  3653   000DE6                     ___xxtofl:
  3654                           	callstack 29
  3655                           
  3656                           ;incstack = 0
  3657                           ;___xxtofl@sign stored from wreg
  3658   000DE6  6E11               	movwf	___xxtofl@sign^0,c
  3659   000DE8  5011               	movf	___xxtofl@sign^0,w,c
  3660   000DEA  B4D8               	btfsc	status,2,c
  3661   000DEC  EFFA  F006         	goto	u2181
  3662   000DF0  EFFC  F006         	goto	u2180
  3663   000DF4                     u2181:
  3664   000DF4  EF1E  F007         	goto	l958
  3665   000DF8                     u2180:
  3666   000DF8  BE0C               	btfsc	(___xxtofl@val+3)^0,7,c
  3667   000DFA  EF03  F007         	goto	u2190
  3668   000DFE  EF01  F007         	goto	u2191
  3669   000E02                     u2191:
  3670   000E02  EF1E  F007         	goto	l958
  3671   000E06                     u2190:
  3672   000E06  C009  F00D         	movff	___xxtofl@val,??___xxtofl
  3673   000E0A  C00A  F00E         	movff	___xxtofl@val+1,??___xxtofl+1
  3674   000E0E  C00B  F00F         	movff	___xxtofl@val+2,??___xxtofl+2
  3675   000E12  C00C  F010         	movff	___xxtofl@val+3,??___xxtofl+3
  3676   000E16  1E0D               	comf	??___xxtofl^0,f,c
  3677   000E18  1E0E               	comf	(??___xxtofl+1)^0,f,c
  3678   000E1A  1E0F               	comf	(??___xxtofl+2)^0,f,c
  3679   000E1C  1E10               	comf	(??___xxtofl+3)^0,f,c
  3680   000E1E  2A0D               	incf	??___xxtofl^0,f,c
  3681   000E20  0E00               	movlw	0
  3682   000E22  220E               	addwfc	(??___xxtofl+1)^0,f,c
  3683   000E24  220F               	addwfc	(??___xxtofl+2)^0,f,c
  3684   000E26  2210               	addwfc	(??___xxtofl+3)^0,f,c
  3685   000E28  C00D  F013         	movff	??___xxtofl,___xxtofl@arg
  3686   000E2C  C00E  F014         	movff	??___xxtofl+1,___xxtofl@arg+1
  3687   000E30  C00F  F015         	movff	??___xxtofl+2,___xxtofl@arg+2
  3688   000E34  C010  F016         	movff	??___xxtofl+3,___xxtofl@arg+3
  3689   000E38  EF26  F007         	goto	l2456
  3690   000E3C                     l958:
  3691   000E3C  C009  F013         	movff	___xxtofl@val,___xxtofl@arg
  3692   000E40  C00A  F014         	movff	___xxtofl@val+1,___xxtofl@arg+1
  3693   000E44  C00B  F015         	movff	___xxtofl@val+2,___xxtofl@arg+2
  3694   000E48  C00C  F016         	movff	___xxtofl@val+3,___xxtofl@arg+3
  3695   000E4C                     l2456:
  3696   000E4C  5009               	movf	___xxtofl@val^0,w,c
  3697   000E4E  100A               	iorwf	(___xxtofl@val+1)^0,w,c
  3698   000E50  100B               	iorwf	(___xxtofl@val+2)^0,w,c
  3699   000E52  100C               	iorwf	(___xxtofl@val+3)^0,w,c
  3700   000E54  A4D8               	btfss	status,2,c
  3701   000E56  EF2F  F007         	goto	u2201
  3702   000E5A  EF31  F007         	goto	u2200
  3703   000E5E                     u2201:
  3704   000E5E  EF3B  F007         	goto	l2462
  3705   000E62                     u2200:
  3706   000E62  0E00               	movlw	0
  3707   000E64  6E09               	movwf	?___xxtofl^0,c
  3708   000E66  0E00               	movlw	0
  3709   000E68  6E0A               	movwf	(?___xxtofl+1)^0,c
  3710   000E6A  0E00               	movlw	0
  3711   000E6C  6E0B               	movwf	(?___xxtofl+2)^0,c
  3712   000E6E  0E00               	movlw	0
  3713   000E70  6E0C               	movwf	(?___xxtofl+3)^0,c
  3714   000E72  EFCC  F007         	goto	l961
  3715   000E76                     l2462:
  3716   000E76  0E96               	movlw	150
  3717   000E78  6E12               	movwf	___xxtofl@exp^0,c
  3718   000E7A  EF45  F007         	goto	l2466
  3719   000E7E                     l2464:
  3720   000E7E  2A12               	incf	___xxtofl@exp^0,f,c
  3721   000E80  90D8               	bcf	status,0,c
  3722   000E82  3216               	rrcf	(___xxtofl@arg+3)^0,f,c
  3723   000E84  3215               	rrcf	(___xxtofl@arg+2)^0,f,c
  3724   000E86  3214               	rrcf	(___xxtofl@arg+1)^0,f,c
  3725   000E88  3213               	rrcf	___xxtofl@arg^0,f,c
  3726   000E8A                     l2466:
  3727   000E8A  0E00               	movlw	0
  3728   000E8C  1413               	andwf	___xxtofl@arg^0,w,c
  3729   000E8E  6E0D               	movwf	??___xxtofl^0,c
  3730   000E90  0E00               	movlw	0
  3731   000E92  1414               	andwf	(___xxtofl@arg+1)^0,w,c
  3732   000E94  6E0E               	movwf	(??___xxtofl+1)^0,c
  3733   000E96  0E00               	movlw	0
  3734   000E98  1415               	andwf	(___xxtofl@arg+2)^0,w,c
  3735   000E9A  6E0F               	movwf	(??___xxtofl+2)^0,c
  3736   000E9C  0EFE               	movlw	254
  3737   000E9E  1416               	andwf	(___xxtofl@arg+3)^0,w,c
  3738   000EA0  6E10               	movwf	(??___xxtofl+3)^0,c
  3739   000EA2  500D               	movf	??___xxtofl^0,w,c
  3740   000EA4  100E               	iorwf	(??___xxtofl+1)^0,w,c
  3741   000EA6  100F               	iorwf	(??___xxtofl+2)^0,w,c
  3742   000EA8  1010               	iorwf	(??___xxtofl+3)^0,w,c
  3743   000EAA  A4D8               	btfss	status,2,c
  3744   000EAC  EF5A  F007         	goto	u2211
  3745   000EB0  EF5C  F007         	goto	u2210
  3746   000EB4                     u2211:
  3747   000EB4  EF3F  F007         	goto	l2464
  3748   000EB8                     u2210:
  3749   000EB8  EF6A  F007         	goto	l965
  3750   000EBC                     l2468:
  3751   000EBC  2A12               	incf	___xxtofl@exp^0,f,c
  3752   000EBE  0E01               	movlw	1
  3753   000EC0  2613               	addwf	___xxtofl@arg^0,f,c
  3754   000EC2  0E00               	movlw	0
  3755   000EC4  2214               	addwfc	(___xxtofl@arg+1)^0,f,c
  3756   000EC6  2215               	addwfc	(___xxtofl@arg+2)^0,f,c
  3757   000EC8  2216               	addwfc	(___xxtofl@arg+3)^0,f,c
  3758   000ECA  90D8               	bcf	status,0,c
  3759   000ECC  3216               	rrcf	(___xxtofl@arg+3)^0,f,c
  3760   000ECE  3215               	rrcf	(___xxtofl@arg+2)^0,f,c
  3761   000ED0  3214               	rrcf	(___xxtofl@arg+1)^0,f,c
  3762   000ED2  3213               	rrcf	___xxtofl@arg^0,f,c
  3763   000ED4                     l965:
  3764   000ED4  0E00               	movlw	0
  3765   000ED6  1413               	andwf	___xxtofl@arg^0,w,c
  3766   000ED8  6E0D               	movwf	??___xxtofl^0,c
  3767   000EDA  0E00               	movlw	0
  3768   000EDC  1414               	andwf	(___xxtofl@arg+1)^0,w,c
  3769   000EDE  6E0E               	movwf	(??___xxtofl+1)^0,c
  3770   000EE0  0E00               	movlw	0
  3771   000EE2  1415               	andwf	(___xxtofl@arg+2)^0,w,c
  3772   000EE4  6E0F               	movwf	(??___xxtofl+2)^0,c
  3773   000EE6  0EFF               	movlw	255
  3774   000EE8  1416               	andwf	(___xxtofl@arg+3)^0,w,c
  3775   000EEA  6E10               	movwf	(??___xxtofl+3)^0,c
  3776   000EEC  500D               	movf	??___xxtofl^0,w,c
  3777   000EEE  100E               	iorwf	(??___xxtofl+1)^0,w,c
  3778   000EF0  100F               	iorwf	(??___xxtofl+2)^0,w,c
  3779   000EF2  1010               	iorwf	(??___xxtofl+3)^0,w,c
  3780   000EF4  A4D8               	btfss	status,2,c
  3781   000EF6  EF7F  F007         	goto	u2221
  3782   000EFA  EF81  F007         	goto	u2220
  3783   000EFE                     u2221:
  3784   000EFE  EF5E  F007         	goto	l2468
  3785   000F02                     u2220:
  3786   000F02  EF89  F007         	goto	l2476
  3787   000F06                     l2474:
  3788   000F06  0612               	decf	___xxtofl@exp^0,f,c
  3789   000F08  90D8               	bcf	status,0,c
  3790   000F0A  3613               	rlcf	___xxtofl@arg^0,f,c
  3791   000F0C  3614               	rlcf	(___xxtofl@arg+1)^0,f,c
  3792   000F0E  3615               	rlcf	(___xxtofl@arg+2)^0,f,c
  3793   000F10  3616               	rlcf	(___xxtofl@arg+3)^0,f,c
  3794   000F12                     l2476:
  3795   000F12  BE15               	btfsc	(___xxtofl@arg+2)^0,7,c
  3796   000F14  EF8E  F007         	goto	u2231
  3797   000F18  EF90  F007         	goto	u2230
  3798   000F1C                     u2231:
  3799   000F1C  EF98  F007         	goto	l972
  3800   000F20                     u2230:
  3801   000F20  0E02               	movlw	2
  3802   000F22  6012               	cpfslt	___xxtofl@exp^0,c
  3803   000F24  EF96  F007         	goto	u2241
  3804   000F28  EF98  F007         	goto	u2240
  3805   000F2C                     u2241:
  3806   000F2C  EF83  F007         	goto	l2474
  3807   000F30                     u2240:
  3808   000F30                     l972:
  3809   000F30  B012               	btfsc	___xxtofl@exp^0,0,c
  3810   000F32  EF9D  F007         	goto	u2251
  3811   000F36  EF9F  F007         	goto	u2250
  3812   000F3A                     u2251:
  3813   000F3A  EFA0  F007         	goto	l2482
  3814   000F3E                     u2250:
  3815   000F3E  9E15               	bcf	(___xxtofl@arg+2)^0,7,c
  3816   000F40                     l2482:
  3817   000F40  90D8               	bcf	status,0,c
  3818   000F42  3212               	rrcf	___xxtofl@exp^0,f,c
  3819   000F44  C012  F00D         	movff	___xxtofl@exp,??___xxtofl
  3820   000F48  6A0E               	clrf	(??___xxtofl+1)^0,c
  3821   000F4A  6A0F               	clrf	(??___xxtofl+2)^0,c
  3822   000F4C  6A10               	clrf	(??___xxtofl+3)^0,c
  3823   000F4E  C00D  F010         	movff	??___xxtofl,??___xxtofl+3
  3824   000F52  6A0F               	clrf	(??___xxtofl+2)^0,c
  3825   000F54  6A0E               	clrf	(??___xxtofl+1)^0,c
  3826   000F56  6A0D               	clrf	??___xxtofl^0,c
  3827   000F58  500D               	movf	??___xxtofl^0,w,c
  3828   000F5A  1213               	iorwf	___xxtofl@arg^0,f,c
  3829   000F5C  500E               	movf	(??___xxtofl+1)^0,w,c
  3830   000F5E  1214               	iorwf	(___xxtofl@arg+1)^0,f,c
  3831   000F60  500F               	movf	(??___xxtofl+2)^0,w,c
  3832   000F62  1215               	iorwf	(___xxtofl@arg+2)^0,f,c
  3833   000F64  5010               	movf	(??___xxtofl+3)^0,w,c
  3834   000F66  1216               	iorwf	(___xxtofl@arg+3)^0,f,c
  3835   000F68  5011               	movf	___xxtofl@sign^0,w,c
  3836   000F6A  B4D8               	btfsc	status,2,c
  3837   000F6C  EFBA  F007         	goto	u2261
  3838   000F70  EFBC  F007         	goto	u2260
  3839   000F74                     u2261:
  3840   000F74  EFC4  F007         	goto	l2492
  3841   000F78                     u2260:
  3842   000F78  BE0C               	btfsc	(___xxtofl@val+3)^0,7,c
  3843   000F7A  EFC3  F007         	goto	u2270
  3844   000F7E  EFC1  F007         	goto	u2271
  3845   000F82                     u2271:
  3846   000F82  EFC4  F007         	goto	l2492
  3847   000F86                     u2270:
  3848   000F86  8E16               	bsf	(___xxtofl@arg+3)^0,7,c
  3849   000F88                     l2492:
  3850   000F88  C013  F009         	movff	___xxtofl@arg,?___xxtofl
  3851   000F8C  C014  F00A         	movff	___xxtofl@arg+1,?___xxtofl+1
  3852   000F90  C015  F00B         	movff	___xxtofl@arg+2,?___xxtofl+2
  3853   000F94  C016  F00C         	movff	___xxtofl@arg+3,?___xxtofl+3
  3854   000F98                     l961:
  3855   000F98  0012               	return		;funcret
  3856   000F9A                     __end_of___xxtofl:
  3857                           	callstack 0
  3858                           
  3859 ;; *************** function ___fltol *****************
  3860 ;; Defined at:
  3861 ;;		line 43 in file "C:\Program Files\Microchip\xc8\v2.41\pic\sources\c99\common\fltol.c"
  3862 ;; Parameters:    Size  Location     Type
  3863 ;;  f1              4   47[COMRAM] unsigned char 
  3864 ;; Auto vars:     Size  Location     Type
  3865 ;;  exp1            1   56[COMRAM] unsigned char 
  3866 ;;  sign1           1   55[COMRAM] unsigned char 
  3867 ;; Return value:  Size  Location     Type
  3868 ;;                  4   47[COMRAM] long 
  3869 ;; Registers used:
  3870 ;;		wreg, status,2, status,0
  3871 ;; Tracked objects:
  3872 ;;		On entry : 0/0
  3873 ;;		On exit  : 0/0
  3874 ;;		Unchanged: 0/0
  3875 ;; Data sizes:     COMRAM   BANK0   BANK1   BANK2   BANK3   BANK4   BANK5
  3876 ;;      Params:         4       0       0       0       0       0       0
  3877 ;;      Locals:         2       0       0       0       0       0       0
  3878 ;;      Temps:          4       0       0       0       0       0       0
  3879 ;;      Totals:        10       0       0       0       0       0       0
  3880 ;;Total ram usage:       10 bytes
  3881 ;; Hardware stack levels used: 1
  3882 ;; Hardware stack levels required when called: 1
  3883 ;; This function calls:
  3884 ;;		Nothing
  3885 ;; This function is called by:
  3886 ;;		_main
  3887 ;; This function uses a non-reentrant model
  3888 ;;
  3889                           
  3890                           	psect	text22
  3891   001248                     __ptext22:
  3892                           	callstack 0
  3893   001248                     ___fltol:
  3894                           	callstack 29
  3895   001248  3432               	rlcf	(___fltol@f1+2)^0,w,c
  3896   00124A  3433               	rlcf	(___fltol@f1+3)^0,w,c
  3897   00124C  6E39               	movwf	___fltol@exp1^0,c
  3898   00124E  5039               	movf	___fltol@exp1^0,w,c
  3899   001250  A4D8               	btfss	status,2,c
  3900   001252  EF2D  F009         	goto	u2111
  3901   001256  EF2F  F009         	goto	u2110
  3902   00125A                     u2111:
  3903   00125A  EF39  F009         	goto	l2412
  3904   00125E                     u2110:
  3905   00125E                     l2408:
  3906   00125E  0E00               	movlw	0
  3907   001260  6E30               	movwf	?___fltol^0,c
  3908   001262  0E00               	movlw	0
  3909   001264  6E31               	movwf	(?___fltol+1)^0,c
  3910   001266  0E00               	movlw	0
  3911   001268  6E32               	movwf	(?___fltol+2)^0,c
  3912   00126A  0E00               	movlw	0
  3913   00126C  6E33               	movwf	(?___fltol+3)^0,c
  3914   00126E  EFA6  F009         	goto	l600
  3915   001272                     l2412:
  3916   001272  C030  F034         	movff	___fltol@f1,??___fltol
  3917   001276  C031  F035         	movff	___fltol@f1+1,??___fltol+1
  3918   00127A  C032  F036         	movff	___fltol@f1+2,??___fltol+2
  3919   00127E  C033  F037         	movff	___fltol@f1+3,??___fltol+3
  3920   001282  0E20               	movlw	32
  3921   001284  EF49  F009         	goto	u2120
  3922   001288                     u2125:
  3923   001288  90D8               	bcf	status,0,c
  3924   00128A  3237               	rrcf	(??___fltol+3)^0,f,c
  3925   00128C  3236               	rrcf	(??___fltol+2)^0,f,c
  3926   00128E  3235               	rrcf	(??___fltol+1)^0,f,c
  3927   001290  3234               	rrcf	??___fltol^0,f,c
  3928   001292                     u2120:
  3929   001292  2EE8               	decfsz	wreg,f,c
  3930   001294  EF44  F009         	goto	u2125
  3931   001298  5034               	movf	??___fltol^0,w,c
  3932   00129A  6E38               	movwf	___fltol@sign1^0,c
  3933   00129C  8E32               	bsf	(___fltol@f1+2)^0,7,c
  3934   00129E  0EFF               	movlw	255
  3935   0012A0  1630               	andwf	___fltol@f1^0,f,c
  3936   0012A2  0EFF               	movlw	255
  3937   0012A4  1631               	andwf	(___fltol@f1+1)^0,f,c
  3938   0012A6  0EFF               	movlw	255
  3939   0012A8  1632               	andwf	(___fltol@f1+2)^0,f,c
  3940   0012AA  0E00               	movlw	0
  3941   0012AC  1633               	andwf	(___fltol@f1+3)^0,f,c
  3942   0012AE  0E96               	movlw	150
  3943   0012B0  5E39               	subwf	___fltol@exp1^0,f,c
  3944   0012B2  BE39               	btfsc	___fltol@exp1^0,7,c
  3945   0012B4  EF60  F009         	goto	u2130
  3946   0012B8  EF5E  F009         	goto	u2131
  3947   0012BC                     u2131:
  3948   0012BC  EF76  F009         	goto	l2432
  3949   0012C0                     u2130:
  3950   0012C0  5039               	movf	___fltol@exp1^0,w,c
  3951   0012C2  0A80               	xorlw	128
  3952   0012C4  0F97               	addlw	151
  3953   0012C6  B0D8               	btfsc	status,0,c
  3954   0012C8  EF68  F009         	goto	u2141
  3955   0012CC  EF6A  F009         	goto	u2140
  3956   0012D0                     u2141:
  3957   0012D0  EF6C  F009         	goto	l2428
  3958   0012D4                     u2140:
  3959   0012D4  EF2F  F009         	goto	l2408
  3960   0012D8                     l2428:
  3961   0012D8  90D8               	bcf	status,0,c
  3962   0012DA  3233               	rrcf	(___fltol@f1+3)^0,f,c
  3963   0012DC  3232               	rrcf	(___fltol@f1+2)^0,f,c
  3964   0012DE  3231               	rrcf	(___fltol@f1+1)^0,f,c
  3965   0012E0  3230               	rrcf	___fltol@f1^0,f,c
  3966   0012E2  3E39               	incfsz	___fltol@exp1^0,f,c
  3967   0012E4  EF6C  F009         	goto	l2428
  3968   0012E8  EF8E  F009         	goto	l2442
  3969   0012EC                     l2432:
  3970   0012EC  0E1F               	movlw	31
  3971   0012EE  6439               	cpfsgt	___fltol@exp1^0,c
  3972   0012F0  EF7C  F009         	goto	u2151
  3973   0012F4  EF7E  F009         	goto	u2150
  3974   0012F8                     u2151:
  3975   0012F8  EF86  F009         	goto	l2440
  3976   0012FC                     u2150:
  3977   0012FC  EF2F  F009         	goto	l2408
  3978   001300                     l2438:
  3979   001300  90D8               	bcf	status,0,c
  3980   001302  3630               	rlcf	___fltol@f1^0,f,c
  3981   001304  3631               	rlcf	(___fltol@f1+1)^0,f,c
  3982   001306  3632               	rlcf	(___fltol@f1+2)^0,f,c
  3983   001308  3633               	rlcf	(___fltol@f1+3)^0,f,c
  3984   00130A  0639               	decf	___fltol@exp1^0,f,c
  3985   00130C                     l2440:
  3986   00130C  5039               	movf	___fltol@exp1^0,w,c
  3987   00130E  A4D8               	btfss	status,2,c
  3988   001310  EF8C  F009         	goto	u2161
  3989   001314  EF8E  F009         	goto	u2160
  3990   001318                     u2161:
  3991   001318  EF80  F009         	goto	l2438
  3992   00131C                     u2160:
  3993   00131C                     l2442:
  3994   00131C  5038               	movf	___fltol@sign1^0,w,c
  3995   00131E  B4D8               	btfsc	status,2,c
  3996   001320  EF94  F009         	goto	u2171
  3997   001324  EF96  F009         	goto	u2170
  3998   001328                     u2171:
  3999   001328  EF9E  F009         	goto	l2446
  4000   00132C                     u2170:
  4001   00132C  1E33               	comf	(___fltol@f1+3)^0,f,c
  4002   00132E  1E32               	comf	(___fltol@f1+2)^0,f,c
  4003   001330  1E31               	comf	(___fltol@f1+1)^0,f,c
  4004   001332  6C30               	negf	___fltol@f1^0,c
  4005   001334  0E00               	movlw	0
  4006   001336  2231               	addwfc	(___fltol@f1+1)^0,f,c
  4007   001338  2232               	addwfc	(___fltol@f1+2)^0,f,c
  4008   00133A  2233               	addwfc	(___fltol@f1+3)^0,f,c
  4009   00133C                     l2446:
  4010   00133C  C030  F030         	movff	___fltol@f1,?___fltol
  4011   001340  C031  F031         	movff	___fltol@f1+1,?___fltol+1
  4012   001344  C032  F032         	movff	___fltol@f1+2,?___fltol+2
  4013   001348  C033  F033         	movff	___fltol@f1+3,?___fltol+3
  4014   00134C                     l600:
  4015   00134C  0012               	return		;funcret
  4016   00134E                     __end_of___fltol:
  4017                           	callstack 0
  4018                           
  4019 ;; *************** function ___fldiv *****************
  4020 ;; Defined at:
  4021 ;;		line 11 in file "C:\Program Files\Microchip\xc8\v2.41\pic\sources\c99\common\sprcdiv.c"
  4022 ;; Parameters:    Size  Location     Type
  4023 ;;  b               4   22[COMRAM] long 
  4024 ;;  a               4   26[COMRAM] long 
  4025 ;; Auto vars:     Size  Location     Type
  4026 ;;  grs             4   41[COMRAM] unsigned long 
  4027 ;;  rem             4   34[COMRAM] unsigned long 
  4028 ;;  new_exp         2   39[COMRAM] short 
  4029 ;;  aexp            1   46[COMRAM] unsigned char 
  4030 ;;  bexp            1   45[COMRAM] unsigned char 
  4031 ;;  sign            1   38[COMRAM] unsigned char 
  4032 ;; Return value:  Size  Location     Type
  4033 ;;                  4   22[COMRAM] unsigned char 
  4034 ;; Registers used:
  4035 ;;		wreg, status,2, status,0
  4036 ;; Tracked objects:
  4037 ;;		On entry : 0/0
  4038 ;;		On exit  : 0/0
  4039 ;;		Unchanged: 0/0
  4040 ;; Data sizes:     COMRAM   BANK0   BANK1   BANK2   BANK3   BANK4   BANK5
  4041 ;;      Params:         8       0       0       0       0       0       0
  4042 ;;      Locals:        13       0       0       0       0       0       0
  4043 ;;      Temps:          4       0       0       0       0       0       0
  4044 ;;      Totals:        25       0       0       0       0       0       0
  4045 ;;Total ram usage:       25 bytes
  4046 ;; Hardware stack levels used: 1
  4047 ;; Hardware stack levels required when called: 1
  4048 ;; This function calls:
  4049 ;;		Nothing
  4050 ;; This function is called by:
  4051 ;;		_main
  4052 ;; This function uses a non-reentrant model
  4053 ;;
  4054                           
  4055                           	psect	text23
  4056   0006E2                     __ptext23:
  4057                           	callstack 0
  4058   0006E2                     ___fldiv:
  4059                           	callstack 29
  4060   0006E2  501A               	movf	(___fldiv@b+3)^0,w,c
  4061   0006E4  0B80               	andlw	128
  4062   0006E6  6E27               	movwf	___fldiv@sign^0,c
  4063   0006E8  501A               	movf	(___fldiv@b+3)^0,w,c
  4064   0006EA  241A               	addwf	(___fldiv@b+3)^0,w,c
  4065   0006EC  6E2E               	movwf	___fldiv@bexp^0,c
  4066   0006EE  AE19               	btfss	(___fldiv@b+2)^0,7,c
  4067   0006F0  EF7C  F003         	goto	u1881
  4068   0006F4  EF7E  F003         	goto	u1880
  4069   0006F8                     u1881:
  4070   0006F8  EF7F  F003         	goto	l2274
  4071   0006FC                     u1880:
  4072   0006FC  802E               	bsf	___fldiv@bexp^0,0,c
  4073   0006FE                     l2274:
  4074   0006FE  502E               	movf	___fldiv@bexp^0,w,c
  4075   000700  B4D8               	btfsc	status,2,c
  4076   000702  EF85  F003         	goto	u1891
  4077   000706  EF87  F003         	goto	u1890
  4078   00070A                     u1891:
  4079   00070A  EF9C  F003         	goto	l2284
  4080   00070E                     u1890:
  4081   00070E  282E               	incf	___fldiv@bexp^0,w,c
  4082   000710  A4D8               	btfss	status,2,c
  4083   000712  EF8D  F003         	goto	u1901
  4084   000716  EF8F  F003         	goto	u1900
  4085   00071A                     u1901:
  4086   00071A  EF97  F003         	goto	l2280
  4087   00071E                     u1900:
  4088   00071E  0E00               	movlw	0
  4089   000720  6E17               	movwf	___fldiv@b^0,c
  4090   000722  0E00               	movlw	0
  4091   000724  6E18               	movwf	(___fldiv@b+1)^0,c
  4092   000726  0E00               	movlw	0
  4093   000728  6E19               	movwf	(___fldiv@b+2)^0,c
  4094   00072A  0E00               	movlw	0
  4095   00072C  6E1A               	movwf	(___fldiv@b+3)^0,c
  4096   00072E                     l2280:
  4097   00072E  8E19               	bsf	(___fldiv@b+2)^0,7,c
  4098   000730  0E00               	movlw	0
  4099   000732  6E1A               	movwf	(___fldiv@b+3)^0,c
  4100   000734  EFA4  F003         	goto	l2286
  4101   000738                     l2284:
  4102   000738  0E00               	movlw	0
  4103   00073A  6E17               	movwf	___fldiv@b^0,c
  4104   00073C  0E00               	movlw	0
  4105   00073E  6E18               	movwf	(___fldiv@b+1)^0,c
  4106   000740  0E00               	movlw	0
  4107   000742  6E19               	movwf	(___fldiv@b+2)^0,c
  4108   000744  0E00               	movlw	0
  4109   000746  6E1A               	movwf	(___fldiv@b+3)^0,c
  4110   000748                     l2286:
  4111   000748  501E               	movf	(___fldiv@a+3)^0,w,c
  4112   00074A  0B80               	andlw	128
  4113   00074C  1A27               	xorwf	___fldiv@sign^0,f,c
  4114   00074E  501E               	movf	(___fldiv@a+3)^0,w,c
  4115   000750  241E               	addwf	(___fldiv@a+3)^0,w,c
  4116   000752  6E2F               	movwf	___fldiv@aexp^0,c
  4117   000754  AE1D               	btfss	(___fldiv@a+2)^0,7,c
  4118   000756  EFAF  F003         	goto	u1911
  4119   00075A  EFB1  F003         	goto	u1910
  4120   00075E                     u1911:
  4121   00075E  EFB2  F003         	goto	l2294
  4122   000762                     u1910:
  4123   000762  802F               	bsf	___fldiv@aexp^0,0,c
  4124   000764                     l2294:
  4125   000764  502F               	movf	___fldiv@aexp^0,w,c
  4126   000766  B4D8               	btfsc	status,2,c
  4127   000768  EFB8  F003         	goto	u1921
  4128   00076C  EFBA  F003         	goto	u1920
  4129   000770                     u1921:
  4130   000770  EFCF  F003         	goto	l2304
  4131   000774                     u1920:
  4132   000774  282F               	incf	___fldiv@aexp^0,w,c
  4133   000776  A4D8               	btfss	status,2,c
  4134   000778  EFC0  F003         	goto	u1931
  4135   00077C  EFC2  F003         	goto	u1930
  4136   000780                     u1931:
  4137   000780  EFCA  F003         	goto	l2300
  4138   000784                     u1930:
  4139   000784  0E00               	movlw	0
  4140   000786  6E1B               	movwf	___fldiv@a^0,c
  4141   000788  0E00               	movlw	0
  4142   00078A  6E1C               	movwf	(___fldiv@a+1)^0,c
  4143   00078C  0E00               	movlw	0
  4144   00078E  6E1D               	movwf	(___fldiv@a+2)^0,c
  4145   000790  0E00               	movlw	0
  4146   000792  6E1E               	movwf	(___fldiv@a+3)^0,c
  4147   000794                     l2300:
  4148   000794  8E1D               	bsf	(___fldiv@a+2)^0,7,c
  4149   000796  0E00               	movlw	0
  4150   000798  6E1E               	movwf	(___fldiv@a+3)^0,c
  4151   00079A  EFD7  F003         	goto	l2306
  4152   00079E                     l2304:
  4153   00079E  0E00               	movlw	0
  4154   0007A0  6E1B               	movwf	___fldiv@a^0,c
  4155   0007A2  0E00               	movlw	0
  4156   0007A4  6E1C               	movwf	(___fldiv@a+1)^0,c
  4157   0007A6  0E00               	movlw	0
  4158   0007A8  6E1D               	movwf	(___fldiv@a+2)^0,c
  4159   0007AA  0E00               	movlw	0
  4160   0007AC  6E1E               	movwf	(___fldiv@a+3)^0,c
  4161   0007AE                     l2306:
  4162   0007AE  501B               	movf	___fldiv@a^0,w,c
  4163   0007B0  101C               	iorwf	(___fldiv@a+1)^0,w,c
  4164   0007B2  101D               	iorwf	(___fldiv@a+2)^0,w,c
  4165   0007B4  101E               	iorwf	(___fldiv@a+3)^0,w,c
  4166   0007B6  A4D8               	btfss	status,2,c
  4167   0007B8  EFE0  F003         	goto	u1941
  4168   0007BC  EFE2  F003         	goto	u1940
  4169   0007C0                     u1941:
  4170   0007C0  EFFA  F003         	goto	l2318
  4171   0007C4                     u1940:
  4172   0007C4  0E00               	movlw	0
  4173   0007C6  6E17               	movwf	___fldiv@b^0,c
  4174   0007C8  0E00               	movlw	0
  4175   0007CA  6E18               	movwf	(___fldiv@b+1)^0,c
  4176   0007CC  0E00               	movlw	0
  4177   0007CE  6E19               	movwf	(___fldiv@b+2)^0,c
  4178   0007D0  0E00               	movlw	0
  4179   0007D2  6E1A               	movwf	(___fldiv@b+3)^0,c
  4180   0007D4  0E80               	movlw	128
  4181   0007D6  1219               	iorwf	(___fldiv@b+2)^0,f,c
  4182   0007D8  0E7F               	movlw	127
  4183   0007DA  121A               	iorwf	(___fldiv@b+3)^0,f,c
  4184   0007DC                     l2312:
  4185   0007DC  5027               	movf	___fldiv@sign^0,w,c
  4186   0007DE  121A               	iorwf	(___fldiv@b+3)^0,f,c
  4187   0007E0  C017  F017         	movff	___fldiv@b,?___fldiv
  4188   0007E4  C018  F018         	movff	___fldiv@b+1,?___fldiv+1
  4189   0007E8  C019  F019         	movff	___fldiv@b+2,?___fldiv+2
  4190   0007EC  C01A  F01A         	movff	___fldiv@b+3,?___fldiv+3
  4191   0007F0  EF3D  F005         	goto	l885
  4192   0007F4                     l2318:
  4193   0007F4  502E               	movf	___fldiv@bexp^0,w,c
  4194   0007F6  A4D8               	btfss	status,2,c
  4195   0007F8  EF00  F004         	goto	u1951
  4196   0007FC  EF02  F004         	goto	u1950
  4197   000800                     u1951:
  4198   000800  EF0C  F004         	goto	l2326
  4199   000804                     u1950:
  4200   000804  0E00               	movlw	0
  4201   000806  6E17               	movwf	?___fldiv^0,c
  4202   000808  0E00               	movlw	0
  4203   00080A  6E18               	movwf	(?___fldiv+1)^0,c
  4204   00080C  0E00               	movlw	0
  4205   00080E  6E19               	movwf	(?___fldiv+2)^0,c
  4206   000810  0E00               	movlw	0
  4207   000812  6E1A               	movwf	(?___fldiv+3)^0,c
  4208   000814  EF3D  F005         	goto	l885
  4209   000818                     l2326:
  4210   000818  502F               	movf	___fldiv@aexp^0,w,c
  4211   00081A  C02E  F01F         	movff	___fldiv@bexp,??___fldiv
  4212   00081E  6A20               	clrf	(??___fldiv+1)^0,c
  4213   000820  5E1F               	subwf	??___fldiv^0,f,c
  4214   000822  0E00               	movlw	0
  4215   000824  5A20               	subwfb	(??___fldiv+1)^0,f,c
  4216   000826  0E7F               	movlw	127
  4217   000828  241F               	addwf	??___fldiv^0,w,c
  4218   00082A  6E28               	movwf	___fldiv@new_exp^0,c
  4219   00082C  0E00               	movlw	0
  4220   00082E  2020               	addwfc	(??___fldiv+1)^0,w,c
  4221   000830  6E29               	movwf	(___fldiv@new_exp+1)^0,c
  4222   000832  C017  F023         	movff	___fldiv@b,___fldiv@rem
  4223   000836  C018  F024         	movff	___fldiv@b+1,___fldiv@rem+1
  4224   00083A  C019  F025         	movff	___fldiv@b+2,___fldiv@rem+2
  4225   00083E  C01A  F026         	movff	___fldiv@b+3,___fldiv@rem+3
  4226   000842  0E00               	movlw	0
  4227   000844  6E17               	movwf	___fldiv@b^0,c
  4228   000846  0E00               	movlw	0
  4229   000848  6E18               	movwf	(___fldiv@b+1)^0,c
  4230   00084A  0E00               	movlw	0
  4231   00084C  6E19               	movwf	(___fldiv@b+2)^0,c
  4232   00084E  0E00               	movlw	0
  4233   000850  6E1A               	movwf	(___fldiv@b+3)^0,c
  4234   000852  0E00               	movlw	0
  4235   000854  6E2A               	movwf	___fldiv@grs^0,c
  4236   000856  0E00               	movlw	0
  4237   000858  6E2B               	movwf	(___fldiv@grs+1)^0,c
  4238   00085A  0E00               	movlw	0
  4239   00085C  6E2C               	movwf	(___fldiv@grs+2)^0,c
  4240   00085E  0E00               	movlw	0
  4241   000860  6E2D               	movwf	(___fldiv@grs+3)^0,c
  4242   000862  0E00               	movlw	0
  4243   000864  6E2F               	movwf	___fldiv@aexp^0,c
  4244   000866  EF6D  F004         	goto	l887
  4245   00086A                     l2336:
  4246   00086A  502F               	movf	___fldiv@aexp^0,w,c
  4247   00086C  B4D8               	btfsc	status,2,c
  4248   00086E  EF3B  F004         	goto	u1961
  4249   000872  EF3D  F004         	goto	u1960
  4250   000876                     u1961:
  4251   000876  EF54  F004         	goto	l2344
  4252   00087A                     u1960:
  4253   00087A  90D8               	bcf	status,0,c
  4254   00087C  3623               	rlcf	___fldiv@rem^0,f,c
  4255   00087E  3624               	rlcf	(___fldiv@rem+1)^0,f,c
  4256   000880  3625               	rlcf	(___fldiv@rem+2)^0,f,c
  4257   000882  3626               	rlcf	(___fldiv@rem+3)^0,f,c
  4258   000884  90D8               	bcf	status,0,c
  4259   000886  3617               	rlcf	___fldiv@b^0,f,c
  4260   000888  3618               	rlcf	(___fldiv@b+1)^0,f,c
  4261   00088A  3619               	rlcf	(___fldiv@b+2)^0,f,c
  4262   00088C  361A               	rlcf	(___fldiv@b+3)^0,f,c
  4263   00088E  AE2D               	btfss	(___fldiv@grs+3)^0,7,c
  4264   000890  EF4C  F004         	goto	u1971
  4265   000894  EF4E  F004         	goto	u1970
  4266   000898                     u1971:
  4267   000898  EF4F  F004         	goto	l890
  4268   00089C                     u1970:
  4269   00089C  8017               	bsf	___fldiv@b^0,0,c
  4270   00089E                     l890:
  4271   00089E  90D8               	bcf	status,0,c
  4272   0008A0  362A               	rlcf	___fldiv@grs^0,f,c
  4273   0008A2  362B               	rlcf	(___fldiv@grs+1)^0,f,c
  4274   0008A4  362C               	rlcf	(___fldiv@grs+2)^0,f,c
  4275   0008A6  362D               	rlcf	(___fldiv@grs+3)^0,f,c
  4276   0008A8                     l2344:
  4277   0008A8  501B               	movf	___fldiv@a^0,w,c
  4278   0008AA  5C23               	subwf	___fldiv@rem^0,w,c
  4279   0008AC  501C               	movf	(___fldiv@a+1)^0,w,c
  4280   0008AE  5824               	subwfb	(___fldiv@rem+1)^0,w,c
  4281   0008B0  501D               	movf	(___fldiv@a+2)^0,w,c
  4282   0008B2  5825               	subwfb	(___fldiv@rem+2)^0,w,c
  4283   0008B4  501E               	movf	(___fldiv@a+3)^0,w,c
  4284   0008B6  5826               	subwfb	(___fldiv@rem+3)^0,w,c
  4285   0008B8  A0D8               	btfss	status,0,c
  4286   0008BA  EF61  F004         	goto	u1981
  4287   0008BE  EF63  F004         	goto	u1980
  4288   0008C2                     u1981:
  4289   0008C2  EF6C  F004         	goto	l2350
  4290   0008C6                     u1980:
  4291   0008C6  8C2D               	bsf	(___fldiv@grs+3)^0,6,c
  4292   0008C8  501B               	movf	___fldiv@a^0,w,c
  4293   0008CA  5E23               	subwf	___fldiv@rem^0,f,c
  4294   0008CC  501C               	movf	(___fldiv@a+1)^0,w,c
  4295   0008CE  5A24               	subwfb	(___fldiv@rem+1)^0,f,c
  4296   0008D0  501D               	movf	(___fldiv@a+2)^0,w,c
  4297   0008D2  5A25               	subwfb	(___fldiv@rem+2)^0,f,c
  4298   0008D4  501E               	movf	(___fldiv@a+3)^0,w,c
  4299   0008D6  5A26               	subwfb	(___fldiv@rem+3)^0,f,c
  4300   0008D8                     l2350:
  4301   0008D8  2A2F               	incf	___fldiv@aexp^0,f,c
  4302   0008DA                     l887:
  4303   0008DA  0E19               	movlw	25
  4304   0008DC  642F               	cpfsgt	___fldiv@aexp^0,c
  4305   0008DE  EF73  F004         	goto	u1991
  4306   0008E2  EF75  F004         	goto	u1990
  4307   0008E6                     u1991:
  4308   0008E6  EF35  F004         	goto	l2336
  4309   0008EA                     u1990:
  4310   0008EA  5023               	movf	___fldiv@rem^0,w,c
  4311   0008EC  1024               	iorwf	(___fldiv@rem+1)^0,w,c
  4312   0008EE  1025               	iorwf	(___fldiv@rem+2)^0,w,c
  4313   0008F0  1026               	iorwf	(___fldiv@rem+3)^0,w,c
  4314   0008F2  B4D8               	btfsc	status,2,c
  4315   0008F4  EF7E  F004         	goto	u2001
  4316   0008F8  EF80  F004         	goto	u2000
  4317   0008FC                     u2001:
  4318   0008FC  EF98  F004         	goto	l2362
  4319   000900                     u2000:
  4320   000900  802A               	bsf	___fldiv@grs^0,0,c
  4321   000902  EF98  F004         	goto	l2362
  4322   000906                     l2356:
  4323   000906  90D8               	bcf	status,0,c
  4324   000908  3617               	rlcf	___fldiv@b^0,f,c
  4325   00090A  3618               	rlcf	(___fldiv@b+1)^0,f,c
  4326   00090C  3619               	rlcf	(___fldiv@b+2)^0,f,c
  4327   00090E  361A               	rlcf	(___fldiv@b+3)^0,f,c
  4328   000910  AE2D               	btfss	(___fldiv@grs+3)^0,7,c
  4329   000912  EF8D  F004         	goto	u2011
  4330   000916  EF8F  F004         	goto	u2010
  4331   00091A                     u2011:
  4332   00091A  EF90  F004         	goto	l896
  4333   00091E                     u2010:
  4334   00091E  8017               	bsf	___fldiv@b^0,0,c
  4335   000920                     l896:
  4336   000920  90D8               	bcf	status,0,c
  4337   000922  362A               	rlcf	___fldiv@grs^0,f,c
  4338   000924  362B               	rlcf	(___fldiv@grs+1)^0,f,c
  4339   000926  362C               	rlcf	(___fldiv@grs+2)^0,f,c
  4340   000928  362D               	rlcf	(___fldiv@grs+3)^0,f,c
  4341   00092A  0628               	decf	___fldiv@new_exp^0,f,c
  4342   00092C  A0D8               	btfss	status,0,c
  4343   00092E  0629               	decf	(___fldiv@new_exp+1)^0,f,c
  4344   000930                     l2362:
  4345   000930  AE19               	btfss	(___fldiv@b+2)^0,7,c
  4346   000932  EF9D  F004         	goto	u2021
  4347   000936  EF9F  F004         	goto	u2020
  4348   00093A                     u2021:
  4349   00093A  EF83  F004         	goto	l2356
  4350   00093E                     u2020:
  4351   00093E  0E00               	movlw	0
  4352   000940  6E2F               	movwf	___fldiv@aexp^0,c
  4353   000942  AE2D               	btfss	(___fldiv@grs+3)^0,7,c
  4354   000944  EFA6  F004         	goto	u2031
  4355   000948  EFA8  F004         	goto	u2030
  4356   00094C                     u2031:
  4357   00094C  EFCC  F004         	goto	l898
  4358   000950                     u2030:
  4359   000950  0EFF               	movlw	255
  4360   000952  142A               	andwf	___fldiv@grs^0,w,c
  4361   000954  6E1F               	movwf	??___fldiv^0,c
  4362   000956  0EFF               	movlw	255
  4363   000958  142B               	andwf	(___fldiv@grs+1)^0,w,c
  4364   00095A  6E20               	movwf	(??___fldiv+1)^0,c
  4365   00095C  0EFF               	movlw	255
  4366   00095E  142C               	andwf	(___fldiv@grs+2)^0,w,c
  4367   000960  6E21               	movwf	(??___fldiv+2)^0,c
  4368   000962  0E7F               	movlw	127
  4369   000964  142D               	andwf	(___fldiv@grs+3)^0,w,c
  4370   000966  6E22               	movwf	(??___fldiv+3)^0,c
  4371   000968  501F               	movf	??___fldiv^0,w,c
  4372   00096A  1020               	iorwf	(??___fldiv+1)^0,w,c
  4373   00096C  1021               	iorwf	(??___fldiv+2)^0,w,c
  4374   00096E  1022               	iorwf	(??___fldiv+3)^0,w,c
  4375   000970  B4D8               	btfsc	status,2,c
  4376   000972  EFBD  F004         	goto	u2041
  4377   000976  EFBF  F004         	goto	u2040
  4378   00097A                     u2041:
  4379   00097A  EFC3  F004         	goto	l899
  4380   00097E                     u2040:
  4381   00097E                     l2370:
  4382   00097E  0E01               	movlw	1
  4383   000980  6E2F               	movwf	___fldiv@aexp^0,c
  4384   000982  EFCC  F004         	goto	l898
  4385   000986                     l899:
  4386   000986  A017               	btfss	___fldiv@b^0,0,c
  4387   000988  EFC8  F004         	goto	u2051
  4388   00098C  EFCA  F004         	goto	u2050
  4389   000990                     u2051:
  4390   000990  EFCC  F004         	goto	l898
  4391   000994                     u2050:
  4392   000994  EFBF  F004         	goto	l2370
  4393   000998                     l898:
  4394   000998  502F               	movf	___fldiv@aexp^0,w,c
  4395   00099A  B4D8               	btfsc	status,2,c
  4396   00099C  EFD2  F004         	goto	u2061
  4397   0009A0  EFD4  F004         	goto	u2060
  4398   0009A4                     u2061:
  4399   0009A4  EFF8  F004         	goto	l2382
  4400   0009A8                     u2060:
  4401   0009A8  0E01               	movlw	1
  4402   0009AA  2617               	addwf	___fldiv@b^0,f,c
  4403   0009AC  0E00               	movlw	0
  4404   0009AE  2218               	addwfc	(___fldiv@b+1)^0,f,c
  4405   0009B0  2219               	addwfc	(___fldiv@b+2)^0,f,c
  4406   0009B2  221A               	addwfc	(___fldiv@b+3)^0,f,c
  4407   0009B4  A01A               	btfss	(___fldiv@b+3)^0,0,c
  4408   0009B6  EFDF  F004         	goto	u2071
  4409   0009BA  EFE1  F004         	goto	u2070
  4410   0009BE                     u2071:
  4411   0009BE  EFF8  F004         	goto	l2382
  4412   0009C2                     u2070:
  4413   0009C2  C017  F01F         	movff	___fldiv@b,??___fldiv
  4414   0009C6  C018  F020         	movff	___fldiv@b+1,??___fldiv+1
  4415   0009CA  C019  F021         	movff	___fldiv@b+2,??___fldiv+2
  4416   0009CE  C01A  F022         	movff	___fldiv@b+3,??___fldiv+3
  4417   0009D2  3422               	rlcf	(??___fldiv+3)^0,w,c
  4418   0009D4  3222               	rrcf	(??___fldiv+3)^0,f,c
  4419   0009D6  3221               	rrcf	(??___fldiv+2)^0,f,c
  4420   0009D8  3220               	rrcf	(??___fldiv+1)^0,f,c
  4421   0009DA  321F               	rrcf	??___fldiv^0,f,c
  4422   0009DC  C01F  F017         	movff	??___fldiv,___fldiv@b
  4423   0009E0  C020  F018         	movff	??___fldiv+1,___fldiv@b+1
  4424   0009E4  C021  F019         	movff	??___fldiv+2,___fldiv@b+2
  4425   0009E8  C022  F01A         	movff	??___fldiv+3,___fldiv@b+3
  4426   0009EC  4A28               	infsnz	___fldiv@new_exp^0,f,c
  4427   0009EE  2A29               	incf	(___fldiv@new_exp+1)^0,f,c
  4428   0009F0                     l2382:
  4429   0009F0  BE29               	btfsc	(___fldiv@new_exp+1)^0,7,c
  4430   0009F2  EF03  F005         	goto	u2081
  4431   0009F6  5029               	movf	(___fldiv@new_exp+1)^0,w,c
  4432   0009F8  E108               	bnz	u2080
  4433   0009FA  2828               	incf	___fldiv@new_exp^0,w,c
  4434   0009FC  A0D8               	btfss	status,0,c
  4435   0009FE  EF03  F005         	goto	u2081
  4436   000A02  EF05  F005         	goto	u2080
  4437   000A06                     u2081:
  4438   000A06  EF10  F005         	goto	l2386
  4439   000A0A                     u2080:
  4440   000A0A  0E00               	movlw	0
  4441   000A0C  6E29               	movwf	(___fldiv@new_exp+1)^0,c
  4442   000A0E  6828               	setf	___fldiv@new_exp^0,c
  4443   000A10  0E00               	movlw	0
  4444   000A12  6E17               	movwf	___fldiv@b^0,c
  4445   000A14  0E00               	movlw	0
  4446   000A16  6E18               	movwf	(___fldiv@b+1)^0,c
  4447   000A18  0E00               	movlw	0
  4448   000A1A  6E19               	movwf	(___fldiv@b+2)^0,c
  4449   000A1C  0E00               	movlw	0
  4450   000A1E  6E1A               	movwf	(___fldiv@b+3)^0,c
  4451   000A20                     l2386:
  4452   000A20  BE29               	btfsc	(___fldiv@new_exp+1)^0,7,c
  4453   000A22  EF1D  F005         	goto	u2090
  4454   000A26  5029               	movf	(___fldiv@new_exp+1)^0,w,c
  4455   000A28  E106               	bnz	u2091
  4456   000A2A  0428               	decf	___fldiv@new_exp^0,w,c
  4457   000A2C  B0D8               	btfsc	status,0,c
  4458   000A2E  EF1B  F005         	goto	u2091
  4459   000A32  EF1D  F005         	goto	u2090
  4460   000A36                     u2091:
  4461   000A36  EF2B  F005         	goto	l2390
  4462   000A3A                     u2090:
  4463   000A3A  0E00               	movlw	0
  4464   000A3C  6E29               	movwf	(___fldiv@new_exp+1)^0,c
  4465   000A3E  0E00               	movlw	0
  4466   000A40  6E28               	movwf	___fldiv@new_exp^0,c
  4467   000A42  0E00               	movlw	0
  4468   000A44  6E17               	movwf	___fldiv@b^0,c
  4469   000A46  0E00               	movlw	0
  4470   000A48  6E18               	movwf	(___fldiv@b+1)^0,c
  4471   000A4A  0E00               	movlw	0
  4472   000A4C  6E19               	movwf	(___fldiv@b+2)^0,c
  4473   000A4E  0E00               	movlw	0
  4474   000A50  6E1A               	movwf	(___fldiv@b+3)^0,c
  4475   000A52  0E00               	movlw	0
  4476   000A54  6E27               	movwf	___fldiv@sign^0,c
  4477   000A56                     l2390:
  4478   000A56  C028  F02E         	movff	___fldiv@new_exp,___fldiv@bexp
  4479   000A5A  A02E               	btfss	___fldiv@bexp^0,0,c
  4480   000A5C  EF32  F005         	goto	u2101
  4481   000A60  EF34  F005         	goto	u2100
  4482   000A64                     u2101:
  4483   000A64  EF37  F005         	goto	l2396
  4484   000A68                     u2100:
  4485   000A68  8E19               	bsf	(___fldiv@b+2)^0,7,c
  4486   000A6A  EF38  F005         	goto	l2398
  4487   000A6E                     l2396:
  4488   000A6E  9E19               	bcf	(___fldiv@b+2)^0,7,c
  4489   000A70                     l2398:
  4490   000A70  90D8               	bcf	status,0,c
  4491   000A72  302E               	rrcf	___fldiv@bexp^0,w,c
  4492   000A74  6E1A               	movwf	(___fldiv@b+3)^0,c
  4493   000A76  EFEE  F003         	goto	l2312
  4494   000A7A                     l885:
  4495   000A7A  0012               	return		;funcret
  4496   000A7C                     __end_of___fldiv:
  4497                           	callstack 0
  4498                           
  4499 ;; *************** function _isr *****************
  4500 ;; Defined at:
  4501 ;;		line 14 in file "isr.c"
  4502 ;; Parameters:    Size  Location     Type
  4503 ;;		None
  4504 ;; Auto vars:     Size  Location     Type
  4505 ;;		None
  4506 ;; Return value:  Size  Location     Type
  4507 ;;                  1    wreg      void 
  4508 ;; Registers used:
  4509 ;;		wreg, status,2, status,0
  4510 ;; Tracked objects:
  4511 ;;		On entry : 0/0
  4512 ;;		On exit  : 0/0
  4513 ;;		Unchanged: 0/0
  4514 ;; Data sizes:     COMRAM   BANK0   BANK1   BANK2   BANK3   BANK4   BANK5
  4515 ;;      Params:         0       0       0       0       0       0       0
  4516 ;;      Locals:         0       0       0       0       0       0       0
  4517 ;;      Temps:          0       0       0       0       0       0       0
  4518 ;;      Totals:         0       0       0       0       0       0       0
  4519 ;;Total ram usage:        0 bytes
  4520 ;; Hardware stack levels used: 1
  4521 ;; This function calls:
  4522 ;;		Nothing
  4523 ;; This function is called by:
  4524 ;;		Interrupt level 2
  4525 ;; This function uses a non-reentrant model
  4526 ;;
  4527                           
  4528                           	psect	intcode
  4529   000008                     __pintcode:
  4530                           	callstack 0
  4531   000008                     _isr:
  4532                           	callstack 26
  4533                           
  4534                           ;incstack = 0
  4535   000008  8254               	bsf	int$flags,1,c	;set compiler interrupt flag (level 2)
  4536   00000A  ED62  F00C         	call	int_func,f	;refresh shadow registers
  4537                           
  4538                           	psect	intcode_body
  4539   0018C4                     __pintcode_body:
  4540                           	callstack 26
  4541   0018C4                     int_func:
  4542                           	callstack 26
  4543   0018C4  0006               	pop		; remove dummy address from shadow register refresh
  4544   0018C6                     
  4545                           ;isr.c: 16:     TMR0 = TMR0 + 3038;
  4546   0018C6  0EDE               	movlw	222
  4547   0018C8  24D6               	addwf	214,w,c	;volatile
  4548   0018CA  6ED6               	movwf	214,c	;volatile
  4549   0018CC  0E0B               	movlw	11
  4550   0018CE  20D7               	addwfc	215,w,c	;volatile
  4551   0018D0  6ED7               	movwf	215,c	;volatile
  4552   0018D2                     
  4553                           ;isr.c: 19:     if ( TMR0IF )
  4554   0018D2  A4F2               	btfss	4082,2,c	;volatile
  4555   0018D4  EF6E  F00C         	goto	i2u230_41
  4556   0018D8  EF70  F00C         	goto	i2u230_40
  4557   0018DC                     i2u230_41:
  4558   0018DC  EF8C  F00C         	goto	i2l300
  4559   0018E0                     i2u230_40:
  4560   0018E0                     
  4561                           ;isr.c: 20:     {;isr.c: 21:         if ( count++ == 80 )
  4562   0018E0  4A4E               	infsnz	_count^0,f,c
  4563   0018E2  2A4F               	incf	(_count+1)^0,f,c
  4564   0018E4  0E51               	movlw	81
  4565   0018E6  184E               	xorwf	_count^0,w,c
  4566   0018E8  104F               	iorwf	(_count+1)^0,w,c
  4567   0018EA  A4D8               	btfss	status,2,c
  4568   0018EC  EF7A  F00C         	goto	i2u231_41
  4569   0018F0  EF7C  F00C         	goto	i2u231_40
  4570   0018F4                     i2u231_41:
  4571   0018F4  EF8B  F00C         	goto	i2l2524
  4572   0018F8                     i2u231_40:
  4573   0018F8                     
  4574                           ;isr.c: 22:         {;isr.c: 23:             if ( sec-- == 0 )
  4575   0018F8  064C               	decf	_sec^0,f,c
  4576   0018FA  284C               	incf	_sec^0,w,c
  4577   0018FC  A4D8               	btfss	status,2,c
  4578   0018FE  EF83  F00C         	goto	i2u232_41
  4579   001902  EF85  F00C         	goto	i2u232_40
  4580   001906                     i2u232_41:
  4581   001906  EF87  F00C         	goto	i2l299
  4582   00190A                     i2u232_40:
  4583   00190A                     
  4584                           ;isr.c: 24:             {;isr.c: 25:                 sec = 60;
  4585   00190A  0E3C               	movlw	60
  4586   00190C  6E4C               	movwf	_sec^0,c
  4587   00190E                     i2l299:
  4588                           
  4589                           ;isr.c: 27:             count = 0;
  4590   00190E  0E00               	movlw	0
  4591   001910  6E4F               	movwf	(_count+1)^0,c
  4592   001912  0E00               	movlw	0
  4593   001914  6E4E               	movwf	_count^0,c
  4594   001916                     i2l2524:
  4595                           
  4596                           ;isr.c: 29:         TMR0IF = 0;
  4597   001916  94F2               	bcf	4082,2,c	;volatile
  4598   001918                     i2l300:
  4599   001918  9254               	bcf	int$flags,1,c	;clear compiler interrupt flag (level 2)
  4600   00191A  0011               	retfie		f
  4601   00191C                     __end_of_isr:
  4602                           	callstack 0
  4603                           
  4604                           	psect	rparam
  4605   000000                     
  4606                           	psect	temp
  4607   000054                     btemp:
  4608                           	callstack 0
  4609   000054                     	ds	1
  4610   000000                     int$flags	set	btemp
  4611   000000                     wtemp8	set	btemp+1
  4612   000000                     ttemp5	set	btemp+1
  4613   000000                     ttemp6	set	btemp+4
  4614   000000                     ttemp7	set	btemp+8
  4615                           
  4616                           	psect	idloc
  4617                           
  4618                           ;Config register IDLOC0 @ 0x200000
  4619                           ;	unspecified, using default values
  4620   200000                     	org	2097152
  4621   200000  FF                 	db	255
  4622                           
  4623                           ;Config register IDLOC1 @ 0x200001
  4624                           ;	unspecified, using default values
  4625   200001                     	org	2097153
  4626   200001  FF                 	db	255
  4627                           
  4628                           ;Config register IDLOC2 @ 0x200002
  4629                           ;	unspecified, using default values
  4630   200002                     	org	2097154
  4631   200002  FF                 	db	255
  4632                           
  4633                           ;Config register IDLOC3 @ 0x200003
  4634                           ;	unspecified, using default values
  4635   200003                     	org	2097155
  4636   200003  FF                 	db	255
  4637                           
  4638                           ;Config register IDLOC4 @ 0x200004
  4639                           ;	unspecified, using default values
  4640   200004                     	org	2097156
  4641   200004  FF                 	db	255
  4642                           
  4643                           ;Config register IDLOC5 @ 0x200005
  4644                           ;	unspecified, using default values
  4645   200005                     	org	2097157
  4646   200005  FF                 	db	255
  4647                           
  4648                           ;Config register IDLOC6 @ 0x200006
  4649                           ;	unspecified, using default values
  4650   200006                     	org	2097158
  4651   200006  FF                 	db	255
  4652                           
  4653                           ;Config register IDLOC7 @ 0x200007
  4654                           ;	unspecified, using default values
  4655   200007                     	org	2097159
  4656   200007  FF                 	db	255
  4657                           
  4658                           	psect	config
  4659                           
  4660                           ; Padding undefined space
  4661   300000                     	org	3145728
  4662   300000  FF                 	db	255
  4663                           
  4664                           ;Config register CONFIG1H @ 0x300001
  4665                           ;	unspecified, using default values
  4666                           ;	Oscillator Selection bits
  4667                           ;	OSC = 0x7, unprogrammed default
  4668                           ;	Fail-Safe Clock Monitor Enable bit
  4669                           ;	FCMEN = 0x0, unprogrammed default
  4670                           ;	Internal/External Oscillator Switchover bit
  4671                           ;	IESO = 0x0, unprogrammed default
  4672   300001                     	org	3145729
  4673   300001  07                 	db	7
  4674                           
  4675                           ;Config register CONFIG2L @ 0x300002
  4676                           ;	unspecified, using default values
  4677                           ;	Power-up Timer Enable bit
  4678                           ;	PWRT = 0x1, unprogrammed default
  4679                           ;	Brown-out Reset Enable bits
  4680                           ;	BOREN = 0x3, unprogrammed default
  4681                           ;	Brown-out Reset Voltage bits
  4682                           ;	BORV = 0x3, unprogrammed default
  4683   300002                     	org	3145730
  4684   300002  1F                 	db	31
  4685                           
  4686                           ;Config register CONFIG2H @ 0x300003
  4687                           ;	unspecified, using default values
  4688                           ;	Watchdog Timer Enable bit
  4689                           ;	WDT = 0x1, unprogrammed default
  4690                           ;	Watchdog Timer Postscale Select bits
  4691                           ;	WDTPS = 0xF, unprogrammed default
  4692   300003                     	org	3145731
  4693   300003  1F                 	db	31
  4694                           
  4695                           ; Padding undefined space
  4696   300004                     	org	3145732
  4697   300004  FF                 	db	255
  4698                           
  4699                           ;Config register CONFIG3H @ 0x300005
  4700                           ;	unspecified, using default values
  4701                           ;	PORTB A/D Enable bit
  4702                           ;	PBADEN = 0x1, unprogrammed default
  4703                           ;	Low-Power Timer 1 Oscillator Enable bit
  4704                           ;	LPT1OSC = 0x0, unprogrammed default
  4705                           ;	MCLR Pin Enable bit
  4706                           ;	MCLRE = 0x1, unprogrammed default
  4707   300005                     	org	3145733
  4708   300005  82                 	db	130
  4709                           
  4710                           ;Config register CONFIG4L @ 0x300006
  4711                           ;	unspecified, using default values
  4712                           ;	Stack Full/Underflow Reset Enable bit
  4713                           ;	STVREN = 0x1, unprogrammed default
  4714                           ;	Single-Supply ICSP Enable bit
  4715                           ;	LVP = 0x1, unprogrammed default
  4716                           ;	Boot Block Size Select bit
  4717                           ;	BBSIZ = 0x0, unprogrammed default
  4718                           ;	Extended Instruction Set Enable bit
  4719                           ;	XINST = 0x0, unprogrammed default
  4720                           ;	Background Debugger Enable bit
  4721                           ;	DEBUG = 0x1, unprogrammed default
  4722   300006                     	org	3145734
  4723   300006  85                 	db	133
  4724                           
  4725                           ; Padding undefined space
  4726   300007                     	org	3145735
  4727   300007  FF                 	db	255
  4728                           
  4729                           ;Config register CONFIG5L @ 0x300008
  4730                           ;	unspecified, using default values
  4731                           ;	Code Protection bit
  4732                           ;	CP0 = 0x1, unprogrammed default
  4733                           ;	Code Protection bit
  4734                           ;	CP1 = 0x1, unprogrammed default
  4735                           ;	Code Protection bit
  4736                           ;	CP2 = 0x1, unprogrammed default
  4737                           ;	Code Protection bit
  4738                           ;	CP3 = 0x1, unprogrammed default
  4739   300008                     	org	3145736
  4740   300008  0F                 	db	15
  4741                           
  4742                           ;Config register CONFIG5H @ 0x300009
  4743                           ;	unspecified, using default values
  4744                           ;	Boot Block Code Protection bit
  4745                           ;	CPB = 0x1, unprogrammed default
  4746                           ;	Data EEPROM Code Protection bit
  4747                           ;	CPD = 0x1, unprogrammed default
  4748   300009                     	org	3145737
  4749   300009  C0                 	db	192
  4750                           
  4751                           ;Config register CONFIG6L @ 0x30000A
  4752                           ;	unspecified, using default values
  4753                           ;	Write Protection bit
  4754                           ;	WRT0 = 0x1, unprogrammed default
  4755                           ;	Write Protection bit
  4756                           ;	WRT1 = 0x1, unprogrammed default
  4757                           ;	Write Protection bit
  4758                           ;	WRT2 = 0x1, unprogrammed default
  4759                           ;	Write Protection bit
  4760                           ;	WRT3 = 0x1, unprogrammed default
  4761   30000A                     	org	3145738
  4762   30000A  0F                 	db	15
  4763                           
  4764                           ;Config register CONFIG6H @ 0x30000B
  4765                           ;	unspecified, using default values
  4766                           ;	Configuration Register Write Protection bit
  4767                           ;	WRTC = 0x1, unprogrammed default
  4768                           ;	Boot Block Write Protection bit
  4769                           ;	WRTB = 0x1, unprogrammed default
  4770                           ;	Data EEPROM Write Protection bit
  4771                           ;	WRTD = 0x1, unprogrammed default
  4772   30000B                     	org	3145739
  4773   30000B  E0                 	db	224
  4774                           
  4775                           ;Config register CONFIG7L @ 0x30000C
  4776                           ;	unspecified, using default values
  4777                           ;	Table Read Protection bit
  4778                           ;	EBTR0 = 0x1, unprogrammed default
  4779                           ;	Table Read Protection bit
  4780                           ;	EBTR1 = 0x1, unprogrammed default
  4781                           ;	Table Read Protection bit
  4782                           ;	EBTR2 = 0x1, unprogrammed default
  4783                           ;	Table Read Protection bit
  4784                           ;	EBTR3 = 0x1, unprogrammed default
  4785   30000C                     	org	3145740
  4786   30000C  0F                 	db	15
  4787                           
  4788                           ;Config register CONFIG7H @ 0x30000D
  4789                           ;	unspecified, using default values
  4790                           ;	Boot Block Table Read Protection bit
  4791                           ;	EBTRB = 0x1, unprogrammed default
  4792   30000D                     	org	3145741
  4793   30000D  40                 	db	64
  4794                           tosu	equ	0xFFF
  4795                           tosh	equ	0xFFE
  4796                           tosl	equ	0xFFD
  4797                           stkptr	equ	0xFFC
  4798                           pclatu	equ	0xFFB
  4799                           pclath	equ	0xFFA
  4800                           pcl	equ	0xFF9
  4801                           tblptru	equ	0xFF8
  4802                           tblptrh	equ	0xFF7
  4803                           tblptrl	equ	0xFF6
  4804                           tablat	equ	0xFF5
  4805                           prodh	equ	0xFF4
  4806                           prodl	equ	0xFF3
  4807                           indf0	equ	0xFEF
  4808                           postinc0	equ	0xFEE
  4809                           postdec0	equ	0xFED
  4810                           preinc0	equ	0xFEC
  4811                           plusw0	equ	0xFEB
  4812                           fsr0h	equ	0xFEA
  4813                           fsr0l	equ	0xFE9
  4814                           wreg	equ	0xFE8
  4815                           indf1	equ	0xFE7
  4816                           postinc1	equ	0xFE6
  4817                           postdec1	equ	0xFE5
  4818                           preinc1	equ	0xFE4
  4819                           plusw1	equ	0xFE3
  4820                           fsr1h	equ	0xFE2
  4821                           fsr1l	equ	0xFE1
  4822                           bsr	equ	0xFE0
  4823                           indf2	equ	0xFDF
  4824                           postinc2	equ	0xFDE
  4825                           postdec2	equ	0xFDD
  4826                           preinc2	equ	0xFDC
  4827                           plusw2	equ	0xFDB
  4828                           fsr2h	equ	0xFDA
  4829                           fsr2l	equ	0xFD9
  4830                           status	equ	0xFD8

Data Sizes:
    Strings     224
    Constant    0
    Data        33
    BSS         6
    Persistent  0
    Stack       0

Auto Spaces:
    Space          Size  Autos    Used
    COMRAM           94     60      83
    BANK0           160      0      16
    BANK1           256      0       0
    BANK2           256      0       0
    BANK3           256      0       0
    BANK4           256      0       0
    BANK5           256      0       0

Pointer List with Targets:

    clcd_print@data	PTR const unsigned char  size(2) Largest target is 17
		 -> STR_46(CODE[17]), STR_45(CODE[17]), STR_44(CODE[17]), STR_43(CODE[17]), 
		 -> STR_42(CODE[4]), STR_41(CODE[11]), STR_40(CODE[17]), STR_39(CODE[17]), 
		 -> STR_38(CODE[15]), STR_37(CODE[17]), STR_36(CODE[17]), STR_35(CODE[17]), 
		 -> STR_34(CODE[17]), STR_33(CODE[17]), STR_32(CODE[17]), STR_31(CODE[9]), 
		 -> STR_30(CODE[13]), STR_29(CODE[13]), STR_28(CODE[13]), STR_27(CODE[13]), 
		 -> STR_26(CODE[13]), STR_25(CODE[3]), STR_24(CODE[3]), STR_23(CODE[3]), 
		 -> STR_22(CODE[3]), STR_21(CODE[3]), STR_20(CODE[3]), STR_19(CODE[3]), 
		 -> STR_18(CODE[3]), STR_17(CODE[3]), STR_16(CODE[3]), STR_15(CODE[5]), 
		 -> STR_14(CODE[17]), STR_13(CODE[13]), STR_12(CODE[13]), STR_11(CODE[13]), 
		 -> STR_10(CODE[13]), STR_9(CODE[13]), STR_8(CODE[3]), STR_7(CODE[3]), 
		 -> STR_6(CODE[3]), STR_5(CODE[3]), STR_4(CODE[3]), STR_3(CODE[3]), 
		 -> STR_2(CODE[3]), STR_1(CODE[3]), 

    menu_opt	PTR unsigned char [5] size(2) Largest target is 13
		 -> STR_30(CODE[13]), STR_29(CODE[13]), STR_28(CODE[13]), STR_27(CODE[13]), 
		 -> STR_26(CODE[13]), STR_13(CODE[13]), STR_12(CODE[13]), STR_11(CODE[13]), 
		 -> STR_10(CODE[13]), STR_9(CODE[13]), 

    signature	PTR unsigned char [8] size(2) Largest target is 3
		 -> STR_25(CODE[3]), STR_24(CODE[3]), STR_23(CODE[3]), STR_22(CODE[3]), 
		 -> STR_21(CODE[3]), STR_20(CODE[3]), STR_19(CODE[3]), STR_18(CODE[3]), 
		 -> STR_8(CODE[3]), STR_7(CODE[3]), STR_6(CODE[3]), STR_5(CODE[3]), 
		 -> STR_4(CODE[3]), STR_3(CODE[3]), STR_2(CODE[3]), STR_1(CODE[3]), 


Critical Paths under _main in COMRAM

    _main->___fltol
    _init_config->_init_clcd
    _init_clcd->_clcd_write
    _enter_password->_menu
    _menu->_clcd_putch
    _display_time->_clcd_print
    _display_speed->_clcd_putch
    _clcd_putch->___awdiv
    _display_event->_clcd_print
    _clcd_print->_clcd_write
    ___xxtofl->_read_adc
    ___fltol->___fldiv
    ___fldiv->___xxtofl

Critical Paths under _isr in COMRAM

    None.

Critical Paths under _main in BANK0

    None.

Critical Paths under _isr in BANK0

    None.

Critical Paths under _main in BANK1

    None.

Critical Paths under _isr in BANK1

    None.

Critical Paths under _main in BANK2

    None.

Critical Paths under _isr in BANK2

    None.

Critical Paths under _main in BANK3

    None.

Critical Paths under _isr in BANK3

    None.

Critical Paths under _main in BANK4

    None.

Critical Paths under _isr in BANK4

    None.

Critical Paths under _main in BANK5

    None.

Critical Paths under _isr in BANK5

    None.

Call Graph Tables:

 ---------------------------------------------------------------------------------
 (Depth) Function   	        Calls       Base Space   Used Autos Params    Refs
 ---------------------------------------------------------------------------------
 (0) _main                                                 3     3      0   35495
                                             57 COMRAM     3     3      0
                            ___fldiv
                            ___fltol
                           ___xxtofl
                         _clcd_print
                      _display_event
                      _display_speed
                       _display_time
                     _enter_password
                        _init_config
                           _read_adc
                      _read_switches
 ---------------------------------------------------------------------------------
 (1) _read_adc                                             8     6      2      22
                                              0 COMRAM     8     6      2
 ---------------------------------------------------------------------------------
 (1) _init_config                                          0     0      0     880
                           _init_adc
                          _init_clcd
                 _init_matrix_keypad
                        _init_timer0
 ---------------------------------------------------------------------------------
 (2) _init_timer0                                          0     0      0       0
 ---------------------------------------------------------------------------------
 (2) _init_matrix_keypad                                   0     0      0       0
 ---------------------------------------------------------------------------------
 (2) _init_clcd                                            2     2      0     880
                                              2 COMRAM     2     2      0
                         _clcd_write
 ---------------------------------------------------------------------------------
 (2) _init_adc                                             0     0      0       0
 ---------------------------------------------------------------------------------
 (1) _enter_password                                      20    20      0   15795
                                             16 COMRAM    20    20      0
                            ___awdiv
                            ___awmod
                         _clcd_print
                         _clcd_putch
                               _menu
                      _read_switches
 ---------------------------------------------------------------------------------
 (2) _menu                                                 7     7      0    7567
                                             10 COMRAM     6     6      0
                            ___awmod
                         _clcd_print
                         _clcd_putch
                      _read_switches
 ---------------------------------------------------------------------------------
 (1) _read_switches                                        1     1      0      44
                                              0 COMRAM     1     1      0
                           _scan_key
 ---------------------------------------------------------------------------------
 (2) _scan_key                                             0     0      0       0
 ---------------------------------------------------------------------------------
 (3) ___awmod                                              6     2      4     600
                                              0 COMRAM     6     2      4
 ---------------------------------------------------------------------------------
 (2) ___awdiv                                              8     4      4     452
                                              0 COMRAM     8     4      4
 ---------------------------------------------------------------------------------
 (1) _display_time                                         0     0      0    4595
                         _clcd_print
 ---------------------------------------------------------------------------------
 (1) _display_speed                                        2     0      2    2733
                                             10 COMRAM     2     0      2
                            ___lwdiv
                            ___lwmod
                         _clcd_putch
 ---------------------------------------------------------------------------------
 (3) _clcd_putch                                           2     1      1    1988
                                              8 COMRAM     2     1      1
                            ___awdiv (ARG)
                            ___awmod (ARG)
                            ___lwdiv (ARG)
                            ___lwmod (ARG)
                         _clcd_write
 ---------------------------------------------------------------------------------
 (2) ___lwmod                                              5     1      4     311
                                              0 COMRAM     5     1      4
 ---------------------------------------------------------------------------------
 (2) ___lwdiv                                              7     3      4     314
                                              0 COMRAM     7     3      4
 ---------------------------------------------------------------------------------
 (1) _display_event                                        1     1      0    4661
                                              5 COMRAM     1     1      0
                         _clcd_print
 ---------------------------------------------------------------------------------
 (3) _clcd_print                                           3     0      3    4595
                                              2 COMRAM     3     0      3
                         _clcd_write
 ---------------------------------------------------------------------------------
 (3) _clcd_write                                           2     1      1     880
                                              0 COMRAM     2     1      1
 ---------------------------------------------------------------------------------
 (1) ___xxtofl                                            14    10      4     398
                                              8 COMRAM    14    10      4
                           _read_adc (ARG)
 ---------------------------------------------------------------------------------
 (1) ___fltol                                             10     6      4     305
                                             47 COMRAM    10     6      4
                            ___fldiv (ARG)
                           ___xxtofl (ARG)
                           _read_adc (ARG)
 ---------------------------------------------------------------------------------
 (1) ___fldiv                                             25    17      8    1399
                                             22 COMRAM    25    17      8
                           ___xxtofl (ARG)
                           _read_adc (ARG)
 ---------------------------------------------------------------------------------
 Estimated maximum stack depth 3
 ---------------------------------------------------------------------------------
 (Depth) Function   	        Calls       Base Space   Used Autos Params    Refs
 ---------------------------------------------------------------------------------
 (5) _isr                                                  0     0      0       0
 ---------------------------------------------------------------------------------
 Estimated maximum stack depth 5
 ---------------------------------------------------------------------------------

 Call Graph Graphs:

 _main (ROOT)
   ___fldiv
     ___xxtofl (ARG)
       _read_adc (ARG)
     _read_adc (ARG)
   ___fltol
     ___fldiv (ARG)
     ___xxtofl (ARG)
     _read_adc (ARG)
   ___xxtofl
   _clcd_print
     _clcd_write
   _display_event
     _clcd_print
   _display_speed
     ___lwdiv
     ___lwmod
     _clcd_putch
       ___awdiv (ARG)
       ___awmod (ARG)
       ___lwdiv (ARG)
       ___lwmod (ARG)
       _clcd_write (ARG)
   _display_time
     _clcd_print
   _enter_password
     ___awdiv
     ___awmod
     _clcd_print
     _clcd_putch
     _menu
       ___awmod
       _clcd_print
       _clcd_putch
       _read_switches
         _scan_key
     _read_switches
   _init_config
     _init_adc
     _init_clcd
       _clcd_write
     _init_matrix_keypad
     _init_timer0
   _read_adc
   _read_switches

 _isr (ROOT)

 Address spaces:
Name               Size   Autos  Total    Cost      Usage
BIGRAM             5FF      0       0      23        0.0%
BITBIGSFRl         281      0       0      21        0.0%
EEDATA             100      0       0       0        0.0%
BITBANK5           100      0       0      14        0.0%
BANK5              100      0       0      15        0.0%
BITBANK4           100      0       0      12        0.0%
BANK4              100      0       0      13        0.0%
BITBANK3           100      0       0      10        0.0%
BANK3              100      0       0      11        0.0%
BITBANK2           100      0       0       8        0.0%
BANK2              100      0       0       9        0.0%
BITBANK1           100      0       0       6        0.0%
BANK1              100      0       0       7        0.0%
BITBANK0            A0      0       0       4        0.0%
BANK0               A0      0      10       5       10.0%
BITCOMRAM           5E      0       0       0        0.0%
COMRAM              5E     3C      53       1       88.3%
BITBIGSFRhhll       2A      0       0      19        0.0%
BITBIGSFRhhlhh      19      0       0      17        0.0%
BITBIGSFRhhlhl      10      0       0      18        0.0%
BITBIGSFRhl          F      0       0      20        0.0%
BITBIGSFRhhh         D      0       0      16        0.0%
BIGSFR               0      0       0     200        0.0%
BITSFR_3             0      0       0     200        0.0%
SFR_3                0      0       0     200        0.0%
BITSFR_2             0      0       0     200        0.0%
SFR_2                0      0       0     200        0.0%
BITSFR_1             0      0       0     200        0.0%
SFR_1                0      0       0     200        0.0%
BITSFR               0      0       0     200        0.0%
SFR                  0      0       0     200        0.0%
STACK                0      0       0       2        0.0%
NULL                 0      0       0       0        0.0%
ABS                  0      0      63      22        0.0%
DATA                 0      0      63       3        0.0%
CODE                 0      0       0       0        0.0%


Microchip Technology PIC18 Macro Assembler V2.41 build 20230208172133 
Symbol Table                                                                                   Wed Dec 20 17:33:12 2023

              ___fldiv@aexp 002F                ___fldiv@bexp 002E                ___fldiv@sign 0027  
            clcd_print@addr 0005              clcd_print@data 0003                          l31 1A8C  
                        l36 1352                          l64 1A26                          l65 1A2A  
                        l74 19AE                          l68 166A                          l77 1A7A  
                        _GO 7E11                ___awdiv@sign 0006          _init_matrix_keypad 1AC2  
                       l100 1AC8                         l121 1182                         l201 0DE4  
                       l131 1208                         l124 11B0                         l116 115A  
                       l108 1800                         l133 121C                         l125 11EC  
                       l117 1246                         l134 1244                         l126 11C4  
                       l118 1196                         l135 1230                         l119 116E  
                       l128 11D8                         l218 113E                         l172 15BA  
                       l260 195C                         l158 1A9E                         l262 196A  
                       l175 19F0                         l600 134C                         l193 0C2A  
                       l257 1A48                         l284 1A62                         l534 1500  
                       l801 178E                         l811 1864                         l547 171A  
                       l804 185C                         l961 0F98                         l890 089E  
                       l794 1786                         l972 0F30                         l885 0A7A  
                       l965 0ED4                         l958 0E3C                         l887 08DA  
                       l896 0920                         l898 0998                         l899 0986  
                       _GIE 7F97                         _RB1 7C09                         _RC0 7C10  
                       _RB2 7C0A                         _RC1 7C11                         _RB3 7C0B  
                       _RC2 7C12                         _RB4 7C0C                         _RB5 7C0D  
                       _RB6 7C0E                         _RB7 7C0F                         _RD7 7C1F  
                       _PSA 7EAB               ?_display_time 0001                         _sec 004C  
                       _isr 0008              clcd_putch@addr 0009              clcd_putch@data 000A  
              ___awmod@sign 0006                         prod 0FF3                         wreg 0FE8  
               main@adc_val 003A      read_switches@detection 0001         ?_init_matrix_keypad 0001  
              ___fltol@exp1 0039                        l2000 1074                        l2010 10F8  
                      l2002 108C                        l2020 1442                        l2012 110A  
                      l2004 109C                        l2100 1A7C                        l2030 1472  
                      l2022 1450                        l2014 112A                        l2006 10B0  
                      l2102 1A80                        l2110 1932                        l2040 14A0  
                      l2032 1476                        l2024 1458                        l2008 10D0  
                      l2016 112E                        l2200 0CBC                        l2120 0A92  
                      l2104 1A84                        l2112 1938                        l2050 14D4  
                      l2042 14AE                        l2034 147E                        l2026 145C  
                      l2018 143E                        l2210 0CEE                        l2202 0CC0  
                      l2130 0AB2                        l2122 0A96                        l2106 1A88  
                      l2300 0794                        l2052 14DA                        l2044 14B4  
                      l2036 1490                        l2028 146A                        l2212 0D06  
                      l2204 0CC2                        l2140 0AF4                        l2132 0AC2  
                      l2124 0A9A                        l2116 0A7C                        l1180 1AC2  
                      l2108 191E                        l2310 07D4                        l2302 0796  
                      l2070 1746                        l2062 171C                        l2046 14CA  
                      l2038 1498                        l2054 14E0                        l2230 0DB0  
                      l2222 0D40                        l2206 0CD2                        l2214 0D16  
                      l2134 0AD4                        l2142 0AFA                        l2126 0AA2  
                      l2118 0A8E                        l1182 1AC6                        l1190 1A5A  
                      l2320 0804                        l2312 07DC                        l2304 079E  
                      l2240 1514                        l2080 177A                        l2072 1754  
                      l2064 1724                        l2056 14F0                        l2048 14D2  
                      l2232 0DD0                        l2224 0D60                        l2216 0D26  
                      l2208 0CDE                        l2160 0B78                        l2144 0B0C  
                      l2152 0B30                        l2136 0AD8                        l2128 0AAA  
                      l1184 1A2C                        l1192 1A5C                        l2330 0842  
                      l2322 0804                        l2314 07E0                        l2306 07AE  
                      l2250 1546                        l2242 151C                        l2082 1780  
                      l2074 175A                        l2066 1736                        l2090 1824  
                      l2058 14F8                        l2226 0D7E                        l2218 0D2A  
                      l2170 0BCA                        l2162 0B88                        l2154 0B42  
                      l2146 0B10                        l2138 0AE8                        l2234 0DD4  
                      l1194 1A5E                        l1186 1A4A                        l2340 088E  
                      l2332 0852                        l2308 07C4                        l2420 12B2  
                      l2412 1272                        l2260 1576                        l2244 152E  
                      l2252 154A                        l2076 1770                        l2068 173E  
                      l2092 1832                        l2084 1802                        l2236 1A8E  
                      l2172 0BDC                        l2164 0B9E                        l2156 0B52  
                      l2148 0B20                        l1196 1A60                        l1188 1A52  
                      l2500 13C4                        l2350 08D8                        l2342 089C  
                      l2334 0862                        l2326 0818                        l2318 07F4  
                      l2270 06EE                        l2430 12E2                        l2422 12C0  
                      l2414 129C                        l2406 1248                        l2262 1586  
                      l2254 155C                        l2246 1532                        l2238 1504  
                      l2078 1778                        l2094 1848                        l2086 1814  
                      l2190 0C5C                        l2182 0BFE                        l2174 0BF2  
                      l2166 0BAA                        l2158 0B56                        l2510 1424  
                      l2502 13C8                        l2360 091E                        l2352 08EA  
                      l2344 08A8                        l2336 086A                        l2328 0832  
                      l2280 072E                        l2272 06FC                        l2440 130C  
                      l2432 12EC                        l2416 129E                        l2408 125E  
                      l2264 159A                        l2256 156C                        l2248 1534  
                      l2096 1850                        l2088 181C                        l2192 0C7C  
                      l2184 0C28                        l2176 0BF6                        l2168 0BC2  
                      l2512 142A                        l2504 13D8                        l2370 097E  
                      l2354 0900                        l2362 0930                        l2346 08C6  
                      l2338 087A                        l2290 0754                        l2282 0730  
                      l2274 06FE                        l2442 131C                        l2418 12AE  
                      l2450 0DE8                        l2258 1572                        l2098 1856  
                      l2266 19B0                        l2194 0C94                        l2186 0C2E  
                      l2506 13E8                        l2380 09EC                        l2364 093E  
                      l2356 0906                        l2348 08C8                        l2292 0762  
                      l2276 070E                        l2284 0738                        l2268 06E2  
                      l2444 132C                        l2428 12D8                        l2452 0DF8  
                      l1900 167E                        l1820 11D2                        l1804 1190  
                      l2196 0CA4                        l2188 0C4A                        l2508 13F0  
                      l2390 0A56                        l2374 09A8                        l2382 09F0  
                      l2366 0942                        l2358 0910                        l2294 0764  
                      l2286 0748                        l2278 071E                        l2446 133C  
                      l2438 1300                        l2470 0EBE                        l2462 0E76  
                      l2454 0E06                        l1910 16B2                        l1902 1686  
                      l1830 1202                        l1814 11BE                        l2198 0CAC  
                      l2392 0A5A                        l2384 0A0A                        l2376 09B4  
                      l2368 0950                        l2296 0774                        l2288 074E  
                      l2480 0F3E                        l2472 0ECA                        l2464 0E7E  
                      l2456 0E4C                        l1920 16EE                        l1912 16BA  
                      l1904 168A                        l1808 11AA                        l2394 0A68  
                      l2386 0A20                        l2378 09C2                        l2298 0784  
                      l2490 0F86                        l2482 0F40                        l2474 0F06  
                      l2466 0E8A                        l2458 0E62                        l1770 1A0C  
                      l1922 16F4                        l1914 16C2                        l1906 1698  
                      l1842 122A                        l1826 11E6                        l2396 0A6E  
                      l2388 0A3A                        l2492 0F88                        l2484 0F44  
                      l2476 0F12                        l2468 0EBC                        l1780 1A16  
                      l1772 1A0E                        l1764 19F4                        l1916 16D0  
                      l1924 16FA                        l1908 16A0                        l1852 1244  
                      l1836 1216                        l1940 15E0                        l1932 15BC  
                      l2398 0A70                        l2486 0F68                        l2478 0F20  
                      l1782 1A18                        l1774 1A10                        l1766 1A06  
                      l1926 170A                        l1918 16E6                        l1870 17D0  
                      l1950 1616                        l1942 15EA                        l1934 15C0  
                      l2488 0F78                        l1776 1A12                        l1768 1A0A  
                      l1928 1712                        l1848 123E                        l1792 1168  
                      l1784 1140                        l1880 17FA                        l1872 17E0  
                      l1864 17AA                        l1856 1792                        l1960 1640  
                      l1952 161C                        l1944 15FA                        l1936 15C6  
                      l2496 134E                        l1778 1A14                        l1890 198E  
                      l1786 1154                        l1882 17FE                        l1866 17BA  
                      l1858 17A2                        l1970 0FAA                        l1962 164A  
                      l1954 1626                        l1946 1604                        l1938 15C8  
                      l2498 13B2                        l1892 1992                        l1868 17C0  
                      l1980 0FF0                        l1972 0FB2                        l1964 1658  
                      l1956 162E                        l1948 160C                        l1886 196C  
                      l1894 1A66                        l1798 117C                        l1878 17EA  
                      l1990 1028                        l1982 0FF4                        l1974 0FC4  
                      l1966 1662                        l1958 1638                        l1888 197A  
                      l1896 166C                        l1992 103E                        l1976 0FCC  
                      l1984 0FFC                        l1968 0F9A                        l1898 1670  
                      l1986 100E                        l1978 0FDE                        l1988 1016  
                      l1996 1046                        l1998 1064                        _ADFM 7E07  
                      ?_isr 0001                        _ADON 7E10                        STR_1 06D5  
                      STR_2 06D2                        STR_3 06C6                        STR_4 06C9  
                      STR_5 06CC                        STR_6 06CF                        STR_7 06DB  
                      STR_8 06C3                        STR_9 0672                        _T0CS 7EAD  
                      u2000 0900                        u1200 1154                        u2001 08FC  
                      u1201 1150                        u2010 091E                        u1210 1168  
                      u2011 091A                        u1211 1164                        u2100 0A68  
                      u2020 093E                        u1300 122A                        u1220 117C  
                      u2101 0A64                        u2021 093A                        u1301 1226  
                      u1221 1178                        u2030 0950                        u2110 125E  
                      u1310 123E                        u1230 1190                        u2031 094C  
                      u2111 125A                        u1311 123A                        u1231 118C  
                      u2040 097E                        u2120 1292                        u2200 0E62  
                      u1400 16B2                        u1240 11AA                        u1320 17A2  
                      u2041 097A                        u2201 0E5E                        u1401 16AE  
                      u1241 11A6                        u1321 179E                        u2050 0994  
                      u2130 12C0                        u2210 0EB8                        u1170 1A04  
                      u1410 16D0                        u1250 11BE                        u1330 17BA  
                      u2051 0990                        u2131 12BC                        u2211 0EB4  
                      u1171 19FE                        u1411 16CC                        u1251 11BA  
                      u1331 17B6                        u2060 09A8                        u2140 12D4  
                      u2220 0F02                        u1420 16E6                        u1260 11D2  
                      u1340 17D0                        u1500 1074                        u2061 09A4  
                      u2141 12D0                        u2125 1288                        u2221 0EFE  
                      u1421 16E2                        u1261 11CE                        u1341 17CC  
                      u1501 1070                        u2070 09C2                        u2150 12FC  
                      u2230 0F20                        u1190 1A26                        u1430 170A  
                      u1270 11E6                        u1350 17E0                        u1510 109C  
                      u2071 09BE                        u2151 12F8                        u2231 0F1C  
                      u1191 1A22                        u1431 1706                        u1271 11E2  
                      u1351 17DC                        u1511 1098                        u2080 0A0A  
                      u2160 131C                        u2240 0F30                        u1600 1736  
                      u1280 1202                        u1360 17FA                        u1520 110A  
                      u1440 0FC4                        u2081 0A06                        u2161 1318  
                      u2241 0F2C                        u1185 1A06                        u1601 1732  
                      u1281 11FE                        u1361 17F6                        u1521 1106  
                      u1441 0FC0                        u2090 0A3A                        u2170 132C  
                      u2250 0F3E                        u1370 19AE                        u1610 1754  
                      u1290 1216                        u1530 113E                        u1450 0FDE  
                      u2091 0A36                        u2171 1328                        u2251 0F3A  
                      u1371 19AA                        u1611 1750                        u1291 1212  
                      u1531 113A                        u1451 0FDA                        u2260 0F78  
                      u2180 0DF8                        u1620 1770                        u1540 1450  
                      u1380 167E                        u1460 0FF0                        u1700 0B42  
                      u2261 0F74                        u2181 0DF4                        u1621 176C  
                      u1541 144C                        u1381 167A                        u1461 0FEC  
                      u1701 0B3E                        u2270 0F86                        u2190 0E06  
                      u1630 1814                        u1550 146A                        u1390 1698  
                      u1470 100E                        u1710 0B78                        u2271 0F82  
                      u2191 0E02                        u1631 1810                        u1551 1466  
                      u1391 1694                        u1471 100A                        u2407 0BE6  
                      u1711 0B74                        u1640 1832                        u1560 1490  
                      u1480 1028                        u1800 0D3C                        u1720 0B9E  
                      u2280 13C4              ?_display_event 0001                        u1641 182E  
                      u1561 148C                        u1481 1024                        u1801 0D38  
                      u2417 0C86                        u1721 0B9A                        u2337 15D2  
                      u2281 13C0                        u1650 1848                        u1570 14AE  
                      u1490 103E                        u1810 0DE4                        u1730 0BC2  
                      u2290 13D8                        u1651 1844                        u1571 14AA  
                      u1491 103A                        u1811 0DE0                        u2427 0CF8  
                      u1731 0BBE                        u2347 15F0                        u2291 13D4  
                      u1900 071E                        u1820 1514                        u1580 14CA  
                      u1740 0BDC                        u1660 196A                        u1901 071A  
                      u1821 1510                        u1581 14C6                        u1741 0BD8  
                      u2357 1606                        u1661 1966                        u1910 0762  
                      u1830 152E                        u1590 14F0                        u1750 0C28  
                      u1911 075E                        u1831 152A                        u1591 14EC  
                      u1751 0C24                        u1671 0A86                        u2367 1628  
                      u1920 0774                        u1840 1546                        u1760 0C4A  
                      u1680 0AD4                        u1921 0770                        u1841 1542  
                      u1761 0C46                        u1681 0AD0                        u2377 163A  
                      u1930 0784                        u1850 155C                        u1770 0C5C  
                      u1690 0B0C                        u1931 0780                        u1851 1558  
                      u1771 0C58                        u1691 0B08                        u2387 1650  
                      u1940 07C4                        u1860 156C                        u1780 0CBC  
                      u1941 07C0                        u1861 1568                        u1781 0CB8  
                      u2397 1664                        u1950 0804                        u1870 1586  
                      u1790 0D26                        u1951 0800                        u1871 1582  
                      u1791 0D22                        u1960 087A                        u1880 06FC  
                      u1961 0876                        u1881 06F8                        u1970 089C  
                      u1890 070E                        u1971 0898                        u1891 070A  
                      _PEIE 7F96                        u1980 08C6                        u1981 08C2  
                      u1990 08EA                        u1991 08E6                        _RBPU 7F8F  
                      _TMR0 0FD6              ?_display_speed 000B                        _main 134E  
                      _menu 0F9A                        indf2 0FDF                        fsr1l 0FE1  
                      fsr2l 0FD9                        btemp 0054                        prodl 0FF3  
                      start 000E             ___fldiv@new_exp 0028        ??_init_matrix_keypad 0001  
              ___param_bank 0000              clcd_write@byte 0002                       ??_isr 0001  
     enter_password@attempt 001E               ___fltol@sign1 0038                       _ADCS0 7E00  
                     _ADCS1 7E01                       _ADCS2 7E02                       ?_main 0001  
            ??_display_time 0006                       ?_menu 0001             __end_of___fldiv 0A7C  
                     _ACQT0 7E03                       _ACQT1 7E04                       _ACQT2 7E05  
           __end_of___awdiv 1502                       STR_10 068C                       STR_11 067F  
                     STR_12 0665                       STR_20 06C6                       STR_13 0699  
                     STR_21 06C9                       STR_14 0645                       STR_22 06CC  
                     STR_30 0699                       STR_15 06BA                       STR_31 06B1  
                     STR_23 06CF                       STR_16 06DE                       STR_32 0623  
                     STR_40 0601                       STR_24 06DB                       STR_33 0645  
                     STR_17 06D8                       STR_41 06A6                       STR_25 06C3  
                     STR_42 06BF                       STR_34 0634                       STR_18 06D5  
                     STR_26 0672                       STR_43 0645                       STR_35 0645  
                     STR_19 06D2                       STR_27 068C                       STR_44 0645  
                     STR_36 0645                       STR_28 067F             __end_of___awmod 171C  
                     STR_45 0645                       STR_37 0612                       STR_29 0665  
                     STR_46 0645                       STR_38 0656                       STR_39 0645  
           __end_of___fltol 134E             ___awdiv@divisor 0003                       _PCFG0 7E08  
                     _PCFG1 7E09                       _PCFG2 7E0A                       _PCFG3 7E0B  
           __end_of___lwdiv 1790             __end_of___lwmod 1866                       i2l300 1918  
              ?_init_config 0001                       i2l299 190E             ___awdiv@counter 0005  
                     _VCFG0 7E0C                       _VCFG1 7E0D                       _PORTD 0F83  
                     _TRISB 0F93                       _TRISC 0F94                       _TRISD 0F95  
              ?_init_timer0 0001                       _count 004E                       tablat 0FF5  
                     plusw1 0FE3                       plusw2 0FDB                       ttemp5 0055  
                     ttemp6 0058                       ttemp7 005C                       status 0FD8  
                     wtemp8 0055             __initialization 1866                __end_of_main 143E  
              __end_of_menu 1140                      ??_main 003A                      ??_menu 000B  
             __activetblptr 0001             ??_display_event 0006                      _ADCON0 0FC2  
          read_switches@key 0052             ??_display_speed 000D                      _ADRESH 0FC4  
                    _ADRESL 0FC3      enter_password@pass_key 001D                      _T08BIT 7EAE  
          ___awdiv@dividend 0001      enter_password@password 0013                      i2l2520 18F8  
                    i2l2522 190A                      i2l2514 18C6                      i2l2524 1916  
                    i2l2516 18D2                      i2l2518 18E0                      _TMR0IE 7F95  
                    _TMR0IF 7F92                      _TMR0ON 7EAF                      _TRISD7 7CAF  
          __end_of___xxtofl 0F9A                 menu@pre_key 000D                   ??___fldiv 001F  
                 ??___awdiv 0005                   ??___awmod 0005                   ??___fltol 0034  
                 ??___lwdiv 0005                   ??___lwmod 0005            __end_of_init_adc 1A4A  
          __end_of_read_adc 196C            ___awdiv@quotient 0007             ___awmod@divisor 0003  
                    isa$std 0001            __end_of_scan_key 1248             ___awmod@counter 0005  
              __pdataCOMRAM 003D                __mediumconst 0000                      tblptrh 0FF7  
                    tblptrl 0FF6                      tblptru 0FF8                ___xxtofl@arg 0013  
              ___xxtofl@exp 0012                ___xxtofl@val 0009                  __accesstop 0060  
   __end_of__initialization 18B2        __end_of_display_time 1AA0               ___rparam_used 0001  
                ___fltol@f1 0030              __pcstackCOMRAM 0001                __pidataBANK0 1AB1  
            _enter_password 0A7C                  _clcd_print 196C                  _clcd_putch 1A64  
                _clcd_write 19F2           read_switches@once 004D             enter_password@j 0022  
                 ?___xxtofl 0009               _read_switches 1790                menu@menu_key 0010  
    __end_of_enter_password 0DE6                   ?_init_adc 0001                   ?_read_adc 0001  
                 ?_scan_key 0001                     __Hparam 0000                     __Lparam 0000  
                   ___fldiv 06E2                     ___awdiv 143E                     ___awmod 166C  
                   ___fltol 1248                     ___lwdiv 171C                     ___lwmod 1802  
              __psmallconst 0600                     __pcinit 1866                     __ramtop 0600  
                   __ptext0 134E                     __ptext1 191C                     __ptext2 1A7C  
                   __ptext3 1A4A                     __ptext4 1AC2                     __ptext5 15BC  
                   __ptext6 1A2C                     __ptext7 0A7C                     __ptext8 0F9A  
                   __ptext9 1790           __end_of_init_clcd 166C                  ??___xxtofl 000D  
          ___awmod@dividend 0001              ?_read_switches 0001                     main@key 003C  
            __pintcode_body 18C4           enter_password@ind 0024        end_of_initialization 18B2  
           ?_enter_password 0001                  ??_init_adc 0001                  ??_read_adc 0003  
                   int_func 18C4                  ??_scan_key 0001                 ?_clcd_print 0003  
               ?_clcd_putch 0009                 ?_clcd_write 0001                     postdec1 0FE5  
                   postdec2 0FDD                     postinc0 0FEE                     postinc1 0FE6  
                   postinc2 0FDE             read_adc@channel 0008                _display_time 1A8E  
      enter_password@F10476 0047               ___xxtofl@sign 0011                 ___fldiv@grs 002A  
               ___fldiv@rem 0023       __end_of_display_event 15BC       __end_of_display_speed 19F2  
             __pidataCOMRAM 1AA0         start_initialization 1866             ??_read_switches 0001  
               __end_of_isr 191C                 __pdataBANK0 0060               ??_init_config 0005  
                 ___fldiv@a 001B                   ___fldiv@b 0017               ??_init_timer0 0001  
               __pbssCOMRAM 004E          display_speed@speed 000B            ___lwdiv@dividend 0001  
                 __pintcode 0008                    ?___fldiv 0017                    ?___awdiv 0001  
                  ?___awmod 0001                    ?___fltol 0030                    ?___lwdiv 0001  
                  ?___lwmod 0001                 __smallconst 0600            ??_enter_password 0011  
  enter_password@input_pass 0018            ___lwdiv@quotient 0005                   _init_clcd 15BC  
       __end_of_init_config 1A8E         __end_of_init_timer0 1A64                   _pass_flag 0053  
              ??_clcd_print 0006                ??_clcd_putch 000A  __end_of_init_matrix_keypad 1ACA  
              ??_clcd_write 0002                    i2u230_40 18E0                    i2u230_41 18DC  
                  i2u231_40 18F8                    i2u231_41 18F4                    i2u232_40 190A  
                  i2u232_41 1906                   _signature 0060           display_event@gear 0051  
         display_event@flag 0050       clcd_write@control_bit 0001          __end_of_clcd_print 19B0  
        __end_of_clcd_putch 1A7C          __end_of_clcd_write 1A2C         enter_password@count 001F  
                ?_init_clcd 0001                   copy_data0 187A                   copy_data1 189A  
                  __Hrparam 0000                    __Lrparam 0000                __Lsmallconst 0600  
               _init_config 1A7C                    ___xxtofl 0DE6                 _init_timer0 1A4A  
           ___lwdiv@divisor 0003             ___lwdiv@counter 0007                    __ptext10 1140  
                  __ptext11 166C                    __ptext20 19F2                    __ptext12 143E  
                  __ptext21 0DE6                    __ptext13 1A8E                    __ptext22 1248  
                  __ptext14 19B0                    __ptext23 06E2                    __ptext15 1A64  
                  __ptext16 1802                    __ptext17 171C                    __ptext18 1502  
                  __ptext19 196C                    _init_adc 1A2C                    _read_adc 191C  
                  _menu_opt 003D                    _scan_key 1140                    isa$xinst 0000  
          display_event@key 0006                    int$flags 0054          enter_password@wait 0020  
                  menu@line 000F                    menu@star 000E                 ??_init_clcd 0003  
     __end_of_read_switches 1802                    intlevel2 0000            ___lwmod@dividend 0001  
           ___lwmod@divisor 0003             ___lwmod@counter 0005               _display_event 1502  
             _display_speed 19B0  
