

Microchip MPLAB XC8 Assembler V2.41 build 20230208172133 
                                                                                               Tue Jan 09 18:30:58 2024

Microchip MPLAB XC8 C Compiler v2.41 (Free license) build 20230208172133 Og1 
     1                           	processor	18F4580
     2                           	fnconf	rparam,??,?,0
     3                           	pagewidth 120
     4                           	opt	flic
     5                           	psect	idataCOMRAM,global,class=CODE,delta=1,noexec
     6                           	psect	idataBANK0,global,class=CODE,delta=1,noexec
     7                           	psect	mediumconst,global,reloc=2,class=MEDIUMCONST,delta=1,noexec
     8                           	psect	cinit,global,reloc=2,class=CODE,delta=1
     9                           	psect	bssCOMRAM,global,class=COMRAM,space=1,delta=1,lowdata,noexec
    10                           	psect	dataCOMRAM,global,class=COMRAM,space=1,delta=1,lowdata,noexec
    11                           	psect	bssBANK0,global,class=BANK0,space=1,delta=1,lowdata,noexec
    12                           	psect	dataBANK0,global,class=BANK0,space=1,delta=1,lowdata,noexec
    13                           	psect	cstackCOMRAM,global,class=COMRAM,space=1,delta=1,lowdata,noexec
    14                           	psect	text0,global,reloc=2,class=CODE,delta=1
    15                           	psect	text1,global,reloc=2,class=CODE,delta=1
    16                           	psect	text2,global,reloc=2,class=CODE,delta=1
    17                           	psect	text3,global,reloc=2,class=CODE,delta=1
    18                           	psect	text4,global,reloc=2,class=CODE,delta=1
    19                           	psect	text5,global,reloc=2,class=CODE,delta=1
    20                           	psect	text6,global,reloc=2,class=CODE,delta=1
    21                           	psect	text7,global,reloc=2,class=CODE,delta=1
    22                           	psect	text8,global,reloc=2,class=CODE,delta=1
    23                           	psect	text9,global,reloc=2,class=CODE,delta=1,group=1
    24                           	psect	text10,global,reloc=2,class=CODE,delta=1
    25                           	psect	text11,global,reloc=2,class=CODE,delta=1
    26                           	psect	text12,global,reloc=2,class=CODE,delta=1
    27                           	psect	text13,global,reloc=2,class=CODE,delta=1
    28                           	psect	text14,global,reloc=2,class=CODE,delta=1
    29                           	psect	text15,global,reloc=2,class=CODE,delta=1
    30                           	psect	text16,global,reloc=2,class=CODE,delta=1
    31                           	psect	text17,global,reloc=2,class=CODE,delta=1
    32                           	psect	text18,global,reloc=2,class=CODE,delta=1
    33                           	psect	text19,global,reloc=2,class=CODE,delta=1
    34                           	psect	text20,global,reloc=2,class=CODE,delta=1
    35                           	psect	text21,global,reloc=2,class=CODE,delta=1
    36                           	psect	text22,global,reloc=2,class=CODE,delta=1
    37                           	psect	text23,global,reloc=2,class=CODE,delta=1,group=1
    38                           	psect	text24,global,reloc=2,class=CODE,delta=1,group=1
    39                           	psect	text25,global,reloc=2,class=CODE,delta=1
    40                           	psect	text26,global,reloc=2,class=CODE,delta=1
    41                           	psect	text27,global,reloc=2,class=CODE,delta=1
    42                           	psect	text28,global,reloc=2,class=CODE,delta=1
    43                           	psect	text29,global,reloc=2,class=CODE,delta=1
    44                           	psect	text30,global,reloc=2,class=CODE,delta=1
    45                           	psect	text31,global,reloc=2,class=CODE,delta=1
    46                           	psect	text32,global,reloc=2,class=CODE,delta=1
    47                           	psect	text33,global,reloc=2,class=CODE,delta=1,group=1
    48                           	psect	text34,global,reloc=2,class=CODE,delta=1,group=1
    49                           	psect	text35,global,reloc=2,class=CODE,delta=1
    50                           	psect	text36,global,reloc=2,class=CODE,delta=1
    51                           	psect	text37,global,reloc=2,class=CODE,delta=1
    52                           	psect	text38,global,reloc=2,class=CODE,delta=1
    53                           	psect	text39,global,reloc=2,class=CODE,delta=1
    54                           	psect	text40,global,reloc=2,class=CODE,delta=1
    55                           	psect	text41,global,reloc=2,class=CODE,delta=1
    56                           	psect	text42,global,reloc=2,class=CODE,delta=1
    57                           	psect	text43,global,reloc=2,class=CODE,delta=1
    58                           	psect	text44,global,reloc=2,class=CODE,delta=1
    59                           	psect	text45,global,reloc=2,class=CODE,delta=1
    60                           	psect	text46,global,reloc=2,class=CODE,delta=1
    61                           	psect	text47,global,reloc=2,class=CODE,delta=1
    62                           	psect	text48,global,reloc=2,class=CODE,delta=1,group=1
    63                           	psect	text49,global,reloc=2,class=CODE,delta=1,group=1
    64                           	psect	text50,global,reloc=2,class=CODE,delta=1,group=1
    65                           	psect	intcode,global,reloc=2,class=CODE,delta=1
    66                           	psect	intcode_body,global,reloc=2,class=CODE,delta=1
    67                           	psect	intsave_regs,global,class=BIGRAM,space=1,delta=1,noexec
    68                           	psect	rparam,global,class=COMRAM,space=1,delta=1,noexec
    69                           	psect	temp,global,ovrld,common,class=COMRAM,space=1,delta=1
    70                           	psect	idloc,global,abs,ovrld,class=IDLOC,space=5,delta=1,noexec
    71                           	psect	config,global,abs,ovrld,class=CONFIG,space=4,delta=1,noexec
    72   000000                     
    73                           ; Version 2.20
    74                           ; Generated 12/02/2020 GMT
    75                           ; 
    76                           ; Copyright © 2020, Microchip Technology Inc. and its subsidiaries ("Microchip")
    77                           ; All rights reserved.
    78                           ; 
    79                           ; This software is developed by Microchip Technology Inc. and its subsidiaries ("Microch
      +                          ip").
    80                           ; 
    81                           ; Redistribution and use in source and binary forms, with or without modification, are
    82                           ; permitted provided that the following conditions are met:
    83                           ; 
    84                           ;     1. Redistributions of source code must retain the above copyright notice, this lis
      +                          t of
    85                           ;        conditions and the following disclaimer.
    86                           ; 
    87                           ;     2. Redistributions in binary form must reproduce the above copyright notice, this 
      +                          list
    88                           ;        of conditions and the following disclaimer in the documentation and/or other
    89                           ;        materials provided with the distribution.
    90                           ; 
    91                           ;     3. Microchip's name may not be used to endorse or promote products derived from th
      +                          is
    92                           ;        software without specific prior written permission.
    93                           ; 
    94                           ; THIS SOFTWARE IS PROVIDED BY MICROCHIP "AS IS" AND ANY EXPRESS OR IMPLIED WARRANTIES,
    95                           ; INCLUDING, BUT NOT LIMITED TO, THE IMPLIED WARRANTIES OF MERCHANTABILITY AND FITNESS F
      +                          OR
    96                           ; PURPOSE ARE DISCLAIMED.  IN NO EVENT SHALL MICROCHIP BE LIABLE FOR ANY DIRECT, INDIREC
      +                          T,
    97                           ; INCIDENTAL, SPECIAL, EXEMPLARY, OR CONSEQUENTIAL DAMAGES (INCLUDING BUT NOT LIMITED TO
    98                           ; PROCUREMENT OF SUBSTITUTE GOODS OR SERVICES; LOSS OF USE, DATA OR PROFITS; OR BUSINESS
    99                           ; INTERRUPTION) HOWSOEVER CAUSED AND ON ANY THEORY OF LIABILITY, WHETHER IN CONTRACT, ST
      +                          RICT
   100                           ; LIABILITY, OR TORT (INCLUDING NEGLIGENCE OR OTHERWISE) ARISING IN ANY WAY OUT OF THE U
      +                          SE OF
   101                           ; THIS SOFTWARE, EVEN IF ADVISED OF THE POSSIBILITY OF SUCH DAMAGE.
   102                           ; 
   103                           ; 
   104                           ; Code-generator required, PIC18F4580 Definitions
   105                           ; 
   106                           ; SFR Addresses
   107   000000                     
   108                           	psect	idataCOMRAM
   109   002A6E                     __pidataCOMRAM:
   110                           	callstack 0
   111                           
   112                           ;initializer for _attempt
   113   002A6E  03                 	db	3
   114                           
   115                           ;initializer for read_switches@once
   116   002A6F  01                 	db	1
   117                           
   118                           ;initializer for _sec
   119   002A70  3C                 	db	60
   120                           
   121                           	psect	idataBANK0
   122   0028FC                     __pidataBANK0:
   123                           	callstack 0
   124                           
   125                           ;initializer for _signature
   126   0028FC  ED                 	db	low STR_1
   127   0028FD  2F                 	db	high STR_1
   128   0028FE  EA                 	db	low STR_2
   129   0028FF  2F                 	db	high STR_2
   130   002900  D5                 	db	low STR_3
   131   002901  2F                 	db	high STR_3
   132   002902  D8                 	db	low STR_4
   133   002903  2F                 	db	high STR_4
   134   002904  DB                 	db	low STR_5
   135   002905  2F                 	db	high STR_5
   136   002906  DE                 	db	low STR_6
   137   002907  2F                 	db	high STR_6
   138   002908  F6                 	db	low STR_7
   139   002909  2F                 	db	high STR_7
   140   00290A  D2                 	db	low STR_8
   141   00290B  2F                 	db	high STR_8
   142                           
   143                           ;initializer for _menu_eve
   144   00290C  E7                 	db	low STR_14
   145   00290D  2F                 	db	high STR_14
   146   00290E  F9                 	db	low STR_15
   147   00290F  2F                 	db	high STR_15
   148   002910  E4                 	db	low STR_16
   149   002911  2F                 	db	high STR_16
   150   002912  E1                 	db	low STR_17
   151   002913  2F                 	db	high STR_17
   152   002914  F0                 	db	low STR_18
   153   002915  2F                 	db	high STR_18
   154                           
   155                           ;initializer for _menu_opt
   156   002916  86                 	db	low STR_9
   157   002917  2F                 	db	high STR_9
   158   002918  78                 	db	low STR_10
   159   002919  2F                 	db	high STR_10
   160   00291A  B0                 	db	low STR_11
   161   00291B  2F                 	db	high STR_11
   162   00291C  94                 	db	low STR_12
   163   00291D  2F                 	db	high STR_12
   164   00291E  A2                 	db	low STR_13
   165   00291F  2F                 	db	high STR_13
   166                           
   167                           ;initializer for _password
   168   002920  31                 	db	49
   169   002921  30                 	db	48
   170   002922  31                 	db	49
   171   002923  30                 	db	48
   172   000000                     _RCREG	set	4014
   173   000000                     _TXREG	set	4013
   174   000000                     _SPBRG	set	4015
   175   000000                     _SSPADD	set	4040
   176   000000                     _SSPCON1	set	4038
   177   000000                     _ADRESH	set	4036
   178   000000                     _ADRESL	set	4035
   179   000000                     _ABDOVF	set	32199
   180   000000                     _ACKSTAT	set	32302
   181   000000                     _CKE	set	32318
   182   000000                     _ADCON0	set	4034
   183   000000                     _TRISD	set	3989
   184   000000                     _RCIF	set	31989
   185   000000                     _RCIE	set	31981
   186   000000                     _TXIF	set	31988
   187   000000                     _ABDEN	set	32192
   188   000000                     _WUE	set	32193
   189   000000                     _BRG16	set	32195
   190   000000                     _SCKP	set	32196
   191   000000                     _RCIDL	set	32198
   192   000000                     _OERR	set	32089
   193   000000                     _FERR	set	32090
   194   000000                     _ADDEN	set	32091
   195   000000                     _CREN	set	32092
   196   000000                     _SREN	set	32093
   197   000000                     _RX9	set	32094
   198   000000                     _TRMT	set	32097
   199   000000                     _BRGH	set	32098
   200   000000                     _SENDB	set	32099
   201   000000                     _SYNC	set	32100
   202   000000                     _TXEN	set	32101
   203   000000                     _TX9	set	32102
   204   000000                     _TRISC6	set	31910
   205   000000                     _TRISC7	set	31911
   206   000000                     _ACKEN	set	32300
   207   000000                     _ACKDT	set	32301
   208   000000                     _RCEN	set	32299
   209   000000                     _RSEN	set	32297
   210   000000                     _PEN	set	32298
   211   000000                     _SEN	set	32296
   212   000000                     _SMP	set	32319
   213   000000                     _TRISC4	set	31908
   214   000000                     _TRISC3	set	31907
   215   000000                     _PSA	set	32427
   216   000000                     _T0CS	set	32429
   217   000000                     _T08BIT	set	32430
   218   000000                     _GO	set	32273
   219   000000                     _ADFM	set	32263
   220   000000                     _ADCS0	set	32256
   221   000000                     _ADCS1	set	32257
   222   000000                     _ADCS2	set	32258
   223   000000                     _ACQT0	set	32259
   224   000000                     _ACQT1	set	32260
   225   000000                     _PCFG0	set	32264
   226   000000                     _PCFG1	set	32265
   227   000000                     _PCFG2	set	32266
   228   000000                     _PCFG3	set	32267
   229   000000                     _VCFG0	set	32268
   230   000000                     _TMR0IF	set	32658
   231   000000                     _TMR0IE	set	32661
   232   000000                     _PEIE	set	32662
   233   000000                     _RB4	set	31756
   234   000000                     _RB3	set	31755
   235   000000                     _RB2	set	31754
   236   000000                     _RB1	set	31753
   237   000000                     _RB7	set	31759
   238   000000                     _RB6	set	31758
   239   000000                     _RD7	set	31775
   240   000000                     _RC0	set	31760
   241   000000                     _RC2	set	31762
   242   000000                     _RB5	set	31757
   243   000000                     _RC1	set	31761
   244   000000                     _TRISB	set	3987
   245   000000                     _TRISC	set	3988
   246   000000                     _PORTD	set	3971
   247   000000                     _TRISD7	set	31919
   248   000000                     _TXIE	set	31980
   249   000000                     _SSPIF	set	31987
   250   000000                     _ACQT2	set	32261
   251   000000                     _VCFG1	set	32269
   252   000000                     _ADON	set	32272
   253   000000                     _TMR0ON	set	32431
   254   000000                     _RBPU	set	32655
   255   000000                     _GIE	set	32663
   256   000000                     _TMR0	set	4054
   257   000000                     _SSPBUF	set	4041
   258   000000                     _BCLIF	set	32011
   259   000000                     _SPEN	set	32095
   260   000000                     _CSRC	set	32103
   261                           
   262                           	psect	mediumconst
   263   002E12                     __pmediumconst:
   264                           	callstack 0
   265   002E12  00                 	db	0
   266   002E13                     STR_71:
   267   002E13  23                 	db	35
   268   002E14  20                 	db	32
   269   002E15  20                 	db	32
   270   002E16  20                 	db	32
   271   002E17  54                 	db	84	;'T'
   272   002E18  49                 	db	73	;'I'
   273   002E19  4D                 	db	77	;'M'
   274   002E1A  45                 	db	69	;'E'
   275   002E1B  20                 	db	32
   276   002E1C  20                 	db	32
   277   002E1D  20                 	db	32
   278   002E1E  45                 	db	69	;'E'
   279   002E1F  56                 	db	86	;'V'
   280   002E20  20                 	db	32
   281   002E21  53                 	db	83	;'S'
   282   002E22  50                 	db	80	;'P'
   283   002E23  0A                 	db	10
   284   002E24  0D                 	db	13
   285   002E25  00                 	db	0
   286   002E26                     STR_64:
   287   002E26  4C                 	db	76	;'L'
   288   002E27  6F                 	db	111	;'o'
   289   002E28  67                 	db	103	;'g'
   290   002E29  73                 	db	115	;'s'
   291   002E2A  20                 	db	32
   292   002E2B  3A                 	db	58	;':'
   293   002E2C  2D                 	db	45
   294   002E2D  20                 	db	32
   295   002E2E  20                 	db	32
   296   002E2F  20                 	db	32
   297   002E30  20                 	db	32
   298   002E31  20                 	db	32
   299   002E32  20                 	db	32
   300   002E33  20                 	db	32
   301   002E34  20                 	db	32
   302   002E35  20                 	db	32
   303   002E36  00                 	db	0
   304   002E37                     STR_95:
   305   002E37  20                 	db	32
   306   002E38  20                 	db	32
   307   002E39  20                 	db	32
   308   002E3A  20                 	db	32
   309   002E3B  20                 	db	32
   310   002E3C  43                 	db	67	;'C'
   311   002E3D  68                 	db	104	;'h'
   312   002E3E  61                 	db	97	;'a'
   313   002E3F  6E                 	db	110	;'n'
   314   002E40  67                 	db	103	;'g'
   315   002E41  65                 	db	101	;'e'
   316   002E42  64                 	db	100	;'d'
   317   002E43  20                 	db	32
   318   002E44  20                 	db	32
   319   002E45  20                 	db	32
   320   002E46  20                 	db	32
   321   002E47  00                 	db	0
   322   002E48                     STR_65:
   323   002E48  20                 	db	32
   324   002E49  20                 	db	32
   325   002E4A  20                 	db	32
   326   002E4B  20                 	db	32
   327   002E4C  53                 	db	83	;'S'
   328   002E4D  65                 	db	101	;'e'
   329   002E4E  74                 	db	116	;'t'
   330   002E4F  20                 	db	32
   331   002E50  54                 	db	84	;'T'
   332   002E51  69                 	db	105	;'i'
   333   002E52  6D                 	db	109	;'m'
   334   002E53  65                 	db	101	;'e'
   335   002E54  20                 	db	32
   336   002E55  20                 	db	32
   337   002E56  20                 	db	32
   338   002E57  20                 	db	32
   339   002E58  00                 	db	0
   340   002E59                     STR_70:
   341   002E59  44                 	db	68	;'D'
   342   002E5A  6F                 	db	111	;'o'
   343   002E5B  77                 	db	119	;'w'
   344   002E5C  6E                 	db	110	;'n'
   345   002E5D  6C                 	db	108	;'l'
   346   002E5E  6F                 	db	111	;'o'
   347   002E5F  61                 	db	97	;'a'
   348   002E60  64                 	db	100	;'d'
   349   002E61  69                 	db	105	;'i'
   350   002E62  6E                 	db	110	;'n'
   351   002E63  67                 	db	103	;'g'
   352   002E64  2E                 	db	46
   353   002E65  2E                 	db	46
   354   002E66  2E                 	db	46
   355   002E67  20                 	db	32
   356   002E68  20                 	db	32
   357   002E69  00                 	db	0
   358   002E6A                     STR_73:
   359   002E6A  20                 	db	32
   360   002E6B  20                 	db	32
   361   002E6C  4C                 	db	76	;'L'
   362   002E6D  6F                 	db	111	;'o'
   363   002E6E  67                 	db	103	;'g'
   364   002E6F  73                 	db	115	;'s'
   365   002E70  20                 	db	32
   366   002E71  63                 	db	99	;'c'
   367   002E72  6C                 	db	108	;'l'
   368   002E73  65                 	db	101	;'e'
   369   002E74  61                 	db	97	;'a'
   370   002E75  72                 	db	114	;'r'
   371   002E76  65                 	db	101	;'e'
   372   002E77  64                 	db	100	;'d'
   373   002E78  20                 	db	32
   374   002E79  20                 	db	32
   375   002E7A  00                 	db	0
   376   002E7B                     STR_69:
   377   002E7B  20                 	db	32
   378   002E7C  20                 	db	32
   379   002E7D  54                 	db	84	;'T'
   380   002E7E  69                 	db	105	;'i'
   381   002E7F  6D                 	db	109	;'m'
   382   002E80  65                 	db	101	;'e'
   383   002E81  20                 	db	32
   384   002E82  75                 	db	117	;'u'
   385   002E83  70                 	db	112	;'p'
   386   002E84  64                 	db	100	;'d'
   387   002E85  61                 	db	97	;'a'
   388   002E86  74                 	db	116	;'t'
   389   002E87  65                 	db	101	;'e'
   390   002E88  64                 	db	100	;'d'
   391   002E89  20                 	db	32
   392   002E8A  20                 	db	32
   393   002E8B  00                 	db	0
   394   002E8C                     STR_83:
   395   002E8C  20                 	db	32
   396   002E8D  20                 	db	32
   397   002E8E  4E                 	db	78	;'N'
   398   002E8F  65                 	db	101	;'e'
   399   002E90  77                 	db	119	;'w'
   400   002E91  20                 	db	32
   401   002E92  50                 	db	80	;'P'
   402   002E93  61                 	db	97	;'a'
   403   002E94  73                 	db	115	;'s'
   404   002E95  73                 	db	115	;'s'
   405   002E96  77                 	db	119	;'w'
   406   002E97  6F                 	db	111	;'o'
   407   002E98  72                 	db	114	;'r'
   408   002E99  64                 	db	100	;'d'
   409   002E9A  20                 	db	32
   410   002E9B  20                 	db	32
   411   002E9C  00                 	db	0
   412   002E9D                     STR_50:
   413   002E9D  20                 	db	32
   414   002E9E  41                 	db	65	;'A'
   415   002E9F  74                 	db	116	;'t'
   416   002EA0  74                 	db	116	;'t'
   417   002EA1  65                 	db	101	;'e'
   418   002EA2  6D                 	db	109	;'m'
   419   002EA3  70                 	db	112	;'p'
   420   002EA4  74                 	db	116	;'t'
   421   002EA5  73                 	db	115	;'s'
   422   002EA6  20                 	db	32
   423   002EA7  6F                 	db	111	;'o'
   424   002EA8  76                 	db	118	;'v'
   425   002EA9  65                 	db	101	;'e'
   426   002EAA  72                 	db	114	;'r'
   427   002EAB  20                 	db	32
   428   002EAC  20                 	db	32
   429   002EAD  00                 	db	0
   430   002EAE                     STR_94:
   431   002EAE  20                 	db	32
   432   002EAF  20                 	db	32
   433   002EB0  50                 	db	80	;'P'
   434   002EB1  61                 	db	97	;'a'
   435   002EB2  73                 	db	115	;'s'
   436   002EB3  73                 	db	115	;'s'
   437   002EB4  77                 	db	119	;'w'
   438   002EB5  6F                 	db	111	;'o'
   439   002EB6  72                 	db	114	;'r'
   440   002EB7  64                 	db	100	;'d'
   441   002EB8  20                 	db	32
   442   002EB9  4E                 	db	78	;'N'
   443   002EBA  6F                 	db	111	;'o'
   444   002EBB  74                 	db	116	;'t'
   445   002EBC  20                 	db	32
   446   002EBD  20                 	db	32
   447   002EBE  00                 	db	0
   448   002EBF                     STR_89:
   449   002EBF  20                 	db	32
   450   002EC0  20                 	db	32
   451   002EC1  53                 	db	83	;'S'
   452   002EC2  75                 	db	117	;'u'
   453   002EC3  63                 	db	99	;'c'
   454   002EC4  63                 	db	99	;'c'
   455   002EC5  65                 	db	101	;'e'
   456   002EC6  73                 	db	115	;'s'
   457   002EC7  73                 	db	115	;'s'
   458   002EC8  66                 	db	102	;'f'
   459   002EC9  75                 	db	117	;'u'
   460   002ECA  6C                 	db	108	;'l'
   461   002ECB  6C                 	db	108	;'l'
   462   002ECC  79                 	db	121	;'y'
   463   002ECD  20                 	db	32
   464   002ECE  20                 	db	32
   465   002ECF  00                 	db	0
   466   002ED0                     STR_55:
   467   002ED0  20                 	db	32
   468   002ED1  45                 	db	69	;'E'
   469   002ED2  6E                 	db	110	;'n'
   470   002ED3  74                 	db	116	;'t'
   471   002ED4  65                 	db	101	;'e'
   472   002ED5  72                 	db	114	;'r'
   473   002ED6  65                 	db	101	;'e'
   474   002ED7  64                 	db	100	;'d'
   475   002ED8  20                 	db	32
   476   002ED9  69                 	db	105	;'i'
   477   002EDA  6E                 	db	110	;'n'
   478   002EDB  74                 	db	116	;'t'
   479   002EDC  6F                 	db	111	;'o'
   480   002EDD  20                 	db	32
   481   002EDE  3A                 	db	58	;':'
   482   002EDF  20                 	db	32
   483   002EE0  00                 	db	0
   484   002EE1                     STR_47:
   485   002EE1  20                 	db	32
   486   002EE2  57                 	db	87	;'W'
   487   002EE3  72                 	db	114	;'r'
   488   002EE4  6F                 	db	111	;'o'
   489   002EE5  6E                 	db	110	;'n'
   490   002EE6  67                 	db	103	;'g'
   491   002EE7  20                 	db	32
   492   002EE8  50                 	db	80	;'P'
   493   002EE9  61                 	db	97	;'a'
   494   002EEA  73                 	db	115	;'s'
   495   002EEB  73                 	db	115	;'s'
   496   002EEC  77                 	db	119	;'w'
   497   002EED  6F                 	db	111	;'o'
   498   002EEE  72                 	db	114	;'r'
   499   002EEF  64                 	db	100	;'d'
   500   002EF0  20                 	db	32
   501   002EF1  00                 	db	0
   502   002EF2                     STR_41:
   503   002EF2  20                 	db	32
   504   002EF3  45                 	db	69	;'E'
   505   002EF4  6E                 	db	110	;'n'
   506   002EF5  74                 	db	116	;'t'
   507   002EF6  65                 	db	101	;'e'
   508   002EF7  72                 	db	114	;'r'
   509   002EF8  20                 	db	32
   510   002EF9  50                 	db	80	;'P'
   511   002EFA  61                 	db	97	;'a'
   512   002EFB  73                 	db	115	;'s'
   513   002EFC  73                 	db	115	;'s'
   514   002EFD  77                 	db	119	;'w'
   515   002EFE  6F                 	db	111	;'o'
   516   002EFF  72                 	db	114	;'r'
   517   002F00  64                 	db	100	;'d'
   518   002F01  20                 	db	32
   519   002F02  00                 	db	0
   520   002F03                     STR_88:
   521   002F03  50                 	db	80	;'P'
   522   002F04  61                 	db	97	;'a'
   523   002F05  73                 	db	115	;'s'
   524   002F06  73                 	db	115	;'s'
   525   002F07  77                 	db	119	;'w'
   526   002F08  6F                 	db	111	;'o'
   527   002F09  72                 	db	114	;'r'
   528   002F0A  64                 	db	100	;'d'
   529   002F0B  20                 	db	32
   530   002F0C  63                 	db	99	;'c'
   531   002F0D  68                 	db	104	;'h'
   532   002F0E  61                 	db	97	;'a'
   533   002F0F  6E                 	db	110	;'n'
   534   002F10  67                 	db	103	;'g'
   535   002F11  65                 	db	101	;'e'
   536   002F12  64                 	db	100	;'d'
   537   002F13  00                 	db	0
   538   002F14                     STR_77:
   539   002F14  50                 	db	80	;'P'
   540   002F15  61                 	db	97	;'a'
   541   002F16  73                 	db	115	;'s'
   542   002F17  73                 	db	115	;'s'
   543   002F18  77                 	db	119	;'w'
   544   002F19  6F                 	db	111	;'o'
   545   002F1A  72                 	db	114	;'r'
   546   002F1B  64                 	db	100	;'d'
   547   002F1C  20                 	db	32
   548   002F1D  4D                 	db	77	;'M'
   549   002F1E  61                 	db	97	;'a'
   550   002F1F  74                 	db	116	;'t'
   551   002F20  63                 	db	99	;'c'
   552   002F21  68                 	db	104	;'h'
   553   002F22  65                 	db	101	;'e'
   554   002F23  64                 	db	100	;'d'
   555   002F24  00                 	db	0
   556   002F25                     STR_85:
   557   002F25  43                 	db	67	;'C'
   558   002F26  6F                 	db	111	;'o'
   559   002F27  6E                 	db	110	;'n'
   560   002F28  66                 	db	102	;'f'
   561   002F29  69                 	db	105	;'i'
   562   002F2A  72                 	db	114	;'r'
   563   002F2B  6D                 	db	109	;'m'
   564   002F2C  20                 	db	32
   565   002F2D  50                 	db	80	;'P'
   566   002F2E  61                 	db	97	;'a'
   567   002F2F  73                 	db	115	;'s'
   568   002F30  73                 	db	115	;'s'
   569   002F31  77                 	db	119	;'w'
   570   002F32  6F                 	db	111	;'o'
   571   002F33  72                 	db	114	;'r'
   572   002F34  64                 	db	100	;'d'
   573   002F35  00                 	db	0
   574   002F36                     STR_76:
   575   002F36  43                 	db	67	;'C'
   576   002F37  75                 	db	117	;'u'
   577   002F38  72                 	db	114	;'r'
   578   002F39  72                 	db	114	;'r'
   579   002F3A  65                 	db	101	;'e'
   580   002F3B  6E                 	db	110	;'n'
   581   002F3C  74                 	db	116	;'t'
   582   002F3D  20                 	db	32
   583   002F3E  50                 	db	80	;'P'
   584   002F3F  61                 	db	97	;'a'
   585   002F40  73                 	db	115	;'s'
   586   002F41  73                 	db	115	;'s'
   587   002F42  77                 	db	119	;'w'
   588   002F43  6F                 	db	111	;'o'
   589   002F44  72                 	db	114	;'r'
   590   002F45  64                 	db	100	;'d'
   591   002F46  00                 	db	0
   592   002F47                     STR_44:
   593   002F47  43                 	db	67	;'C'
   594   002F48  6F                 	db	111	;'o'
   595   002F49  72                 	db	114	;'r'
   596   002F4A  72                 	db	114	;'r'
   597   002F4B  65                 	db	101	;'e'
   598   002F4C  63                 	db	99	;'c'
   599   002F4D  74                 	db	116	;'t'
   600   002F4E  20                 	db	32
   601   002F4F  70                 	db	112	;'p'
   602   002F50  61                 	db	97	;'a'
   603   002F51  73                 	db	115	;'s'
   604   002F52  73                 	db	115	;'s'
   605   002F53  77                 	db	119	;'w'
   606   002F54  6F                 	db	111	;'o'
   607   002F55  72                 	db	114	;'r'
   608   002F56  64                 	db	100	;'d'
   609   002F57  00                 	db	0
   610   002F58                     STR_19:
   611   002F58  20                 	db	32
   612   002F59  20                 	db	32
   613   002F5A  20                 	db	32
   614   002F5B  20                 	db	32
   615   002F5C  20                 	db	32
   616   002F5D  20                 	db	32
   617   002F5E  20                 	db	32
   618   002F5F  20                 	db	32
   619   002F60  20                 	db	32
   620   002F61  20                 	db	32
   621   002F62  20                 	db	32
   622   002F63  20                 	db	32
   623   002F64  20                 	db	32
   624   002F65  20                 	db	32
   625   002F66  20                 	db	32
   626   002F67  20                 	db	32
   627   002F68  00                 	db	0
   628   002F69                     STR_48:
   629   002F69  20                 	db	32
   630   002F6A  2D                 	db	45
   631   002F6B  3E                 	db	62	;'>'
   632   002F6C  20                 	db	32
   633   002F6D  61                 	db	97	;'a'
   634   002F6E  74                 	db	116	;'t'
   635   002F6F  74                 	db	116	;'t'
   636   002F70  65                 	db	101	;'e'
   637   002F71  6D                 	db	109	;'m'
   638   002F72  70                 	db	112	;'p'
   639   002F73  74                 	db	116	;'t'
   640   002F74  73                 	db	115	;'s'
   641   002F75  20                 	db	32
   642   002F76  20                 	db	32
   643   002F77  00                 	db	0
   644   002F78                     STR_10:
   645   002F78  53                 	db	83	;'S'
   646   002F79  65                 	db	101	;'e'
   647   002F7A  74                 	db	116	;'t'
   648   002F7B  20                 	db	32
   649   002F7C  74                 	db	116	;'t'
   650   002F7D  69                 	db	105	;'i'
   651   002F7E  6D                 	db	109	;'m'
   652   002F7F  65                 	db	101	;'e'
   653   002F80  20                 	db	32
   654   002F81  20                 	db	32
   655   002F82  20                 	db	32
   656   002F83  20                 	db	32
   657   002F84  20                 	db	32
   658   002F85  00                 	db	0
   659   002F86                     STR_9:
   660   002F86  56                 	db	86	;'V'
   661   002F87  69                 	db	105	;'i'
   662   002F88  65                 	db	101	;'e'
   663   002F89  77                 	db	119	;'w'
   664   002F8A  20                 	db	32
   665   002F8B  6C                 	db	108	;'l'
   666   002F8C  6F                 	db	111	;'o'
   667   002F8D  67                 	db	103	;'g'
   668   002F8E  20                 	db	32
   669   002F8F  20                 	db	32
   670   002F90  20                 	db	32
   671   002F91  20                 	db	32
   672   002F92  20                 	db	32
   673   002F93  00                 	db	0
   674   002F94                     STR_12:
   675   002F94  43                 	db	67	;'C'
   676   002F95  6C                 	db	108	;'l'
   677   002F96  65                 	db	101	;'e'
   678   002F97  61                 	db	97	;'a'
   679   002F98  72                 	db	114	;'r'
   680   002F99  20                 	db	32
   681   002F9A  6C                 	db	108	;'l'
   682   002F9B  6F                 	db	111	;'o'
   683   002F9C  67                 	db	103	;'g'
   684   002F9D  20                 	db	32
   685   002F9E  20                 	db	32
   686   002F9F  20                 	db	32
   687   002FA0  20                 	db	32
   688   002FA1  00                 	db	0
   689   002FA2                     STR_13:
   690   002FA2  43                 	db	67	;'C'
   691   002FA3  68                 	db	104	;'h'
   692   002FA4  61                 	db	97	;'a'
   693   002FA5  6E                 	db	110	;'n'
   694   002FA6  67                 	db	103	;'g'
   695   002FA7  65                 	db	101	;'e'
   696   002FA8  20                 	db	32
   697   002FA9  70                 	db	112	;'p'
   698   002FAA  61                 	db	97	;'a'
   699   002FAB  73                 	db	115	;'s'
   700   002FAC  73                 	db	115	;'s'
   701   002FAD  20                 	db	32
   702   002FAE  20                 	db	32
   703   002FAF  00                 	db	0
   704   002FB0                     STR_11:
   705   002FB0  44                 	db	68	;'D'
   706   002FB1  6F                 	db	111	;'o'
   707   002FB2  77                 	db	119	;'w'
   708   002FB3  6E                 	db	110	;'n'
   709   002FB4  6C                 	db	108	;'l'
   710   002FB5  6F                 	db	111	;'o'
   711   002FB6  61                 	db	97	;'a'
   712   002FB7  64                 	db	100	;'d'
   713   002FB8  20                 	db	32
   714   002FB9  6C                 	db	108	;'l'
   715   002FBA  6F                 	db	111	;'o'
   716   002FBB  67                 	db	103	;'g'
   717   002FBC  20                 	db	32
   718   002FBD  00                 	db	0
   719   002FBE                     STR_51:
   720   002FBE  20                 	db	32
   721   002FBF  57                 	db	87	;'W'
   722   002FC0  61                 	db	97	;'a'
   723   002FC1  69                 	db	105	;'i'
   724   002FC2  74                 	db	116	;'t'
   725   002FC3  20                 	db	32
   726   002FC4  66                 	db	102	;'f'
   727   002FC5  6F                 	db	111	;'o'
   728   002FC6  72                 	db	114	;'r'
   729   002FC7  20                 	db	32
   730   002FC8  00                 	db	0
   731   002FC9                     STR_20:
   732   002FC9  54                 	db	84	;'T'
   733   002FCA  49                 	db	73	;'I'
   734   002FCB  4D                 	db	77	;'M'
   735   002FCC  45                 	db	69	;'E'
   736   002FCD  00                 	db	0
   737   002FCE                     STR_52:
   738   002FCE  73                 	db	115	;'s'
   739   002FCF  65                 	db	101	;'e'
   740   002FD0  63                 	db	99	;'c'
   741   002FD1  00                 	db	0
   742   002FD2                     STR_8:
   743   002FD2  43                 	db	67	;'C'
   744   002FD3  20                 	db	32
   745   002FD4  00                 	db	0
   746   002FD5                     STR_3:
   747   002FD5  47                 	db	71	;'G'
   748   002FD6  31                 	db	49	;'1'
   749   002FD7  00                 	db	0
   750   002FD8                     STR_4:
   751   002FD8  47                 	db	71	;'G'
   752   002FD9  32                 	db	50	;'2'
   753   002FDA  00                 	db	0
   754   002FDB                     STR_5:
   755   002FDB  47                 	db	71	;'G'
   756   002FDC  33                 	db	51	;'3'
   757   002FDD  00                 	db	0
   758   002FDE                     STR_6:
   759   002FDE  47                 	db	71	;'G'
   760   002FDF  34                 	db	52	;'4'
   761   002FE0  00                 	db	0
   762   002FE1                     STR_17:
   763   002FE1  43                 	db	67	;'C'
   764   002FE2  4C                 	db	76	;'L'
   765   002FE3  00                 	db	0
   766   002FE4                     STR_16:
   767   002FE4  44                 	db	68	;'D'
   768   002FE5  4C                 	db	76	;'L'
   769   002FE6  00                 	db	0
   770   002FE7                     STR_14:
   771   002FE7  56                 	db	86	;'V'
   772   002FE8  4C                 	db	76	;'L'
   773   002FE9  00                 	db	0
   774   002FEA                     STR_2:
   775   002FEA  47                 	db	71	;'G'
   776   002FEB  4E                 	db	78	;'N'
   777   002FEC  00                 	db	0
   778   002FED                     STR_1:
   779   002FED  4F                 	db	79	;'O'
   780   002FEE  4E                 	db	78	;'N'
   781   002FEF  00                 	db	0
   782   002FF0                     STR_18:
   783   002FF0  43                 	db	67	;'C'
   784   002FF1  50                 	db	80	;'P'
   785   002FF2  00                 	db	0
   786   002FF3                     STR_22:
   787   002FF3  53                 	db	83	;'S'
   788   002FF4  50                 	db	80	;'P'
   789   002FF5  00                 	db	0
   790   002FF6                     STR_7:
   791   002FF6  47                 	db	71	;'G'
   792   002FF7  52                 	db	82	;'R'
   793   002FF8  00                 	db	0
   794   002FF9                     STR_15:
   795   002FF9  53                 	db	83	;'S'
   796   002FFA  54                 	db	84	;'T'
   797   002FFB  00                 	db	0
   798   002FFC                     STR_21:
   799   002FFC  45                 	db	69	;'E'
   800   002FFD  56                 	db	86	;'V'
   801   002FFE  00                 	db	0
   802   002FFF  00                 	db	0	; dummy byte at the end
   803   000000                     
   804                           ; #config settings
   805                           
   806                           	psect	cinit
   807   0025D4                     __pcinit:
   808                           	callstack 0
   809   0025D4                     start_initialization:
   810                           	callstack 0
   811   0025D4                     __initialization:
   812                           	callstack 0
   813                           
   814                           ; Initialize objects allocated to BANK0 (40 bytes)
   815                           ; load TBLPTR registers with __pidataBANK0
   816   0025D4  0EFC               	movlw	low __pidataBANK0
   817   0025D6  6EF6               	movwf	tblptrl,c
   818   0025D8  0E28               	movlw	high __pidataBANK0
   819   0025DA  6EF7               	movwf	tblptrh,c
   820   0025DC  0E00               	movlw	low (__pidataBANK0 shr (0+16))
   821   0025DE  6EF8               	movwf	tblptru,c
   822   0025E0  EE00  F08F         	lfsr	0,__pdataBANK0
   823   0025E4  EE10 F028          	lfsr	1,40
   824   0025E8                     copy_data0:
   825   0025E8  0009               	tblrd		*+
   826   0025EA  CFF5 FFEE          	movff	tablat,postinc0
   827   0025EE  50E5               	movf	postdec1,w,c
   828   0025F0  50E1               	movf	fsr1l,w,c
   829   0025F2  E1FA               	bnz	copy_data0
   830                           
   831                           ; Initialize objects allocated to COMRAM (3 bytes)
   832                           ; load TBLPTR registers with __pidataCOMRAM
   833   0025F4  0E6E               	movlw	low __pidataCOMRAM
   834   0025F6  6EF6               	movwf	tblptrl,c
   835   0025F8  0E2A               	movlw	high __pidataCOMRAM
   836   0025FA  6EF7               	movwf	tblptrh,c
   837   0025FC  0E00               	movlw	low (__pidataCOMRAM shr (0+16))
   838   0025FE  6EF8               	movwf	tblptru,c
   839   002600  0009               	tblrd		*+	;fetch initializer
   840   002602  CFF5 F05C          	movff	tablat,__pdataCOMRAM
   841   002606  0009               	tblrd		*+	;fetch initializer
   842   002608  CFF5 F05D          	movff	tablat,__pdataCOMRAM+1
   843   00260C  0009               	tblrd		*+	;fetch initializer
   844   00260E  CFF5 F05E          	movff	tablat,__pdataCOMRAM+2
   845                           
   846                           ; Clear objects allocated to BANK0 (47 bytes)
   847   002612  EE00  F060         	lfsr	0,__pbssBANK0
   848   002616  0E2F               	movlw	47
   849   002618                     clear_0:
   850   002618  6AEE               	clrf	postinc0,c
   851   00261A  06E8               	decf	wreg,f,c
   852   00261C  E1FD               	bnz	clear_0
   853                           
   854                           ; Clear objects allocated to COMRAM (28 bytes)
   855   00261E  EE00  F040         	lfsr	0,__pbssCOMRAM
   856   002622  0E1C               	movlw	28
   857   002624                     clear_1:
   858   002624  6AEE               	clrf	postinc0,c
   859   002626  06E8               	decf	wreg,f,c
   860   002628  E1FD               	bnz	clear_1
   861   00262A                     end_of_initialization:
   862                           	callstack 0
   863   00262A                     __end_of__initialization:
   864                           	callstack 0
   865   00262A  905F               	bcf	int$flags,0,c	;clear compiler interrupt flag (level 1)
   866   00262C  925F               	bcf	int$flags,1,c	;clear compiler interrupt flag (level 2)
   867   00262E  0E00               	movlw	low (__Lmediumconst shr (0+16))
   868   002630  6EF8               	movwf	tblptru,c
   869   002632  0100               	movlb	0
   870   002634  EFFA  F00A         	goto	_main	;jump to C main() function
   871                           
   872                           	psect	bssCOMRAM
   873   000040                     __pbssCOMRAM:
   874                           	callstack 0
   875   000040                     _clock_reg:
   876                           	callstack 0
   877   000040                     	ds	3
   878   000043                     _wait:
   879                           	callstack 0
   880   000043                     	ds	2
   881   000045                     _time_flag:
   882                           	callstack 0
   883   000045                     	ds	1
   884   000046                     _index:
   885                           	callstack 0
   886   000046                     	ds	1
   887   000047                     _log_index:
   888                           	callstack 0
   889   000047                     	ds	1
   890   000048                     _option:
   891                           	callstack 0
   892   000048                     	ds	1
   893   000049                     _mode:
   894                           	callstack 0
   895   000049                     	ds	1
   896   00004A                     _pre_key_1:
   897                           	callstack 0
   898   00004A                     	ds	1
   899   00004B                     _prekey:
   900                           	callstack 0
   901   00004B                     	ds	1
   902   00004C                     _star:
   903                           	callstack 0
   904   00004C                     	ds	1
   905   00004D                     _line:
   906                           	callstack 0
   907   00004D                     	ds	1
   908   00004E                     _ind_1:
   909                           	callstack 0
   910   00004E                     	ds	1
   911   00004F                     _confirm_password:
   912                           	callstack 0
   913   00004F                     	ds	1
   914   000050                     _new_password:
   915                           	callstack 0
   916   000050                     	ds	1
   917   000051                     _count:
   918                           	callstack 0
   919   000051                     	ds	1
   920   000052                     _ind:
   921                           	callstack 0
   922   000052                     	ds	1
   923   000053                     _repeated_event:
   924                           	callstack 0
   925   000053                     	ds	1
   926   000054                     _flag:
   927                           	callstack 0
   928   000054                     	ds	1
   929   000055                     _gear:
   930                           	callstack 0
   931   000055                     	ds	1
   932   000056                     read_switches@key:
   933                           	callstack 0
   934   000056                     	ds	1
   935   000057                     _total_events:
   936                           	callstack 0
   937   000057                     	ds	1
   938   000058                     _ev:
   939                           	callstack 0
   940   000058                     	ds	1
   941   000059                     _count_eve:
   942                           	callstack 0
   943   000059                     	ds	1
   944   00005A                     _pass_flag:
   945                           	callstack 0
   946   00005A                     	ds	1
   947   00005B                     _event_flag:
   948                           	callstack 0
   949   00005B                     	ds	1
   950                           
   951                           	psect	dataCOMRAM
   952   00005C                     __pdataCOMRAM:
   953                           	callstack 0
   954   00005C                     _attempt:
   955                           	callstack 0
   956   00005C                     	ds	1
   957   00005D                     read_switches@once:
   958                           	callstack 0
   959   00005D                     	ds	1
   960   00005E                     _sec:
   961                           	callstack 0
   962   00005E                     	ds	1
   963                           
   964                           	psect	bssBANK0
   965   000060                     __pbssBANK0:
   966                           	callstack 0
   967   000060                     _count_isr:
   968                           	callstack 0
   969   000060                     	ds	2
   970   000062                     _ind_2:
   971                           	callstack 0
   972   000062                     	ds	1
   973   000063                     _event:
   974                           	callstack 0
   975   000063                     	ds	16
   976   000073                     _data:
   977                           	callstack 0
   978   000073                     	ds	15
   979   000082                     _time:
   980                           	callstack 0
   981   000082                     	ds	9
   982   00008B                     _input_pass:
   983                           	callstack 0
   984   00008B                     	ds	4
   985                           
   986                           	psect	dataBANK0
   987   00008F                     __pdataBANK0:
   988                           	callstack 0
   989   00008F                     _signature:
   990                           	callstack 0
   991   00008F                     	ds	16
   992   00009F                     _menu_eve:
   993                           	callstack 0
   994   00009F                     	ds	10
   995   0000A9                     _menu_opt:
   996                           	callstack 0
   997   0000A9                     	ds	10
   998   0000B3                     _password:
   999                           	callstack 0
  1000   0000B3                     	ds	4
  1001                           
  1002                           	psect	cstackCOMRAM
  1003   000001                     __pcstackCOMRAM:
  1004                           	callstack 0
  1005   000001                     ?_read_adc:
  1006                           	callstack 0
  1007   000001                     ?___awmod:
  1008                           	callstack 0
  1009   000001                     ?___lwdiv:
  1010                           	callstack 0
  1011   000001                     ?___lwmod:
  1012                           	callstack 0
  1013   000001                     clcd_write@control_bit:
  1014                           	callstack 0
  1015   000001                     read_switches@detection:
  1016                           	callstack 0
  1017   000001                     i2c_write@data:
  1018                           	callstack 0
  1019   000001                     putch@data:
  1020                           	callstack 0
  1021   000001                     ___awmod@dividend:
  1022                           	callstack 0
  1023   000001                     ___lwdiv@dividend:
  1024                           	callstack 0
  1025   000001                     ___lwmod@dividend:
  1026                           	callstack 0
  1027                           
  1028                           ; 2 bytes @ 0x0
  1029   000001                     	ds	1
  1030   000002                     clcd_write@byte:
  1031                           	callstack 0
  1032   000002                     write_ds1307@data:
  1033                           	callstack 0
  1034   000002                     read_ds1307@address:
  1035                           	callstack 0
  1036   000002                     write_ext_eeprom@data:
  1037                           	callstack 0
  1038   000002                     read_ext_eeprom@address:
  1039                           	callstack 0
  1040   000002                     puts@data:
  1041                           	callstack 0
  1042                           
  1043                           ; 2 bytes @ 0x1
  1044   000002                     	ds	1
  1045   000003                     ??_init_clcd:
  1046   000003                     ??_read_adc:
  1047   000003                     ??_write_ext_eeprom:
  1048   000003                     write_ds1307@address:
  1049                           	callstack 0
  1050   000003                     read_ds1307@data:
  1051                           	callstack 0
  1052   000003                     read_ext_eeprom@data:
  1053                           	callstack 0
  1054   000003                     clcd_print@data:
  1055                           	callstack 0
  1056   000003                     ___awmod@divisor:
  1057                           	callstack 0
  1058   000003                     ___lwdiv@divisor:
  1059                           	callstack 0
  1060   000003                     ___lwmod@divisor:
  1061                           	callstack 0
  1062                           
  1063                           ; 2 bytes @ 0x2
  1064   000003                     	ds	1
  1065   000004                     init_ds1307@dummy:
  1066                           	callstack 0
  1067   000004                     write_ext_eeprom@address:
  1068                           	callstack 0
  1069                           
  1070                           ; 1 bytes @ 0x3
  1071   000004                     	ds	1
  1072   000005                     clcd_print@addr:
  1073                           	callstack 0
  1074   000005                     ___awmod@counter:
  1075                           	callstack 0
  1076   000005                     ___lwmod@counter:
  1077                           	callstack 0
  1078   000005                     store_event@data:
  1079                           	callstack 0
  1080   000005                     ___lwdiv@quotient:
  1081                           	callstack 0
  1082                           
  1083                           ; 2 bytes @ 0x4
  1084   000005                     	ds	1
  1085   000006                     ??_set_time:
  1086   000006                     ___awmod@sign:
  1087                           	callstack 0
  1088                           
  1089                           ; 1 bytes @ 0x5
  1090   000006                     	ds	1
  1091   000007                     ?___wmul:
  1092                           	callstack 0
  1093   000007                     ?___awdiv:
  1094                           	callstack 0
  1095   000007                     store_event@address:
  1096                           	callstack 0
  1097   000007                     ___lwdiv@counter:
  1098                           	callstack 0
  1099   000007                     ___wmul@multiplier:
  1100                           	callstack 0
  1101   000007                     ___awdiv@dividend:
  1102                           	callstack 0
  1103                           
  1104                           ; 2 bytes @ 0x6
  1105   000007                     	ds	1
  1106   000008                     set_time@key:
  1107                           	callstack 0
  1108   000008                     read_adc@channel:
  1109                           	callstack 0
  1110   000008                     store_event@i:
  1111                           	callstack 0
  1112                           
  1113                           ; 1 bytes @ 0x7
  1114   000008                     	ds	1
  1115   000009                     ??_display_event:
  1116   000009                     ?___xxtofl:
  1117                           	callstack 0
  1118   000009                     ___wmul@multiplicand:
  1119                           	callstack 0
  1120   000009                     ___awdiv@divisor:
  1121                           	callstack 0
  1122   000009                     ___xxtofl@val:
  1123                           	callstack 0
  1124                           
  1125                           ; 4 bytes @ 0x8
  1126   000009                     	ds	2
  1127   00000B                     display_event@key:
  1128                           	callstack 0
  1129   00000B                     ___awdiv@counter:
  1130                           	callstack 0
  1131   00000B                     ___wmul@product:
  1132                           	callstack 0
  1133                           
  1134                           ; 2 bytes @ 0xA
  1135   00000B                     	ds	1
  1136   00000C                     ___awdiv@sign:
  1137                           	callstack 0
  1138                           
  1139                           ; 1 bytes @ 0xB
  1140   00000C                     	ds	1
  1141   00000D                     ??___xxtofl:
  1142   00000D                     read_event@address:
  1143                           	callstack 0
  1144   00000D                     ___awdiv@quotient:
  1145                           	callstack 0
  1146                           
  1147                           ; 2 bytes @ 0xC
  1148   00000D                     	ds	2
  1149   00000F                     clcd_putch@addr:
  1150                           	callstack 0
  1151   00000F                     read_event@data:
  1152                           	callstack 0
  1153                           
  1154                           ; 2 bytes @ 0xE
  1155   00000F                     	ds	1
  1156   000010                     clcd_putch@data:
  1157                           	callstack 0
  1158                           
  1159                           ; 1 bytes @ 0xF
  1160   000010                     	ds	1
  1161   000011                     ??_download_log:
  1162   000011                     ??_clear_log:
  1163   000011                     ??_read_event:
  1164   000011                     ___xxtofl@sign:
  1165                           	callstack 0
  1166   000011                     display_speed@speed:
  1167                           	callstack 0
  1168   000011                     store_password@pass:
  1169                           	callstack 0
  1170                           
  1171                           ; 2 bytes @ 0x10
  1172   000011                     	ds	1
  1173   000012                     ___xxtofl@exp:
  1174                           	callstack 0
  1175                           
  1176                           ; 1 bytes @ 0x11
  1177   000012                     	ds	1
  1178   000013                     ??_store_password:
  1179   000013                     download_log@i:
  1180                           	callstack 0
  1181   000013                     read_event@i:
  1182                           	callstack 0
  1183   000013                     ___xxtofl@arg:
  1184                           	callstack 0
  1185                           
  1186                           ; 4 bytes @ 0x12
  1187   000013                     	ds	1
  1188   000014                     ??_menu:
  1189   000014                     ??_view_log:
  1190                           
  1191                           ; 1 bytes @ 0x13
  1192   000014                     	ds	1
  1193   000015                     store_password@key:
  1194                           	callstack 0
  1195                           
  1196                           ; 1 bytes @ 0x14
  1197   000015                     	ds	1
  1198   000016                     ??_enter_password:
  1199   000016                     ??_change_password:
  1200   000016                     _menu$339:
  1201                           	callstack 0
  1202                           
  1203                           ; 1 bytes @ 0x15
  1204   000016                     	ds	1
  1205   000017                     ?___fldiv:
  1206                           	callstack 0
  1207   000017                     menu@key:
  1208                           	callstack 0
  1209   000017                     ___fldiv@b:
  1210                           	callstack 0
  1211                           
  1212                           ; 4 bytes @ 0x16
  1213   000017                     	ds	1
  1214   000018                     enter_password@key:
  1215                           	callstack 0
  1216   000018                     change_password@key:
  1217                           	callstack 0
  1218                           
  1219                           ; 1 bytes @ 0x17
  1220   000018                     	ds	1
  1221   000019                     view_log@key:
  1222                           	callstack 0
  1223   000019                     enter_password@j:
  1224                           	callstack 0
  1225   000019                     change_password@j:
  1226                           	callstack 0
  1227                           
  1228                           ; 2 bytes @ 0x18
  1229   000019                     	ds	2
  1230   00001B                     change_password@j_380:
  1231                           	callstack 0
  1232   00001B                     ___fldiv@a:
  1233                           	callstack 0
  1234                           
  1235                           ; 4 bytes @ 0x1A
  1236   00001B                     	ds	2
  1237   00001D                     change_password@i:
  1238                           	callstack 0
  1239                           
  1240                           ; 1 bytes @ 0x1C
  1241   00001D                     	ds	2
  1242   00001F                     ??___fldiv:
  1243                           
  1244                           ; 1 bytes @ 0x1E
  1245   00001F                     	ds	4
  1246   000023                     ___fldiv@rem:
  1247                           	callstack 0
  1248                           
  1249                           ; 4 bytes @ 0x22
  1250   000023                     	ds	4
  1251   000027                     ___fldiv@sign:
  1252                           	callstack 0
  1253                           
  1254                           ; 1 bytes @ 0x26
  1255   000027                     	ds	1
  1256   000028                     ___fldiv@new_exp:
  1257                           	callstack 0
  1258                           
  1259                           ; 2 bytes @ 0x27
  1260   000028                     	ds	2
  1261   00002A                     ___fldiv@grs:
  1262                           	callstack 0
  1263                           
  1264                           ; 4 bytes @ 0x29
  1265   00002A                     	ds	4
  1266   00002E                     ___fldiv@bexp:
  1267                           	callstack 0
  1268                           
  1269                           ; 1 bytes @ 0x2D
  1270   00002E                     	ds	1
  1271   00002F                     ___fldiv@aexp:
  1272                           	callstack 0
  1273                           
  1274                           ; 1 bytes @ 0x2E
  1275   00002F                     	ds	1
  1276   000030                     ?___fltol:
  1277                           	callstack 0
  1278   000030                     ___fltol@f1:
  1279                           	callstack 0
  1280                           
  1281                           ; 4 bytes @ 0x2F
  1282   000030                     	ds	4
  1283   000034                     ??___fltol:
  1284                           
  1285                           ; 1 bytes @ 0x33
  1286   000034                     	ds	4
  1287   000038                     ___fltol@sign1:
  1288                           	callstack 0
  1289                           
  1290                           ; 1 bytes @ 0x37
  1291   000038                     	ds	1
  1292   000039                     ___fltol@exp1:
  1293                           	callstack 0
  1294                           
  1295                           ; 1 bytes @ 0x38
  1296   000039                     	ds	1
  1297   00003A                     ??_main:
  1298                           
  1299                           ; 1 bytes @ 0x39
  1300   00003A                     	ds	2
  1301   00003C                     main@adc_val:
  1302                           	callstack 0
  1303                           
  1304                           ; 2 bytes @ 0x3B
  1305   00003C                     	ds	2
  1306   00003E                     main@i:
  1307                           	callstack 0
  1308                           
  1309                           ; 1 bytes @ 0x3D
  1310   00003E                     	ds	1
  1311   00003F                     main@key:
  1312                           	callstack 0
  1313                           
  1314                           ; 1 bytes @ 0x3E
  1315   00003F                     	ds	1
  1316                           
  1317 ;;
  1318 ;;Main: autosize = 0, tempsize = 2, incstack = 0, save=0
  1319 ;;
  1320 ;; *************** function _main *****************
  1321 ;; Defined at:
  1322 ;;		line 58 in file "main.c"
  1323 ;; Parameters:    Size  Location     Type
  1324 ;;		None
  1325 ;; Auto vars:     Size  Location     Type
  1326 ;;  i               1   61[COMRAM] unsigned char 
  1327 ;;  adc_val         2   59[COMRAM] unsigned short 
  1328 ;;  key             1   62[COMRAM] unsigned char 
  1329 ;; Return value:  Size  Location     Type
  1330 ;;                  1    wreg      void 
  1331 ;; Registers used:
  1332 ;;		wreg, fsr0l, fsr0h, fsr1l, fsr1h, fsr2l, fsr2h, status,2, status,0, tblptrl, tblptrh, tblptru, prodl, prodh, cstack
  1333 ;; Tracked objects:
  1334 ;;		On entry : 0/0
  1335 ;;		On exit  : 0/0
  1336 ;;		Unchanged: 0/0
  1337 ;; Data sizes:     COMRAM   BANK0   BANK1   BANK2   BANK3   BANK4   BANK5
  1338 ;;      Params:         0       0       0       0       0       0       0
  1339 ;;      Locals:         4       0       0       0       0       0       0
  1340 ;;      Temps:          2       0       0       0       0       0       0
  1341 ;;      Totals:         6       0       0       0       0       0       0
  1342 ;;Total ram usage:        6 bytes
  1343 ;; Hardware stack levels required when called: 7
  1344 ;; This function calls:
  1345 ;;		___fldiv
  1346 ;;		___fltol
  1347 ;;		___xxtofl
  1348 ;;		_change_password
  1349 ;;		_clcd_print
  1350 ;;		_clear_log
  1351 ;;		_display_event
  1352 ;;		_display_speed
  1353 ;;		_display_time
  1354 ;;		_download_log
  1355 ;;		_enter_password
  1356 ;;		_init_config
  1357 ;;		_menu
  1358 ;;		_read_adc
  1359 ;;		_read_ext_eeprom
  1360 ;;		_read_switches
  1361 ;;		_set_time
  1362 ;;		_store_event
  1363 ;;		_view_log
  1364 ;; This function is called by:
  1365 ;;		Startup code after reset
  1366 ;; This function uses a non-reentrant model
  1367 ;;
  1368                           
  1369                           	psect	text0
  1370   0015F4                     __ptext0:
  1371                           	callstack 0
  1372   0015F4                     _main:
  1373                           	callstack 24
  1374   0015F4                     
  1375                           ;main.c: 59:     init_config();
  1376   0015F4  ECC3  F014         	call	_init_config	;wreg free
  1377   0015F8                     
  1378                           ;main.c: 61:     unsigned char key;;main.c: 63:     event[9] = 'O';
  1379   0015F8  0E4F               	movlw	79
  1380   0015FA  0100               	movlb	0	; () banked
  1381   0015FC  6F6C               	movwf	(_event+9)& (0+255),b
  1382   0015FE                     
  1383                           ; BSR set to: 0
  1384                           ;main.c: 64:     event[10] = 'N';
  1385   0015FE  0E4E               	movlw	78
  1386   001600  6F6D               	movwf	(_event+10)& (0+255),b
  1387   001602                     
  1388                           ; BSR set to: 0
  1389                           ;main.c: 65:     adc_val = read_adc(4) / 10.23;
  1390   001602  0E14               	movlw	20
  1391   001604  6E1B               	movwf	___fldiv@a^0,c
  1392   001606  0EAE               	movlw	174
  1393   001608  6E1C               	movwf	(___fldiv@a+1)^0,c
  1394   00160A  0E23               	movlw	35
  1395   00160C  6E1D               	movwf	(___fldiv@a+2)^0,c
  1396   00160E  0E41               	movlw	65
  1397   001610  6E1E               	movwf	(___fldiv@a+3)^0,c
  1398   001612  0E04               	movlw	4
  1399   001614  EC7B  F013         	call	_read_adc
  1400   001618  C001  F009         	movff	?_read_adc,___xxtofl@val
  1401   00161C  C002  F00A         	movff	?_read_adc+1,___xxtofl@val+1
  1402   001620  6A0B               	clrf	(___xxtofl@val+2)^0,c
  1403   001622  6A0C               	clrf	(___xxtofl@val+3)^0,c
  1404   001624  0E00               	movlw	0
  1405   001626  EC2A  F00D         	call	___xxtofl
  1406   00162A  C009  F017         	movff	?___xxtofl,___fldiv@b
  1407   00162E  C00A  F018         	movff	?___xxtofl+1,___fldiv@b+1
  1408   001632  C00B  F019         	movff	?___xxtofl+2,___fldiv@b+2
  1409   001636  C00C  F01A         	movff	?___xxtofl+3,___fldiv@b+3
  1410   00163A  EC95  F006         	call	___fldiv	;wreg free
  1411   00163E  C017  F030         	movff	?___fldiv,___fltol@f1
  1412   001642  C018  F031         	movff	?___fldiv+1,___fltol@f1+1
  1413   001646  C019  F032         	movff	?___fldiv+2,___fltol@f1+2
  1414   00164A  C01A  F033         	movff	?___fldiv+3,___fltol@f1+3
  1415   00164E  EC88  F00E         	call	___fltol	;wreg free
  1416   001652  C030  F03C         	movff	?___fltol,main@adc_val
  1417   001656  C031  F03D         	movff	?___fltol+1,main@adc_val+1
  1418   00165A                     
  1419                           ;main.c: 66:     display_time();
  1420   00165A  EC00  F015         	call	_display_time	;wreg free
  1421   00165E                     
  1422                           ;main.c: 67:     display_speed(adc_val);
  1423   00165E  C03C  F011         	movff	main@adc_val,display_speed@speed
  1424   001662  C03D  F012         	movff	main@adc_val+1,display_speed@speed+1
  1425   001666  EC01  F012         	call	_display_speed	;wreg free
  1426   00166A                     
  1427                           ;main.c: 68:     store_event(event);
  1428   00166A  0E63               	movlw	low _event
  1429   00166C  6E05               	movwf	store_event@data^0,c
  1430   00166E  0E00               	movlw	high _event
  1431   001670  6E06               	movwf	(store_event@data+1)^0,c
  1432   001672  EC69  F011         	call	_store_event	;wreg free
  1433   001676                     
  1434                           ;main.c: 70:     for(unsigned char i = 0; i < 4; i++)
  1435   001676  0E00               	movlw	0
  1436   001678  6E3E               	movwf	main@i^0,c
  1437   00167A                     l4568:
  1438                           
  1439                           ;main.c: 71:     {;main.c: 72:         password[i] = read_ext_eeprom(0xAA + i);
  1440   00167A  0EB3               	movlw	low _password
  1441   00167C  243E               	addwf	main@i^0,w,c
  1442   00167E  6ED9               	movwf	fsr2l,c
  1443   001680  6ADA               	clrf	fsr2h,c
  1444   001682  0E00               	movlw	high _password
  1445   001684  22DA               	addwfc	fsr2h,f,c
  1446   001686  503E               	movf	main@i^0,w,c
  1447   001688  0FAA               	addlw	170
  1448   00168A  EC54  F014         	call	_read_ext_eeprom
  1449   00168E  6EDF               	movwf	indf2,c
  1450   001690                     
  1451                           ;main.c: 73:     }
  1452   001690  2A3E               	incf	main@i^0,f,c
  1453   001692  0E03               	movlw	3
  1454   001694  643E               	cpfsgt	main@i^0,c
  1455   001696  EF4F  F00B         	goto	u4381
  1456   00169A  EF51  F00B         	goto	u4380
  1457   00169E                     u4381:
  1458   00169E  EF3D  F00B         	goto	l4568
  1459   0016A2                     u4380:
  1460   0016A2                     l4574:
  1461                           
  1462                           ;main.c: 76:         adc_val = read_adc(4) / 10.23;
  1463   0016A2  0E14               	movlw	20
  1464   0016A4  6E1B               	movwf	___fldiv@a^0,c
  1465   0016A6  0EAE               	movlw	174
  1466   0016A8  6E1C               	movwf	(___fldiv@a+1)^0,c
  1467   0016AA  0E23               	movlw	35
  1468   0016AC  6E1D               	movwf	(___fldiv@a+2)^0,c
  1469   0016AE  0E41               	movlw	65
  1470   0016B0  6E1E               	movwf	(___fldiv@a+3)^0,c
  1471   0016B2  0E04               	movlw	4
  1472   0016B4  EC7B  F013         	call	_read_adc
  1473   0016B8  C001  F009         	movff	?_read_adc,___xxtofl@val
  1474   0016BC  C002  F00A         	movff	?_read_adc+1,___xxtofl@val+1
  1475   0016C0  6A0B               	clrf	(___xxtofl@val+2)^0,c
  1476   0016C2  6A0C               	clrf	(___xxtofl@val+3)^0,c
  1477   0016C4  0E00               	movlw	0
  1478   0016C6  EC2A  F00D         	call	___xxtofl
  1479   0016CA  C009  F017         	movff	?___xxtofl,___fldiv@b
  1480   0016CE  C00A  F018         	movff	?___xxtofl+1,___fldiv@b+1
  1481   0016D2  C00B  F019         	movff	?___xxtofl+2,___fldiv@b+2
  1482   0016D6  C00C  F01A         	movff	?___xxtofl+3,___fldiv@b+3
  1483   0016DA  EC95  F006         	call	___fldiv	;wreg free
  1484   0016DE  C017  F030         	movff	?___fldiv,___fltol@f1
  1485   0016E2  C018  F031         	movff	?___fldiv+1,___fltol@f1+1
  1486   0016E6  C019  F032         	movff	?___fldiv+2,___fltol@f1+2
  1487   0016EA  C01A  F033         	movff	?___fldiv+3,___fltol@f1+3
  1488   0016EE  EC88  F00E         	call	___fltol	;wreg free
  1489   0016F2  C030  F03C         	movff	?___fltol,main@adc_val
  1490   0016F6  C031  F03D         	movff	?___fltol+1,main@adc_val+1
  1491   0016FA                     
  1492                           ;main.c: 78:         if (key == 10 && pass_flag == 0) {
  1493   0016FA  0E0A               	movlw	10
  1494   0016FC  183F               	xorwf	main@key^0,w,c
  1495   0016FE  A4D8               	btfss	status,2,c
  1496   001700  EF84  F00B         	goto	u4391
  1497   001704  EF86  F00B         	goto	u4390
  1498   001708                     u4391:
  1499   001708  EF9A  F00B         	goto	l4584
  1500   00170C                     u4390:
  1501   00170C  505A               	movf	_pass_flag^0,w,c
  1502   00170E  A4D8               	btfss	status,2,c
  1503   001710  EF8C  F00B         	goto	u4401
  1504   001714  EF8E  F00B         	goto	u4400
  1505   001718                     u4401:
  1506   001718  EF9A  F00B         	goto	l4584
  1507   00171C                     u4400:
  1508   00171C                     
  1509                           ;main.c: 79:             pass_flag = 1;
  1510   00171C  0E01               	movlw	1
  1511   00171E  6E5A               	movwf	_pass_flag^0,c
  1512                           
  1513                           ;main.c: 80:             sec = 60;
  1514   001720  0E3C               	movlw	60
  1515   001722  6E5E               	movwf	_sec^0,c
  1516   001724                     
  1517                           ;main.c: 81:             clcd_print("                ", (0xC0 + (0)));
  1518   001724  0E58               	movlw	low STR_19
  1519   001726  6E03               	movwf	clcd_print@data^0,c
  1520   001728  0E2F               	movlw	high STR_19
  1521   00172A  6E04               	movwf	(clcd_print@data+1)^0,c
  1522   00172C  0EC0               	movlw	192
  1523   00172E  6E05               	movwf	clcd_print@addr^0,c
  1524   001730  ECB4  F012         	call	_clcd_print	;wreg free
  1525   001734                     l4584:
  1526                           
  1527                           ;main.c: 84:         if (pass_flag == 0 || pass_flag == 1 || pass_flag == 7)
  1528   001734  505A               	movf	_pass_flag^0,w,c
  1529   001736  B4D8               	btfsc	status,2,c
  1530   001738  EFA0  F00B         	goto	u4411
  1531   00173C  EFA2  F00B         	goto	u4410
  1532   001740                     u4411:
  1533   001740  EFB3  F00B         	goto	l4590
  1534   001744                     u4410:
  1535   001744  045A               	decf	_pass_flag^0,w,c
  1536   001746  B4D8               	btfsc	status,2,c
  1537   001748  EFA8  F00B         	goto	u4421
  1538   00174C  EFAA  F00B         	goto	u4420
  1539   001750                     u4421:
  1540   001750  EFB3  F00B         	goto	l4590
  1541   001754                     u4420:
  1542   001754  0E07               	movlw	7
  1543   001756  185A               	xorwf	_pass_flag^0,w,c
  1544   001758  A4D8               	btfss	status,2,c
  1545   00175A  EFB1  F00B         	goto	u4431
  1546   00175E  EFB3  F00B         	goto	u4430
  1547   001762                     u4431:
  1548   001762  EFB9  F00B         	goto	l4592
  1549   001766                     u4430:
  1550   001766                     l4590:
  1551                           
  1552                           ;main.c: 85:             key = read_switches(1);
  1553   001766  0E01               	movlw	1
  1554   001768  EC7B  F012         	call	_read_switches
  1555   00176C  6E3F               	movwf	main@key^0,c
  1556   00176E  EF05  F00C         	goto	l4616
  1557   001772                     l4592:
  1558                           
  1559                           ;main.c: 87:             key = read_switches(0);
  1560   001772  0E00               	movlw	0
  1561   001774  EC7B  F012         	call	_read_switches
  1562   001778  6E3F               	movwf	main@key^0,c
  1563   00177A  EF05  F00C         	goto	l4616
  1564   00177E                     l4594:
  1565                           
  1566                           ;main.c: 91:                 clcd_print("TIME", (0x80 + (2)));
  1567   00177E  0EC9               	movlw	low STR_20
  1568   001780  6E03               	movwf	clcd_print@data^0,c
  1569   001782  0E2F               	movlw	high STR_20
  1570   001784  6E04               	movwf	(clcd_print@data+1)^0,c
  1571   001786  0E82               	movlw	130
  1572   001788  6E05               	movwf	clcd_print@addr^0,c
  1573   00178A  ECB4  F012         	call	_clcd_print	;wreg free
  1574                           
  1575                           ;main.c: 92:                 clcd_print("EV", (0x80 + (10)));
  1576   00178E  0EFC               	movlw	low STR_21
  1577   001790  6E03               	movwf	clcd_print@data^0,c
  1578   001792  0E2F               	movlw	high STR_21
  1579   001794  6E04               	movwf	(clcd_print@data+1)^0,c
  1580   001796  0E8A               	movlw	138
  1581   001798  6E05               	movwf	clcd_print@addr^0,c
  1582   00179A  ECB4  F012         	call	_clcd_print	;wreg free
  1583                           
  1584                           ;main.c: 93:                 clcd_print("SP", (0x80 + (14)));
  1585   00179E  0EF3               	movlw	low STR_22
  1586   0017A0  6E03               	movwf	clcd_print@data^0,c
  1587   0017A2  0E2F               	movlw	high STR_22
  1588   0017A4  6E04               	movwf	(clcd_print@data+1)^0,c
  1589   0017A6  0E8E               	movlw	142
  1590   0017A8  6E05               	movwf	clcd_print@addr^0,c
  1591   0017AA  ECB4  F012         	call	_clcd_print	;wreg free
  1592                           
  1593                           ;main.c: 95:                 display_time();
  1594   0017AE  EC00  F015         	call	_display_time	;wreg free
  1595   0017B2                     
  1596                           ;main.c: 96:                 display_event(key);
  1597   0017B2  503F               	movf	main@key^0,w,c
  1598   0017B4  ECBA  F009         	call	_display_event
  1599   0017B8                     
  1600                           ;main.c: 97:                 display_speed(adc_val);
  1601   0017B8  C03C  F011         	movff	main@adc_val,display_speed@speed
  1602   0017BC  C03D  F012         	movff	main@adc_val+1,display_speed@speed+1
  1603   0017C0  EC01  F012         	call	_display_speed	;wreg free
  1604                           
  1605                           ;main.c: 98:                 break;
  1606   0017C4  EF51  F00B         	goto	l4574
  1607   0017C8                     l4600:
  1608                           
  1609                           ;main.c: 101:                 enter_password(key);
  1610   0017C8  503F               	movf	main@key^0,w,c
  1611   0017CA  EC62  F008         	call	_enter_password
  1612                           
  1613                           ;main.c: 102:                 break;
  1614   0017CE  EF51  F00B         	goto	l4574
  1615   0017D2                     l4602:
  1616                           
  1617                           ;main.c: 105:                 menu(key);
  1618   0017D2  503F               	movf	main@key^0,w,c
  1619   0017D4  EC9D  F002         	call	_menu
  1620                           
  1621                           ;main.c: 106:                 break;
  1622   0017D8  EF51  F00B         	goto	l4574
  1623   0017DC                     l4604:
  1624                           
  1625                           ;main.c: 109:                 view_log(key);
  1626   0017DC  503F               	movf	main@key^0,w,c
  1627   0017DE  EC34  F00C         	call	_view_log
  1628                           
  1629                           ;main.c: 110:                 break;
  1630   0017E2  EF51  F00B         	goto	l4574
  1631   0017E6                     l4606:
  1632                           
  1633                           ;main.c: 113:                 set_time(key);
  1634   0017E6  503F               	movf	main@key^0,w,c
  1635   0017E8  ECC3  F004         	call	_set_time
  1636                           
  1637                           ;main.c: 114:                 break;
  1638   0017EC  EF51  F00B         	goto	l4574
  1639   0017F0                     l4608:
  1640                           
  1641                           ;main.c: 117:                 download_log();
  1642   0017F0  EC0B  F00F         	call	_download_log	;wreg free
  1643                           
  1644                           ;main.c: 118:                 break;
  1645   0017F4  EF51  F00B         	goto	l4574
  1646   0017F8                     l4610:
  1647                           
  1648                           ;main.c: 121:                 clear_log();
  1649   0017F8  ECBB  F011         	call	_clear_log	;wreg free
  1650                           
  1651                           ;main.c: 122:                 break;
  1652   0017FC  EF51  F00B         	goto	l4574
  1653   001800                     l4612:
  1654                           
  1655                           ;main.c: 125:                 change_password(key);
  1656   001800  503F               	movf	main@key^0,w,c
  1657   001802  EC09  F000         	call	_change_password
  1658                           
  1659                           ;main.c: 126:                 break;
  1660   001806  EF51  F00B         	goto	l4574
  1661   00180A                     l4616:
  1662   00180A  505A               	movf	_pass_flag^0,w,c
  1663   00180C  6E3A               	movwf	??_main^0,c
  1664   00180E  6A3B               	clrf	(??_main+1)^0,c
  1665                           
  1666                           ; Switch on 2 bytes has been partitioned into a top level switch of size 1, and 1 sub-sw
      +                          itches
  1667                           ; Switch size 1, requested type "simple"
  1668                           ; Number of cases is 1, Range of values is 0 to 0
  1669                           ; switch strategies available:
  1670                           ; Name         Instructions Cycles
  1671                           ; simple_byte            4     3 (average)
  1672                           ;	Chosen strategy is simple_byte
  1673   001810  503B               	movf	(??_main+1)^0,w,c
  1674   001812  0A00               	xorlw	0	; case 0
  1675   001814  B4D8               	btfsc	status,2,c
  1676   001816  EF0F  F00C         	goto	l4660
  1677   00181A  EF51  F00B         	goto	l4574
  1678   00181E                     l4660:
  1679                           
  1680                           ; Switch size 1, requested type "simple"
  1681                           ; Number of cases is 8, Range of values is 0 to 7
  1682                           ; switch strategies available:
  1683                           ; Name         Instructions Cycles
  1684                           ; simple_byte           25    13 (average)
  1685                           ;	Chosen strategy is simple_byte
  1686   00181E  503A               	movf	??_main^0,w,c
  1687   001820  0A00               	xorlw	0	; case 0
  1688   001822  B4D8               	btfsc	status,2,c
  1689   001824  EFBF  F00B         	goto	l4594
  1690   001828  0A01               	xorlw	1	; case 1
  1691   00182A  B4D8               	btfsc	status,2,c
  1692   00182C  EFE4  F00B         	goto	l4600
  1693   001830  0A03               	xorlw	3	; case 2
  1694   001832  B4D8               	btfsc	status,2,c
  1695   001834  EFE9  F00B         	goto	l4602
  1696   001838  0A01               	xorlw	1	; case 3
  1697   00183A  B4D8               	btfsc	status,2,c
  1698   00183C  EFEE  F00B         	goto	l4604
  1699   001840  0A07               	xorlw	7	; case 4
  1700   001842  B4D8               	btfsc	status,2,c
  1701   001844  EFF3  F00B         	goto	l4606
  1702   001848  0A01               	xorlw	1	; case 5
  1703   00184A  B4D8               	btfsc	status,2,c
  1704   00184C  EFF8  F00B         	goto	l4608
  1705   001850  0A03               	xorlw	3	; case 6
  1706   001852  B4D8               	btfsc	status,2,c
  1707   001854  EFFC  F00B         	goto	l4610
  1708   001858  0A01               	xorlw	1	; case 7
  1709   00185A  B4D8               	btfsc	status,2,c
  1710   00185C  EF00  F00C         	goto	l4612
  1711   001860  EF51  F00B         	goto	l4574
  1712   001864  EF07  F000         	goto	start
  1713   001868                     __end_of_main:
  1714                           	callstack 0
  1715                           
  1716 ;; *************** function _view_log *****************
  1717 ;; Defined at:
  1718 ;;		line 275 in file "car_black_box.c"
  1719 ;; Parameters:    Size  Location     Type
  1720 ;;  key             1    wreg     unsigned char 
  1721 ;; Auto vars:     Size  Location     Type
  1722 ;;  key             1   24[COMRAM] unsigned char 
  1723 ;; Return value:  Size  Location     Type
  1724 ;;                  1    wreg      void 
  1725 ;; Registers used:
  1726 ;;		wreg, fsr0l, fsr0h, fsr2l, fsr2h, status,2, status,0, tblptrl, tblptrh, tblptru, prodl, prodh, cstack
  1727 ;; Tracked objects:
  1728 ;;		On entry : 0/0
  1729 ;;		On exit  : 0/0
  1730 ;;		Unchanged: 0/0
  1731 ;; Data sizes:     COMRAM   BANK0   BANK1   BANK2   BANK3   BANK4   BANK5
  1732 ;;      Params:         0       0       0       0       0       0       0
  1733 ;;      Locals:         1       0       0       0       0       0       0
  1734 ;;      Temps:          5       0       0       0       0       0       0
  1735 ;;      Totals:         6       0       0       0       0       0       0
  1736 ;;Total ram usage:        6 bytes
  1737 ;; Hardware stack levels used: 1
  1738 ;; Hardware stack levels required when called: 6
  1739 ;; This function calls:
  1740 ;;		___awmod
  1741 ;;		___wmul
  1742 ;;		_clcd_print
  1743 ;;		_clcd_putch
  1744 ;;		_read_event
  1745 ;; This function is called by:
  1746 ;;		_main
  1747 ;; This function uses a non-reentrant model
  1748 ;;
  1749                           
  1750                           	psect	text1
  1751   001868                     __ptext1:
  1752                           	callstack 0
  1753   001868                     _view_log:
  1754                           	callstack 24
  1755                           
  1756                           ;incstack = 0
  1757                           ;view_log@key stored from wreg
  1758   001868  6E19               	movwf	view_log@key^0,c
  1759   00186A                     
  1760                           ;car_black_box.c: 277:     if (key == 11) {
  1761   00186A  0E0B               	movlw	11
  1762   00186C  1819               	xorwf	view_log@key^0,w,c
  1763   00186E  A4D8               	btfss	status,2,c
  1764   001870  EF3C  F00C         	goto	u3331
  1765   001874  EF3E  F00C         	goto	u3330
  1766   001878                     u3331:
  1767   001878  EF44  F00C         	goto	l3908
  1768   00187C                     u3330:
  1769   00187C                     
  1770                           ;car_black_box.c: 278:         prekey = 11;
  1771   00187C  0E0B               	movlw	11
  1772   00187E  6E4B               	movwf	_prekey^0,c
  1773   001880                     
  1774                           ;car_black_box.c: 279:         wait++;
  1775   001880  4A43               	infsnz	_wait^0,f,c
  1776   001882  2A44               	incf	(_wait+1)^0,f,c
  1777                           
  1778                           ;car_black_box.c: 280:     } else if (wait != 0 && wait < 400 && key == 0xFF && prekey =
      +                          = 11) {
  1779   001884  EF78  F00C         	goto	l3922
  1780   001888                     l3908:
  1781   001888  5043               	movf	_wait^0,w,c
  1782   00188A  1044               	iorwf	(_wait+1)^0,w,c
  1783   00188C  B4D8               	btfsc	status,2,c
  1784   00188E  EF4B  F00C         	goto	u3341
  1785   001892  EF4D  F00C         	goto	u3340
  1786   001896                     u3341:
  1787   001896  EF78  F00C         	goto	l3922
  1788   00189A                     u3340:
  1789   00189A  0E90               	movlw	144
  1790   00189C  5C43               	subwf	_wait^0,w,c
  1791   00189E  0E01               	movlw	1
  1792   0018A0  5844               	subwfb	(_wait+1)^0,w,c
  1793   0018A2  B0D8               	btfsc	status,0,c
  1794   0018A4  EF56  F00C         	goto	u3351
  1795   0018A8  EF58  F00C         	goto	u3350
  1796   0018AC                     u3351:
  1797   0018AC  EF78  F00C         	goto	l3922
  1798   0018B0                     u3350:
  1799   0018B0  2819               	incf	view_log@key^0,w,c
  1800   0018B2  A4D8               	btfss	status,2,c
  1801   0018B4  EF5E  F00C         	goto	u3361
  1802   0018B8  EF60  F00C         	goto	u3360
  1803   0018BC                     u3361:
  1804   0018BC  EF78  F00C         	goto	l3922
  1805   0018C0                     u3360:
  1806   0018C0  0E0B               	movlw	11
  1807   0018C2  184B               	xorwf	_prekey^0,w,c
  1808   0018C4  A4D8               	btfss	status,2,c
  1809   0018C6  EF67  F00C         	goto	u3371
  1810   0018CA  EF69  F00C         	goto	u3370
  1811   0018CE                     u3371:
  1812   0018CE  EF78  F00C         	goto	l3922
  1813   0018D2                     u3370:
  1814   0018D2                     
  1815                           ;car_black_box.c: 281:         if (log_index-- == 0)
  1816   0018D2  0647               	decf	_log_index^0,f,c
  1817   0018D4  2847               	incf	_log_index^0,w,c
  1818   0018D6  A4D8               	btfss	status,2,c
  1819   0018D8  EF70  F00C         	goto	u3381
  1820   0018DC  EF72  F00C         	goto	u3380
  1821   0018E0                     u3381:
  1822   0018E0  EF74  F00C         	goto	l3920
  1823   0018E4                     u3380:
  1824   0018E4                     
  1825                           ;car_black_box.c: 282:             log_index = (total_events - 1);
  1826   0018E4  0457               	decf	_total_events^0,w,c
  1827   0018E6  6E47               	movwf	_log_index^0,c
  1828   0018E8                     l3920:
  1829                           
  1830                           ;car_black_box.c: 284:         wait = 0;
  1831   0018E8  0E00               	movlw	0
  1832   0018EA  6E44               	movwf	(_wait+1)^0,c
  1833   0018EC  0E00               	movlw	0
  1834   0018EE  6E43               	movwf	_wait^0,c
  1835   0018F0                     l3922:
  1836                           
  1837                           ;car_black_box.c: 288:     if (key == 12) {
  1838   0018F0  0E0C               	movlw	12
  1839   0018F2  1819               	xorwf	view_log@key^0,w,c
  1840   0018F4  A4D8               	btfss	status,2,c
  1841   0018F6  EF7F  F00C         	goto	u3391
  1842   0018FA  EF81  F00C         	goto	u3390
  1843   0018FE                     u3391:
  1844   0018FE  EFB0  F00C         	goto	l3936
  1845   001902                     u3390:
  1846   001902                     
  1847                           ;car_black_box.c: 289:         prekey = 12;
  1848   001902  0E0C               	movlw	12
  1849   001904  6E4B               	movwf	_prekey^0,c
  1850   001906                     
  1851                           ;car_black_box.c: 290:         if (wait++ > 500) {
  1852   001906  5043               	movf	_wait^0,w,c
  1853   001908  6E14               	movwf	??_view_log^0,c
  1854   00190A  5044               	movf	(_wait+1)^0,w,c
  1855   00190C  6E15               	movwf	(??_view_log+1)^0,c
  1856   00190E  4A43               	infsnz	_wait^0,f,c
  1857   001910  2A44               	incf	(_wait+1)^0,f,c
  1858   001912  0EF5               	movlw	245
  1859   001914  5C14               	subwf	??_view_log^0,w,c
  1860   001916  0E01               	movlw	1
  1861   001918  5815               	subwfb	(??_view_log+1)^0,w,c
  1862   00191A  A0D8               	btfss	status,0,c
  1863   00191C  EF92  F00C         	goto	u3401
  1864   001920  EF94  F00C         	goto	u3400
  1865   001924                     u3401:
  1866   001924  EFF4  F00C         	goto	l3948
  1867   001928                     u3400:
  1868   001928                     
  1869                           ;car_black_box.c: 291:             log_index = wait = 0;
  1870   001928  0E00               	movlw	0
  1871   00192A  6E44               	movwf	(_wait+1)^0,c
  1872   00192C  0E00               	movlw	0
  1873   00192E  6E43               	movwf	_wait^0,c
  1874   001930  C043  F047         	movff	_wait,_log_index
  1875                           
  1876                           ;car_black_box.c: 292:             sec = 60;
  1877   001934  0E3C               	movlw	60
  1878   001936  6E5E               	movwf	_sec^0,c
  1879                           
  1880                           ;car_black_box.c: 293:             pass_flag = 2;
  1881   001938  0E02               	movlw	2
  1882   00193A  6E5A               	movwf	_pass_flag^0,c
  1883   00193C                     
  1884                           ;car_black_box.c: 294:             clcd_print("                ", (0x80 + (0)));
  1885   00193C  0E58               	movlw	low STR_19
  1886   00193E  6E03               	movwf	clcd_print@data^0,c
  1887   001940  0E2F               	movlw	high STR_19
  1888   001942  6E04               	movwf	(clcd_print@data+1)^0,c
  1889   001944  0E80               	movlw	128
  1890   001946  6E05               	movwf	clcd_print@addr^0,c
  1891   001948  ECB4  F012         	call	_clcd_print	;wreg free
  1892   00194C                     
  1893                           ;car_black_box.c: 295:             clcd_print("                ", (0xC0 + (0)));
  1894   00194C  0E58               	movlw	low STR_19
  1895   00194E  6E03               	movwf	clcd_print@data^0,c
  1896   001950  0E2F               	movlw	high STR_19
  1897   001952  6E04               	movwf	(clcd_print@data+1)^0,c
  1898   001954  0EC0               	movlw	192
  1899   001956  6E05               	movwf	clcd_print@addr^0,c
  1900   001958  ECB4  F012         	call	_clcd_print	;wreg free
  1901   00195C  EF29  F00D         	goto	l379
  1902   001960                     l3936:
  1903   001960  5043               	movf	_wait^0,w,c
  1904   001962  1044               	iorwf	(_wait+1)^0,w,c
  1905   001964  B4D8               	btfsc	status,2,c
  1906   001966  EFB7  F00C         	goto	u3411
  1907   00196A  EFB9  F00C         	goto	u3410
  1908   00196E                     u3411:
  1909   00196E  EFF4  F00C         	goto	l3948
  1910   001972                     u3410:
  1911   001972  0EF4               	movlw	244
  1912   001974  5C43               	subwf	_wait^0,w,c
  1913   001976  0E01               	movlw	1
  1914   001978  5844               	subwfb	(_wait+1)^0,w,c
  1915   00197A  B0D8               	btfsc	status,0,c
  1916   00197C  EFC2  F00C         	goto	u3421
  1917   001980  EFC4  F00C         	goto	u3420
  1918   001984                     u3421:
  1919   001984  EFF4  F00C         	goto	l3948
  1920   001988                     u3420:
  1921   001988  2819               	incf	view_log@key^0,w,c
  1922   00198A  A4D8               	btfss	status,2,c
  1923   00198C  EFCA  F00C         	goto	u3431
  1924   001990  EFCC  F00C         	goto	u3430
  1925   001994                     u3431:
  1926   001994  EFF4  F00C         	goto	l3948
  1927   001998                     u3430:
  1928   001998  0E0C               	movlw	12
  1929   00199A  184B               	xorwf	_prekey^0,w,c
  1930   00199C  A4D8               	btfss	status,2,c
  1931   00199E  EFD3  F00C         	goto	u3441
  1932   0019A2  EFD5  F00C         	goto	u3440
  1933   0019A6                     u3441:
  1934   0019A6  EFF4  F00C         	goto	l3948
  1935   0019AA                     u3440:
  1936   0019AA                     
  1937                           ;car_black_box.c: 299:         if (++log_index > (total_events - 1))
  1938   0019AA  2A47               	incf	_log_index^0,f,c
  1939   0019AC  5047               	movf	_log_index^0,w,c
  1940   0019AE  6E14               	movwf	??_view_log^0,c
  1941   0019B0  6A15               	clrf	(??_view_log+1)^0,c
  1942   0019B2  0EFF               	movlw	255
  1943   0019B4  2457               	addwf	_total_events^0,w,c
  1944   0019B6  6E16               	movwf	(??_view_log+2)^0,c
  1945   0019B8  6A17               	clrf	(??_view_log+3)^0,c
  1946   0019BA  0EFF               	movlw	255
  1947   0019BC  2217               	addwfc	(??_view_log+3)^0,f,c
  1948   0019BE  5014               	movf	??_view_log^0,w,c
  1949   0019C0  5C16               	subwf	(??_view_log+2)^0,w,c
  1950   0019C2  5017               	movf	(??_view_log+3)^0,w,c
  1951   0019C4  0A80               	xorlw	128
  1952   0019C6  6E18               	movwf	(??_view_log+4)^0,c
  1953   0019C8  5015               	movf	(??_view_log+1)^0,w,c
  1954   0019CA  0A80               	xorlw	128
  1955   0019CC  5818               	subwfb	(??_view_log+4)^0,w,c
  1956   0019CE  B0D8               	btfsc	status,0,c
  1957   0019D0  EFEC  F00C         	goto	u3451
  1958   0019D4  EFEE  F00C         	goto	u3450
  1959   0019D8                     u3451:
  1960   0019D8  EFF0  F00C         	goto	l382
  1961   0019DC                     u3450:
  1962   0019DC                     
  1963                           ;car_black_box.c: 300:             log_index = 0;
  1964   0019DC  0E00               	movlw	0
  1965   0019DE  6E47               	movwf	_log_index^0,c
  1966   0019E0                     l382:
  1967                           
  1968                           ;car_black_box.c: 302:         wait = 0;
  1969   0019E0  0E00               	movlw	0
  1970   0019E2  6E44               	movwf	(_wait+1)^0,c
  1971   0019E4  0E00               	movlw	0
  1972   0019E6  6E43               	movwf	_wait^0,c
  1973   0019E8                     l3948:
  1974                           
  1975                           ;car_black_box.c: 305:     clcd_print("Logs :-         ", (0x80 + (0)));
  1976   0019E8  0E26               	movlw	low STR_64
  1977   0019EA  6E03               	movwf	clcd_print@data^0,c
  1978   0019EC  0E2E               	movlw	high STR_64
  1979   0019EE  6E04               	movwf	(clcd_print@data+1)^0,c
  1980   0019F0  0E80               	movlw	128
  1981   0019F2  6E05               	movwf	clcd_print@addr^0,c
  1982   0019F4  ECB4  F012         	call	_clcd_print	;wreg free
  1983   0019F8                     
  1984                           ;car_black_box.c: 306:     clcd_putch(log_index + 48, (0xC0 + (0)));
  1985   0019F8  0EC0               	movlw	192
  1986   0019FA  6E0F               	movwf	clcd_putch@addr^0,c
  1987   0019FC  5047               	movf	_log_index^0,w,c
  1988   0019FE  0F30               	addlw	48
  1989   001A00  ECE9  F014         	call	_clcd_putch
  1990   001A04                     
  1991                           ;car_black_box.c: 307:     read_event(0x00 + (14 * ((log_index + index) % 10)), data);
  1992   001A04  0E00               	movlw	0
  1993   001A06  6E08               	movwf	(___wmul@multiplier+1)^0,c
  1994   001A08  0E0E               	movlw	14
  1995   001A0A  6E07               	movwf	___wmul@multiplier^0,c
  1996   001A0C  0E00               	movlw	0
  1997   001A0E  6E04               	movwf	(___awmod@divisor+1)^0,c
  1998   001A10  0E0A               	movlw	10
  1999   001A12  6E03               	movwf	___awmod@divisor^0,c
  2000   001A14  5047               	movf	_log_index^0,w,c
  2001   001A16  2446               	addwf	_index^0,w,c
  2002   001A18  6E01               	movwf	___awmod@dividend^0,c
  2003   001A1A  6A02               	clrf	(___awmod@dividend+1)^0,c
  2004   001A1C  3602               	rlcf	(___awmod@dividend+1)^0,f,c
  2005   001A1E  ECB9  F010         	call	___awmod	;wreg free
  2006   001A22  C001  F009         	movff	?___awmod,___wmul@multiplicand
  2007   001A26  C002  F00A         	movff	?___awmod+1,___wmul@multiplicand+1
  2008   001A2A  EC92  F014         	call	___wmul	;wreg free
  2009   001A2E  C007  F00D         	movff	?___wmul,read_event@address
  2010   001A32  C008  F00E         	movff	?___wmul+1,read_event@address+1
  2011   001A36  0E73               	movlw	low _data
  2012   001A38  6E0F               	movwf	read_event@data^0,c
  2013   001A3A  0E00               	movlw	high _data
  2014   001A3C  6E10               	movwf	(read_event@data+1)^0,c
  2015   001A3E  ECC7  F013         	call	_read_event	;wreg free
  2016   001A42                     
  2017                           ;car_black_box.c: 308:     clcd_print(data, (0xC0 + (2)));
  2018   001A42  0E73               	movlw	low _data
  2019   001A44  6E03               	movwf	clcd_print@data^0,c
  2020   001A46  0E00               	movlw	high _data
  2021   001A48  6E04               	movwf	(clcd_print@data+1)^0,c
  2022   001A4A  0EC2               	movlw	194
  2023   001A4C  6E05               	movwf	clcd_print@addr^0,c
  2024   001A4E  ECB4  F012         	call	_clcd_print	;wreg free
  2025   001A52                     l379:
  2026   001A52  0012               	return		;funcret
  2027   001A54                     __end_of_view_log:
  2028                           	callstack 0
  2029                           
  2030 ;; *************** function _set_time *****************
  2031 ;; Defined at:
  2032 ;;		line 311 in file "car_black_box.c"
  2033 ;; Parameters:    Size  Location     Type
  2034 ;;  key             1    wreg     unsigned char 
  2035 ;; Auto vars:     Size  Location     Type
  2036 ;;  key             1    7[COMRAM] unsigned char 
  2037 ;; Return value:  Size  Location     Type
  2038 ;;                  1    wreg      void 
  2039 ;; Registers used:
  2040 ;;		wreg, fsr0l, fsr0h, status,2, status,0, tblptrl, tblptrh, tblptru, cstack
  2041 ;; Tracked objects:
  2042 ;;		On entry : 0/0
  2043 ;;		On exit  : 0/0
  2044 ;;		Unchanged: 0/0
  2045 ;; Data sizes:     COMRAM   BANK0   BANK1   BANK2   BANK3   BANK4   BANK5
  2046 ;;      Params:         0       0       0       0       0       0       0
  2047 ;;      Locals:         1       0       0       0       0       0       0
  2048 ;;      Temps:          2       0       0       0       0       0       0
  2049 ;;      Totals:         3       0       0       0       0       0       0
  2050 ;;Total ram usage:        3 bytes
  2051 ;; Hardware stack levels used: 1
  2052 ;; Hardware stack levels required when called: 4
  2053 ;; This function calls:
  2054 ;;		_clcd_print
  2055 ;;		_write_ds1307
  2056 ;; This function is called by:
  2057 ;;		_main
  2058 ;; This function uses a non-reentrant model
  2059 ;;
  2060                           
  2061                           	psect	text2
  2062   000986                     __ptext2:
  2063                           	callstack 0
  2064   000986                     _set_time:
  2065                           	callstack 26
  2066                           
  2067                           ;incstack = 0
  2068                           ;set_time@key stored from wreg
  2069   000986  6E08               	movwf	set_time@key^0,c
  2070   000988                     
  2071                           ;car_black_box.c: 312:     clcd_print("    Set Time    ", (0x80 + (0)));
  2072   000988  0E48               	movlw	low STR_65
  2073   00098A  6E03               	movwf	clcd_print@data^0,c
  2074   00098C  0E2E               	movlw	high STR_65
  2075   00098E  6E04               	movwf	(clcd_print@data+1)^0,c
  2076   000990  0E80               	movlw	128
  2077   000992  6E05               	movwf	clcd_print@addr^0,c
  2078   000994  ECB4  F012         	call	_clcd_print	;wreg free
  2079   000998                     
  2080                           ;car_black_box.c: 313:     if (time_flag == 0) {
  2081   000998  5045               	movf	_time_flag^0,w,c
  2082   00099A  A4D8               	btfss	status,2,c
  2083   00099C  EFD2  F004         	goto	u3461
  2084   0009A0  EFD4  F004         	goto	u3460
  2085   0009A4                     u3461:
  2086   0009A4  EFED  F004         	goto	l3966
  2087   0009A8                     u3460:
  2088   0009A8                     
  2089                           ;car_black_box.c: 314:         if (sec % 2) {
  2090   0009A8  A05E               	btfss	_sec^0,0,c
  2091   0009AA  EFD9  F004         	goto	u3471
  2092   0009AE  EFDB  F004         	goto	u3470
  2093   0009B2                     u3471:
  2094   0009B2  EFE5  F004         	goto	l3964
  2095   0009B6                     u3470:
  2096   0009B6                     
  2097                           ;car_black_box.c: 315:             clcd_print(time, (0xC0 + (2)));
  2098   0009B6  0E82               	movlw	low _time
  2099   0009B8  6E03               	movwf	clcd_print@data^0,c
  2100   0009BA  0E00               	movlw	high _time
  2101   0009BC  6E04               	movwf	(clcd_print@data+1)^0,c
  2102   0009BE  0EC2               	movlw	194
  2103   0009C0  6E05               	movwf	clcd_print@addr^0,c
  2104   0009C2  ECB4  F012         	call	_clcd_print	;wreg free
  2105                           
  2106                           ;car_black_box.c: 316:         } else {
  2107   0009C6  EFED  F004         	goto	l3966
  2108   0009CA                     l3964:
  2109                           
  2110                           ;car_black_box.c: 317:             clcd_print("  ", (0xC0 + (8)));
  2111   0009CA  0E66               	movlw	low (STR_19+14)
  2112   0009CC  6E03               	movwf	clcd_print@data^0,c
  2113   0009CE  0E2F               	movlw	high (STR_19+14)
  2114   0009D0  6E04               	movwf	(clcd_print@data+1)^0,c
  2115   0009D2  0EC8               	movlw	200
  2116   0009D4  6E05               	movwf	clcd_print@addr^0,c
  2117   0009D6  ECB4  F012         	call	_clcd_print	;wreg free
  2118   0009DA                     l3966:
  2119                           
  2120                           ;car_black_box.c: 320:     if (time_flag == 1) {
  2121   0009DA  0445               	decf	_time_flag^0,w,c
  2122   0009DC  A4D8               	btfss	status,2,c
  2123   0009DE  EFF3  F004         	goto	u3481
  2124   0009E2  EFF5  F004         	goto	u3480
  2125   0009E6                     u3481:
  2126   0009E6  EF0E  F005         	goto	l3974
  2127   0009EA                     u3480:
  2128   0009EA                     
  2129                           ;car_black_box.c: 321:         if (sec % 2) {
  2130   0009EA  A05E               	btfss	_sec^0,0,c
  2131   0009EC  EFFA  F004         	goto	u3491
  2132   0009F0  EFFC  F004         	goto	u3490
  2133   0009F4                     u3491:
  2134   0009F4  EF06  F005         	goto	l3972
  2135   0009F8                     u3490:
  2136   0009F8                     
  2137                           ;car_black_box.c: 322:             clcd_print(time, (0xC0 + (2)));
  2138   0009F8  0E82               	movlw	low _time
  2139   0009FA  6E03               	movwf	clcd_print@data^0,c
  2140   0009FC  0E00               	movlw	high _time
  2141   0009FE  6E04               	movwf	(clcd_print@data+1)^0,c
  2142   000A00  0EC2               	movlw	194
  2143   000A02  6E05               	movwf	clcd_print@addr^0,c
  2144   000A04  ECB4  F012         	call	_clcd_print	;wreg free
  2145                           
  2146                           ;car_black_box.c: 323:         } else {
  2147   000A08  EF0E  F005         	goto	l3974
  2148   000A0C                     l3972:
  2149                           
  2150                           ;car_black_box.c: 324:             clcd_print("  ", (0xC0 + (5)));
  2151   000A0C  0E66               	movlw	low (STR_19+14)
  2152   000A0E  6E03               	movwf	clcd_print@data^0,c
  2153   000A10  0E2F               	movlw	high (STR_19+14)
  2154   000A12  6E04               	movwf	(clcd_print@data+1)^0,c
  2155   000A14  0EC5               	movlw	197
  2156   000A16  6E05               	movwf	clcd_print@addr^0,c
  2157   000A18  ECB4  F012         	call	_clcd_print	;wreg free
  2158   000A1C                     l3974:
  2159                           
  2160                           ;car_black_box.c: 327:     if (time_flag == 2) {
  2161   000A1C  0E02               	movlw	2
  2162   000A1E  1845               	xorwf	_time_flag^0,w,c
  2163   000A20  A4D8               	btfss	status,2,c
  2164   000A22  EF15  F005         	goto	u3501
  2165   000A26  EF17  F005         	goto	u3500
  2166   000A2A                     u3501:
  2167   000A2A  EF30  F005         	goto	l3982
  2168   000A2E                     u3500:
  2169   000A2E                     
  2170                           ;car_black_box.c: 328:         if (sec % 2) {
  2171   000A2E  A05E               	btfss	_sec^0,0,c
  2172   000A30  EF1C  F005         	goto	u3511
  2173   000A34  EF1E  F005         	goto	u3510
  2174   000A38                     u3511:
  2175   000A38  EF28  F005         	goto	l3980
  2176   000A3C                     u3510:
  2177   000A3C                     
  2178                           ;car_black_box.c: 329:             clcd_print(time, (0xC0 + (2)));
  2179   000A3C  0E82               	movlw	low _time
  2180   000A3E  6E03               	movwf	clcd_print@data^0,c
  2181   000A40  0E00               	movlw	high _time
  2182   000A42  6E04               	movwf	(clcd_print@data+1)^0,c
  2183   000A44  0EC2               	movlw	194
  2184   000A46  6E05               	movwf	clcd_print@addr^0,c
  2185   000A48  ECB4  F012         	call	_clcd_print	;wreg free
  2186                           
  2187                           ;car_black_box.c: 330:         } else {
  2188   000A4C  EF30  F005         	goto	l3982
  2189   000A50                     l3980:
  2190                           
  2191                           ;car_black_box.c: 331:             clcd_print("  ", (0xC0 + (2)));
  2192   000A50  0E66               	movlw	low (STR_19+14)
  2193   000A52  6E03               	movwf	clcd_print@data^0,c
  2194   000A54  0E2F               	movlw	high (STR_19+14)
  2195   000A56  6E04               	movwf	(clcd_print@data+1)^0,c
  2196   000A58  0EC2               	movlw	194
  2197   000A5A  6E05               	movwf	clcd_print@addr^0,c
  2198   000A5C  ECB4  F012         	call	_clcd_print	;wreg free
  2199   000A60                     l3982:
  2200                           
  2201                           ;car_black_box.c: 335:     if (key == 11) {
  2202   000A60  0E0B               	movlw	11
  2203   000A62  1808               	xorwf	set_time@key^0,w,c
  2204   000A64  A4D8               	btfss	status,2,c
  2205   000A66  EF37  F005         	goto	u3521
  2206   000A6A  EF39  F005         	goto	u3520
  2207   000A6E                     u3521:
  2208   000A6E  EF98  F005         	goto	l4008
  2209   000A72                     u3520:
  2210   000A72                     
  2211                           ;car_black_box.c: 336:         prekey = 11;
  2212   000A72  0E0B               	movlw	11
  2213   000A74  6E4B               	movwf	_prekey^0,c
  2214   000A76                     
  2215                           ;car_black_box.c: 337:         if (wait++ > 400) {
  2216   000A76  5043               	movf	_wait^0,w,c
  2217   000A78  6E06               	movwf	??_set_time^0,c
  2218   000A7A  5044               	movf	(_wait+1)^0,w,c
  2219   000A7C  6E07               	movwf	(??_set_time+1)^0,c
  2220   000A7E  4A43               	infsnz	_wait^0,f,c
  2221   000A80  2A44               	incf	(_wait+1)^0,f,c
  2222   000A82  0E91               	movlw	145
  2223   000A84  5C06               	subwf	??_set_time^0,w,c
  2224   000A86  0E01               	movlw	1
  2225   000A88  5807               	subwfb	(??_set_time+1)^0,w,c
  2226   000A8A  A0D8               	btfss	status,0,c
  2227   000A8C  EF4A  F005         	goto	u3531
  2228   000A90  EF4C  F005         	goto	u3530
  2229   000A94                     u3531:
  2230   000A94  EF36  F006         	goto	l4050
  2231   000A98                     u3530:
  2232   000A98                     
  2233                           ;car_black_box.c: 338:             clock_reg[0] = ((time[0] - 48) << 4) | (time[1] - 48)
      +                          ;
  2234   000A98  C082  F006         	movff	_time,??_set_time
  2235   000A9C  3A06               	swapf	??_set_time^0,f,c
  2236   000A9E  0EF0               	movlw	240
  2237   000AA0  1606               	andwf	??_set_time^0,f,c
  2238   000AA2  0100               	movlb	0	; () banked
  2239   000AA4  5183               	movf	(_time+1)& (0+255),w,b
  2240   000AA6  0FD0               	addlw	208
  2241   000AA8  1006               	iorwf	??_set_time^0,w,c
  2242   000AAA  6E40               	movwf	_clock_reg^0,c
  2243                           
  2244                           ;car_black_box.c: 339:             clock_reg[1] = ((time[3] - 48) << 4) | (time[4] - 48)
      +                          ;
  2245   000AAC  C085  F006         	movff	_time+3,??_set_time
  2246   000AB0  3A06               	swapf	??_set_time^0,f,c
  2247   000AB2  0EF0               	movlw	240
  2248   000AB4  1606               	andwf	??_set_time^0,f,c
  2249   000AB6  5186               	movf	(_time+4)& (0+255),w,b
  2250   000AB8  0FD0               	addlw	208
  2251   000ABA  1006               	iorwf	??_set_time^0,w,c
  2252   000ABC  6E41               	movwf	(_clock_reg+1)^0,c
  2253                           
  2254                           ;car_black_box.c: 340:             clock_reg[2] = ((time[6] - 48) << 4) | (time[7] - 48)
      +                          ;
  2255   000ABE  C088  F006         	movff	_time+6,??_set_time
  2256   000AC2  3A06               	swapf	??_set_time^0,f,c
  2257   000AC4  0EF0               	movlw	240
  2258   000AC6  1606               	andwf	??_set_time^0,f,c
  2259   000AC8  5189               	movf	(_time+7)& (0+255),w,b
  2260   000ACA  0FD0               	addlw	208
  2261   000ACC  1006               	iorwf	??_set_time^0,w,c
  2262   000ACE  6E42               	movwf	(_clock_reg+2)^0,c
  2263   000AD0                     
  2264                           ; BSR set to: 0
  2265                           ;car_black_box.c: 341:             write_ds1307(0x02, clock_reg[0]);
  2266   000AD0  C040  F002         	movff	_clock_reg,write_ds1307@data
  2267   000AD4  0E02               	movlw	2
  2268   000AD6  ECA5  F014         	call	_write_ds1307
  2269   000ADA                     
  2270                           ;car_black_box.c: 342:             write_ds1307(0x01, clock_reg[1]);
  2271   000ADA  C041  F002         	movff	_clock_reg+1,write_ds1307@data
  2272   000ADE  0E01               	movlw	1
  2273   000AE0  ECA5  F014         	call	_write_ds1307
  2274   000AE4                     
  2275                           ;car_black_box.c: 343:             write_ds1307(0x00, clock_reg[2]);
  2276   000AE4  C042  F002         	movff	_clock_reg+2,write_ds1307@data
  2277   000AE8  0E00               	movlw	0
  2278   000AEA  ECA5  F014         	call	_write_ds1307
  2279   000AEE                     
  2280                           ;car_black_box.c: 344:             clcd_print("  Time updated  ", (0xC0 + (0)));
  2281   000AEE  0E7B               	movlw	low STR_69
  2282   000AF0  6E03               	movwf	clcd_print@data^0,c
  2283   000AF2  0E2E               	movlw	high STR_69
  2284   000AF4  6E04               	movwf	(clcd_print@data+1)^0,c
  2285   000AF6  0EC0               	movlw	192
  2286   000AF8  6E05               	movwf	clcd_print@addr^0,c
  2287   000AFA  ECB4  F012         	call	_clcd_print	;wreg free
  2288   000AFE                     
  2289                           ;car_black_box.c: 345:             _delay((unsigned long)((1000)*(20000000/4000.0)));
  2290   000AFE  0E1A               	movlw	26
  2291   000B00  6E07               	movwf	(??_set_time+1)^0,c
  2292   000B02  0E5E               	movlw	94
  2293   000B04  6E06               	movwf	??_set_time^0,c
  2294   000B06  0E6E               	movlw	110
  2295   000B08                     u4487:
  2296   000B08  2EE8               	decfsz	wreg,f,c
  2297   000B0A  D7FE               	bra	u4487
  2298   000B0C  2E06               	decfsz	??_set_time^0,f,c
  2299   000B0E  D7FC               	bra	u4487
  2300   000B10  2E07               	decfsz	(??_set_time+1)^0,f,c
  2301   000B12  D7FA               	bra	u4487
  2302   000B14  D000               	nop2	
  2303   000B16                     
  2304                           ;car_black_box.c: 346:             mode = wait = time_flag = 0;
  2305   000B16  0E00               	movlw	0
  2306   000B18  6E45               	movwf	_time_flag^0,c
  2307   000B1A  C045  F043         	movff	_time_flag,_wait
  2308   000B1E  6A44               	clrf	(_wait+1)^0,c
  2309   000B20  C043  F049         	movff	_wait,_mode
  2310   000B24                     
  2311                           ;car_black_box.c: 347:             pass_flag = 2;
  2312   000B24  0E02               	movlw	2
  2313   000B26  6E5A               	movwf	_pass_flag^0,c
  2314   000B28                     
  2315                           ;car_black_box.c: 348:             sec = 60;
  2316   000B28  0E3C               	movlw	60
  2317   000B2A  6E5E               	movwf	_sec^0,c
  2318   000B2C  EF94  F006         	goto	l396
  2319   000B30                     l4008:
  2320   000B30  5043               	movf	_wait^0,w,c
  2321   000B32  1044               	iorwf	(_wait+1)^0,w,c
  2322   000B34  B4D8               	btfsc	status,2,c
  2323   000B36  EF9F  F005         	goto	u3541
  2324   000B3A  EFA1  F005         	goto	u3540
  2325   000B3E                     u3541:
  2326   000B3E  EF36  F006         	goto	l4050
  2327   000B42                     u3540:
  2328   000B42  0E90               	movlw	144
  2329   000B44  5C43               	subwf	_wait^0,w,c
  2330   000B46  0E01               	movlw	1
  2331   000B48  5844               	subwfb	(_wait+1)^0,w,c
  2332   000B4A  B0D8               	btfsc	status,0,c
  2333   000B4C  EFAA  F005         	goto	u3551
  2334   000B50  EFAC  F005         	goto	u3550
  2335   000B54                     u3551:
  2336   000B54  EF36  F006         	goto	l4050
  2337   000B58                     u3550:
  2338   000B58  2808               	incf	set_time@key^0,w,c
  2339   000B5A  A4D8               	btfss	status,2,c
  2340   000B5C  EFB2  F005         	goto	u3561
  2341   000B60  EFB4  F005         	goto	u3560
  2342   000B64                     u3561:
  2343   000B64  EF36  F006         	goto	l4050
  2344   000B68                     u3560:
  2345   000B68  0E0B               	movlw	11
  2346   000B6A  184B               	xorwf	_prekey^0,w,c
  2347   000B6C  A4D8               	btfss	status,2,c
  2348   000B6E  EFBB  F005         	goto	u3571
  2349   000B72  EFBD  F005         	goto	u3570
  2350   000B76                     u3571:
  2351   000B76  EF36  F006         	goto	l4050
  2352   000B7A                     u3570:
  2353   000B7A                     
  2354                           ;car_black_box.c: 352:         if (time_flag == 0) {
  2355   000B7A  5045               	movf	_time_flag^0,w,c
  2356   000B7C  A4D8               	btfss	status,2,c
  2357   000B7E  EFC3  F005         	goto	u3581
  2358   000B82  EFC5  F005         	goto	u3580
  2359   000B86                     u3581:
  2360   000B86  EFE0  F005         	goto	l4026
  2361   000B8A                     u3580:
  2362   000B8A                     
  2363                           ;car_black_box.c: 353:             if (time[7]++ == '9') {
  2364   000B8A  0100               	movlb	0	; () banked
  2365   000B8C  2B89               	incf	(_time+7)& (0+255),f,b
  2366   000B8E  0E3A               	movlw	58
  2367   000B90  1989               	xorwf	(_time+7)& (0+255),w,b
  2368   000B92  A4D8               	btfss	status,2,c
  2369   000B94  EFCE  F005         	goto	u3591
  2370   000B98  EFD0  F005         	goto	u3590
  2371   000B9C                     u3591:
  2372   000B9C  EF32  F006         	goto	l402
  2373   000BA0                     u3590:
  2374   000BA0                     
  2375                           ; BSR set to: 0
  2376                           ;car_black_box.c: 354:                 time[7] = '0';
  2377   000BA0  0E30               	movlw	48
  2378   000BA2  6F89               	movwf	(_time+7)& (0+255),b
  2379   000BA4                     
  2380                           ; BSR set to: 0
  2381                           ;car_black_box.c: 355:                 if (time[6]++ == '5')
  2382   000BA4  2B88               	incf	(_time+6)& (0+255),f,b
  2383   000BA6  0E36               	movlw	54
  2384   000BA8  1988               	xorwf	(_time+6)& (0+255),w,b
  2385   000BAA  A4D8               	btfss	status,2,c
  2386   000BAC  EFDA  F005         	goto	u3601
  2387   000BB0  EFDC  F005         	goto	u3600
  2388   000BB4                     u3601:
  2389   000BB4  EF32  F006         	goto	l402
  2390   000BB8                     u3600:
  2391   000BB8                     
  2392                           ; BSR set to: 0
  2393                           ;car_black_box.c: 356:                     time[6] = '0';
  2394   000BB8  0E30               	movlw	48
  2395   000BBA  6F88               	movwf	(_time+6)& (0+255),b
  2396   000BBC  EF32  F006         	goto	l402
  2397   000BC0                     l4026:
  2398   000BC0  0445               	decf	_time_flag^0,w,c
  2399   000BC2  A4D8               	btfss	status,2,c
  2400   000BC4  EFE6  F005         	goto	u3611
  2401   000BC8  EFE8  F005         	goto	u3610
  2402   000BCC                     u3611:
  2403   000BCC  EF03  F006         	goto	l4036
  2404   000BD0                     u3610:
  2405   000BD0                     
  2406                           ;car_black_box.c: 359:             if (time[4]++ == '9') {
  2407   000BD0  0100               	movlb	0	; () banked
  2408   000BD2  2B86               	incf	(_time+4)& (0+255),f,b
  2409   000BD4  0E3A               	movlw	58
  2410   000BD6  1986               	xorwf	(_time+4)& (0+255),w,b
  2411   000BD8  A4D8               	btfss	status,2,c
  2412   000BDA  EFF1  F005         	goto	u3621
  2413   000BDE  EFF3  F005         	goto	u3620
  2414   000BE2                     u3621:
  2415   000BE2  EF32  F006         	goto	l402
  2416   000BE6                     u3620:
  2417   000BE6                     
  2418                           ; BSR set to: 0
  2419                           ;car_black_box.c: 360:                 time[4] = '0';
  2420   000BE6  0E30               	movlw	48
  2421   000BE8  6F86               	movwf	(_time+4)& (0+255),b
  2422   000BEA                     
  2423                           ; BSR set to: 0
  2424                           ;car_black_box.c: 361:                 if (time[3]++ == '5')
  2425   000BEA  2B85               	incf	(_time+3)& (0+255),f,b
  2426   000BEC  0E36               	movlw	54
  2427   000BEE  1985               	xorwf	(_time+3)& (0+255),w,b
  2428   000BF0  A4D8               	btfss	status,2,c
  2429   000BF2  EFFD  F005         	goto	u3631
  2430   000BF6  EFFF  F005         	goto	u3630
  2431   000BFA                     u3631:
  2432   000BFA  EF32  F006         	goto	l402
  2433   000BFE                     u3630:
  2434   000BFE                     
  2435                           ; BSR set to: 0
  2436                           ;car_black_box.c: 362:                     time[3] = '0';
  2437   000BFE  0E30               	movlw	48
  2438   000C00  6F85               	movwf	(_time+3)& (0+255),b
  2439   000C02  EF32  F006         	goto	l402
  2440   000C06                     l4036:
  2441   000C06  0E02               	movlw	2
  2442   000C08  1845               	xorwf	_time_flag^0,w,c
  2443   000C0A  A4D8               	btfss	status,2,c
  2444   000C0C  EF0A  F006         	goto	u3641
  2445   000C10  EF0C  F006         	goto	u3640
  2446   000C14                     u3641:
  2447   000C14  EF32  F006         	goto	l402
  2448   000C18                     u3640:
  2449   000C18                     
  2450                           ;car_black_box.c: 365:             if (time[1]++ == '9') {
  2451   000C18  0100               	movlb	0	; () banked
  2452   000C1A  2B83               	incf	(_time+1)& (0+255),f,b
  2453   000C1C  0E3A               	movlw	58
  2454   000C1E  1983               	xorwf	(_time+1)& (0+255),w,b
  2455   000C20  A4D8               	btfss	status,2,c
  2456   000C22  EF15  F006         	goto	u3651
  2457   000C26  EF17  F006         	goto	u3650
  2458   000C2A                     u3651:
  2459   000C2A  EF1C  F006         	goto	l4044
  2460   000C2E                     u3650:
  2461   000C2E                     
  2462                           ; BSR set to: 0
  2463                           ;car_black_box.c: 366:                 time[1] = '0';
  2464   000C2E  0E30               	movlw	48
  2465   000C30  6F83               	movwf	(_time+1)& (0+255),b
  2466   000C32                     
  2467                           ; BSR set to: 0
  2468                           ;car_black_box.c: 367:                 time[0]++;
  2469   000C32  2B82               	incf	_time& (0+255),f,b
  2470                           
  2471                           ;car_black_box.c: 368:             } else if (time[1] == '4' && time[0] == '2') {
  2472   000C34  EF32  F006         	goto	l402
  2473   000C38                     l4044:
  2474                           
  2475                           ; BSR set to: 0
  2476   000C38  0E34               	movlw	52
  2477   000C3A  1983               	xorwf	(_time+1)& (0+255),w,b
  2478   000C3C  A4D8               	btfss	status,2,c
  2479   000C3E  EF23  F006         	goto	u3661
  2480   000C42  EF25  F006         	goto	u3660
  2481   000C46                     u3661:
  2482   000C46  EF32  F006         	goto	l402
  2483   000C4A                     u3660:
  2484   000C4A                     
  2485                           ; BSR set to: 0
  2486   000C4A  0E32               	movlw	50
  2487   000C4C  1982               	xorwf	_time& (0+255),w,b
  2488   000C4E  A4D8               	btfss	status,2,c
  2489   000C50  EF2C  F006         	goto	u3671
  2490   000C54  EF2E  F006         	goto	u3670
  2491   000C58                     u3671:
  2492   000C58  EF32  F006         	goto	l402
  2493   000C5C                     u3670:
  2494   000C5C                     
  2495                           ; BSR set to: 0
  2496                           ;car_black_box.c: 369:                 time[0] = '0';
  2497   000C5C  0E30               	movlw	48
  2498   000C5E  6F82               	movwf	_time& (0+255),b
  2499                           
  2500                           ;car_black_box.c: 370:                 time[1] = '0';
  2501   000C60  0E30               	movlw	48
  2502   000C62  6F83               	movwf	(_time+1)& (0+255),b
  2503   000C64                     l402:
  2504                           
  2505                           ;car_black_box.c: 373:         wait = 0;
  2506   000C64  0E00               	movlw	0
  2507   000C66  6E44               	movwf	(_wait+1)^0,c
  2508   000C68  0E00               	movlw	0
  2509   000C6A  6E43               	movwf	_wait^0,c
  2510   000C6C                     l4050:
  2511                           
  2512                           ;car_black_box.c: 376:     if (key == 12) {
  2513   000C6C  0E0C               	movlw	12
  2514   000C6E  1808               	xorwf	set_time@key^0,w,c
  2515   000C70  A4D8               	btfss	status,2,c
  2516   000C72  EF3D  F006         	goto	u3681
  2517   000C76  EF3F  F006         	goto	u3680
  2518   000C7A                     u3681:
  2519   000C7A  EF5F  F006         	goto	l4060
  2520   000C7E                     u3680:
  2521   000C7E                     
  2522                           ;car_black_box.c: 377:         prekey = 12;
  2523   000C7E  0E0C               	movlw	12
  2524   000C80  6E4B               	movwf	_prekey^0,c
  2525   000C82                     
  2526                           ;car_black_box.c: 378:         if (wait++ > 400) {
  2527   000C82  5043               	movf	_wait^0,w,c
  2528   000C84  6E06               	movwf	??_set_time^0,c
  2529   000C86  5044               	movf	(_wait+1)^0,w,c
  2530   000C88  6E07               	movwf	(??_set_time+1)^0,c
  2531   000C8A  4A43               	infsnz	_wait^0,f,c
  2532   000C8C  2A44               	incf	(_wait+1)^0,f,c
  2533   000C8E  0E91               	movlw	145
  2534   000C90  5C06               	subwf	??_set_time^0,w,c
  2535   000C92  0E01               	movlw	1
  2536   000C94  5807               	subwfb	(??_set_time+1)^0,w,c
  2537   000C96  A0D8               	btfss	status,0,c
  2538   000C98  EF50  F006         	goto	u3691
  2539   000C9C  EF52  F006         	goto	u3690
  2540   000CA0                     u3691:
  2541   000CA0  EF94  F006         	goto	l396
  2542   000CA4                     u3690:
  2543   000CA4                     
  2544                           ;car_black_box.c: 379:             mode = wait = time_flag = 0;
  2545   000CA4  0E00               	movlw	0
  2546   000CA6  6E45               	movwf	_time_flag^0,c
  2547   000CA8  C045  F043         	movff	_time_flag,_wait
  2548   000CAC  6A44               	clrf	(_wait+1)^0,c
  2549   000CAE  C043  F049         	movff	_wait,_mode
  2550                           
  2551                           ;car_black_box.c: 380:             pass_flag = 2;
  2552   000CB2  0E02               	movlw	2
  2553   000CB4  6E5A               	movwf	_pass_flag^0,c
  2554                           
  2555                           ;car_black_box.c: 381:             sec = 60;
  2556   000CB6  0E3C               	movlw	60
  2557   000CB8  6E5E               	movwf	_sec^0,c
  2558   000CBA  EF94  F006         	goto	l396
  2559   000CBE                     l4060:
  2560   000CBE  5043               	movf	_wait^0,w,c
  2561   000CC0  1044               	iorwf	(_wait+1)^0,w,c
  2562   000CC2  B4D8               	btfsc	status,2,c
  2563   000CC4  EF66  F006         	goto	u3701
  2564   000CC8  EF68  F006         	goto	u3700
  2565   000CCC                     u3701:
  2566   000CCC  EF94  F006         	goto	l396
  2567   000CD0                     u3700:
  2568   000CD0  0E90               	movlw	144
  2569   000CD2  5C43               	subwf	_wait^0,w,c
  2570   000CD4  0E01               	movlw	1
  2571   000CD6  5844               	subwfb	(_wait+1)^0,w,c
  2572   000CD8  B0D8               	btfsc	status,0,c
  2573   000CDA  EF71  F006         	goto	u3711
  2574   000CDE  EF73  F006         	goto	u3710
  2575   000CE2                     u3711:
  2576   000CE2  EF94  F006         	goto	l396
  2577   000CE6                     u3710:
  2578   000CE6  2808               	incf	set_time@key^0,w,c
  2579   000CE8  A4D8               	btfss	status,2,c
  2580   000CEA  EF79  F006         	goto	u3721
  2581   000CEE  EF7B  F006         	goto	u3720
  2582   000CF2                     u3721:
  2583   000CF2  EF94  F006         	goto	l396
  2584   000CF6                     u3720:
  2585   000CF6  0E0C               	movlw	12
  2586   000CF8  184B               	xorwf	_prekey^0,w,c
  2587   000CFA  A4D8               	btfss	status,2,c
  2588   000CFC  EF82  F006         	goto	u3731
  2589   000D00  EF84  F006         	goto	u3730
  2590   000D04                     u3731:
  2591   000D04  EF94  F006         	goto	l396
  2592   000D08                     u3730:
  2593   000D08                     
  2594                           ;car_black_box.c: 385:         if (time_flag++ == 2)
  2595   000D08  2A45               	incf	_time_flag^0,f,c
  2596   000D0A  0E03               	movlw	3
  2597   000D0C  1845               	xorwf	_time_flag^0,w,c
  2598   000D0E  A4D8               	btfss	status,2,c
  2599   000D10  EF8C  F006         	goto	u3741
  2600   000D14  EF8E  F006         	goto	u3740
  2601   000D18                     u3741:
  2602   000D18  EF90  F006         	goto	l415
  2603   000D1C                     u3740:
  2604   000D1C                     
  2605                           ;car_black_box.c: 386:             time_flag = 0;
  2606   000D1C  0E00               	movlw	0
  2607   000D1E  6E45               	movwf	_time_flag^0,c
  2608   000D20                     l415:
  2609                           
  2610                           ;car_black_box.c: 387:         wait = 0;
  2611   000D20  0E00               	movlw	0
  2612   000D22  6E44               	movwf	(_wait+1)^0,c
  2613   000D24  0E00               	movlw	0
  2614   000D26  6E43               	movwf	_wait^0,c
  2615   000D28                     l396:
  2616   000D28  0012               	return		;funcret
  2617   000D2A                     __end_of_set_time:
  2618                           	callstack 0
  2619                           
  2620 ;; *************** function _read_switches *****************
  2621 ;; Defined at:
  2622 ;;		line 20 in file "matrix_keypad.c"
  2623 ;; Parameters:    Size  Location     Type
  2624 ;;  detection       1    wreg     unsigned char 
  2625 ;; Auto vars:     Size  Location     Type
  2626 ;;  detection       1    0[COMRAM] unsigned char 
  2627 ;; Return value:  Size  Location     Type
  2628 ;;                  1    wreg      unsigned char 
  2629 ;; Registers used:
  2630 ;;		wreg, status,2, status,0, cstack
  2631 ;; Tracked objects:
  2632 ;;		On entry : 0/0
  2633 ;;		On exit  : 0/0
  2634 ;;		Unchanged: 0/0
  2635 ;; Data sizes:     COMRAM   BANK0   BANK1   BANK2   BANK3   BANK4   BANK5
  2636 ;;      Params:         0       0       0       0       0       0       0
  2637 ;;      Locals:         1       0       0       0       0       0       0
  2638 ;;      Temps:          0       0       0       0       0       0       0
  2639 ;;      Totals:         1       0       0       0       0       0       0
  2640 ;;Total ram usage:        1 bytes
  2641 ;; Hardware stack levels used: 1
  2642 ;; Hardware stack levels required when called: 2
  2643 ;; This function calls:
  2644 ;;		_scan_key
  2645 ;; This function is called by:
  2646 ;;		_main
  2647 ;; This function uses a non-reentrant model
  2648 ;;
  2649                           
  2650                           	psect	text3
  2651   0024F6                     __ptext3:
  2652                           	callstack 0
  2653   0024F6                     _read_switches:
  2654                           	callstack 28
  2655                           
  2656                           ;incstack = 0
  2657                           ;read_switches@detection stored from wreg
  2658   0024F6  6E01               	movwf	read_switches@detection^0,c
  2659   0024F8                     
  2660                           ;matrix_keypad.c: 20: unsigned char read_switches(unsigned char detection);matrix_keypad
      +                          .c: 21: {;matrix_keypad.c: 22:     static unsigned char once = 1, key;;matrix_keypad.c: 
      +                          25:     if ( detection == 0 )
  2661   0024F8  5001               	movf	read_switches@detection^0,w,c
  2662   0024FA  A4D8               	btfss	status,2,c
  2663   0024FC  EF82  F012         	goto	u2781
  2664   002500  EF84  F012         	goto	u2780
  2665   002504                     u2781:
  2666   002504  EF88  F012         	goto	l3592
  2667   002508                     u2780:
  2668   002508                     
  2669                           ;matrix_keypad.c: 26:     {;matrix_keypad.c: 27:         return scan_key();
  2670   002508  EC04  F00E         	call	_scan_key	;wreg free
  2671   00250C  EFB3  F012         	goto	l168
  2672   002510                     l3592:
  2673   002510  0401               	decf	read_switches@detection^0,w,c
  2674   002512  A4D8               	btfss	status,2,c
  2675   002514  EF8E  F012         	goto	u2791
  2676   002518  EF90  F012         	goto	u2790
  2677   00251C                     u2791:
  2678   00251C  EFB3  F012         	goto	l168
  2679   002520                     u2790:
  2680   002520                     
  2681                           ;matrix_keypad.c: 32:     {;matrix_keypad.c: 33:         key = scan_key();
  2682   002520  EC04  F00E         	call	_scan_key	;wreg free
  2683   002524  6E56               	movwf	read_switches@key^0,c
  2684   002526                     
  2685                           ;matrix_keypad.c: 35:         if ( (key != 0xFF) && once )
  2686   002526  2856               	incf	read_switches@key^0,w,c
  2687   002528  B4D8               	btfsc	status,2,c
  2688   00252A  EF99  F012         	goto	u2801
  2689   00252E  EF9B  F012         	goto	u2800
  2690   002532                     u2801:
  2691   002532  EFA8  F012         	goto	l3606
  2692   002536                     u2800:
  2693   002536  505D               	movf	read_switches@once^0,w,c
  2694   002538  B4D8               	btfsc	status,2,c
  2695   00253A  EFA1  F012         	goto	u2811
  2696   00253E  EFA3  F012         	goto	u2810
  2697   002542                     u2811:
  2698   002542  EFA8  F012         	goto	l3606
  2699   002546                     u2810:
  2700   002546                     
  2701                           ;matrix_keypad.c: 36:         {;matrix_keypad.c: 37:             once = 0;
  2702   002546  0E00               	movlw	0
  2703   002548  6E5D               	movwf	read_switches@once^0,c
  2704                           
  2705                           ;matrix_keypad.c: 38:             return key;
  2706   00254A  5056               	movf	read_switches@key^0,w,c
  2707   00254C  EFB3  F012         	goto	l168
  2708   002550                     l3606:
  2709   002550  2856               	incf	read_switches@key^0,w,c
  2710   002552  A4D8               	btfss	status,2,c
  2711   002554  EFAE  F012         	goto	u2821
  2712   002558  EFB0  F012         	goto	u2820
  2713   00255C                     u2821:
  2714   00255C  EFB2  F012         	goto	l3610
  2715   002560                     u2820:
  2716   002560                     
  2717                           ;matrix_keypad.c: 41:         {;matrix_keypad.c: 42:             once = 1;
  2718   002560  0E01               	movlw	1
  2719   002562  6E5D               	movwf	read_switches@once^0,c
  2720   002564                     l3610:
  2721                           
  2722                           ;matrix_keypad.c: 45:         return 0xFF;
  2723   002564  0EFF               	movlw	255
  2724   002566                     l168:
  2725   002566  0012               	return		;funcret
  2726   002568                     __end_of_read_switches:
  2727                           	callstack 0
  2728                           
  2729 ;; *************** function _scan_key *****************
  2730 ;; Defined at:
  2731 ;;		line 50 in file "matrix_keypad.c"
  2732 ;; Parameters:    Size  Location     Type
  2733 ;;		None
  2734 ;; Auto vars:     Size  Location     Type
  2735 ;;		None
  2736 ;; Return value:  Size  Location     Type
  2737 ;;                  1    wreg      unsigned char 
  2738 ;; Registers used:
  2739 ;;		wreg
  2740 ;; Tracked objects:
  2741 ;;		On entry : 0/0
  2742 ;;		On exit  : 0/0
  2743 ;;		Unchanged: 0/0
  2744 ;; Data sizes:     COMRAM   BANK0   BANK1   BANK2   BANK3   BANK4   BANK5
  2745 ;;      Params:         0       0       0       0       0       0       0
  2746 ;;      Locals:         0       0       0       0       0       0       0
  2747 ;;      Temps:          0       0       0       0       0       0       0
  2748 ;;      Totals:         0       0       0       0       0       0       0
  2749 ;;Total ram usage:        0 bytes
  2750 ;; Hardware stack levels used: 1
  2751 ;; Hardware stack levels required when called: 1
  2752 ;; This function calls:
  2753 ;;		Nothing
  2754 ;; This function is called by:
  2755 ;;		_read_switches
  2756 ;; This function uses a non-reentrant model
  2757 ;;
  2758                           
  2759                           	psect	text4
  2760   001C08                     __ptext4:
  2761                           	callstack 0
  2762   001C08                     _scan_key:
  2763                           	callstack 28
  2764   001C08                     
  2765                           ;matrix_keypad.c: 53:     RB5 = 0;
  2766   001C08  9A81               	bcf	3969,5,c	;volatile
  2767                           
  2768                           ;matrix_keypad.c: 54:     RB6 = 1;
  2769   001C0A  8C81               	bsf	3969,6,c	;volatile
  2770                           
  2771                           ;matrix_keypad.c: 55:     RB7 = 1;
  2772   001C0C  8E81               	bsf	3969,7,c	;volatile
  2773                           
  2774                           ;matrix_keypad.c: 58:     if ( RB1 == 0 )
  2775   001C0E  B281               	btfsc	3969,1,c	;volatile
  2776   001C10  EF0C  F00E         	goto	u2401
  2777   001C14  EF0E  F00E         	goto	u2400
  2778   001C18                     u2401:
  2779   001C18  EF11  F00E         	goto	l176
  2780   001C1C                     u2400:
  2781   001C1C                     
  2782                           ;matrix_keypad.c: 59:         return 1;
  2783   001C1C  0E01               	movlw	1
  2784   001C1E  EF87  F00E         	goto	l177
  2785   001C22                     l176:
  2786   001C22  B481               	btfsc	3969,2,c	;volatile
  2787   001C24  EF16  F00E         	goto	u2411
  2788   001C28  EF18  F00E         	goto	u2410
  2789   001C2C                     u2411:
  2790   001C2C  EF1B  F00E         	goto	l179
  2791   001C30                     u2410:
  2792   001C30                     
  2793                           ;matrix_keypad.c: 61:         return 4;
  2794   001C30  0E04               	movlw	4
  2795   001C32  EF87  F00E         	goto	l177
  2796   001C36                     l179:
  2797   001C36  B681               	btfsc	3969,3,c	;volatile
  2798   001C38  EF20  F00E         	goto	u2421
  2799   001C3C  EF22  F00E         	goto	u2420
  2800   001C40                     u2421:
  2801   001C40  EF25  F00E         	goto	l181
  2802   001C44                     u2420:
  2803   001C44                     
  2804                           ;matrix_keypad.c: 63:         return 7;
  2805   001C44  0E07               	movlw	7
  2806   001C46  EF87  F00E         	goto	l177
  2807   001C4A                     l181:
  2808   001C4A  B881               	btfsc	3969,4,c	;volatile
  2809   001C4C  EF2A  F00E         	goto	u2431
  2810   001C50  EF2C  F00E         	goto	u2430
  2811   001C54                     u2431:
  2812   001C54  EF2F  F00E         	goto	l178
  2813   001C58                     u2430:
  2814   001C58                     
  2815                           ;matrix_keypad.c: 65:         return 10;
  2816   001C58  0E0A               	movlw	10
  2817   001C5A  EF87  F00E         	goto	l177
  2818   001C5E                     l178:
  2819                           
  2820                           ;matrix_keypad.c: 68:     RB5 = 1;
  2821   001C5E  8A81               	bsf	3969,5,c	;volatile
  2822                           
  2823                           ;matrix_keypad.c: 69:     RB6 = 0;
  2824   001C60  9C81               	bcf	3969,6,c	;volatile
  2825                           
  2826                           ;matrix_keypad.c: 70:     RB7 = 1;
  2827   001C62  8E81               	bsf	3969,7,c	;volatile
  2828                           
  2829                           ;matrix_keypad.c: 73:     if ( RB1 == 0 )
  2830   001C64  B281               	btfsc	3969,1,c	;volatile
  2831   001C66  EF37  F00E         	goto	u2441
  2832   001C6A  EF39  F00E         	goto	u2440
  2833   001C6E                     u2441:
  2834   001C6E  EF3C  F00E         	goto	l184
  2835   001C72                     u2440:
  2836   001C72                     
  2837                           ;matrix_keypad.c: 74:         return 2;
  2838   001C72  0E02               	movlw	2
  2839   001C74  EF87  F00E         	goto	l177
  2840   001C78                     l184:
  2841   001C78  B481               	btfsc	3969,2,c	;volatile
  2842   001C7A  EF41  F00E         	goto	u2451
  2843   001C7E  EF43  F00E         	goto	u2450
  2844   001C82                     u2451:
  2845   001C82  EF46  F00E         	goto	l186
  2846   001C86                     u2450:
  2847   001C86                     
  2848                           ;matrix_keypad.c: 76:         return 5;
  2849   001C86  0E05               	movlw	5
  2850   001C88  EF87  F00E         	goto	l177
  2851   001C8C                     l186:
  2852   001C8C  B681               	btfsc	3969,3,c	;volatile
  2853   001C8E  EF4B  F00E         	goto	u2461
  2854   001C92  EF4D  F00E         	goto	u2460
  2855   001C96                     u2461:
  2856   001C96  EF50  F00E         	goto	l188
  2857   001C9A                     u2460:
  2858   001C9A                     
  2859                           ;matrix_keypad.c: 78:         return 8;
  2860   001C9A  0E08               	movlw	8
  2861   001C9C  EF87  F00E         	goto	l177
  2862   001CA0                     l188:
  2863   001CA0  B881               	btfsc	3969,4,c	;volatile
  2864   001CA2  EF55  F00E         	goto	u2471
  2865   001CA6  EF57  F00E         	goto	u2470
  2866   001CAA                     u2471:
  2867   001CAA  EF5A  F00E         	goto	l185
  2868   001CAE                     u2470:
  2869   001CAE                     
  2870                           ;matrix_keypad.c: 80:         return 11;
  2871   001CAE  0E0B               	movlw	11
  2872   001CB0  EF87  F00E         	goto	l177
  2873   001CB4                     l185:
  2874                           
  2875                           ;matrix_keypad.c: 83:     RB5 = 1;
  2876   001CB4  8A81               	bsf	3969,5,c	;volatile
  2877                           
  2878                           ;matrix_keypad.c: 84:     RB6 = 1;
  2879   001CB6  8C81               	bsf	3969,6,c	;volatile
  2880                           
  2881                           ;matrix_keypad.c: 85:     RB7 = 0;
  2882   001CB8  9E81               	bcf	3969,7,c	;volatile
  2883                           
  2884                           ;matrix_keypad.c: 86:     RB7 = 0;
  2885   001CBA  9E81               	bcf	3969,7,c	;volatile
  2886                           
  2887                           ;matrix_keypad.c: 89:     if ( RB1 == 0 )
  2888   001CBC  B281               	btfsc	3969,1,c	;volatile
  2889   001CBE  EF63  F00E         	goto	u2481
  2890   001CC2  EF65  F00E         	goto	u2480
  2891   001CC6                     u2481:
  2892   001CC6  EF68  F00E         	goto	l191
  2893   001CCA                     u2480:
  2894   001CCA                     
  2895                           ;matrix_keypad.c: 90:         return 3;
  2896   001CCA  0E03               	movlw	3
  2897   001CCC  EF87  F00E         	goto	l177
  2898   001CD0                     l191:
  2899   001CD0  B481               	btfsc	3969,2,c	;volatile
  2900   001CD2  EF6D  F00E         	goto	u2491
  2901   001CD6  EF6F  F00E         	goto	u2490
  2902   001CDA                     u2491:
  2903   001CDA  EF72  F00E         	goto	l193
  2904   001CDE                     u2490:
  2905   001CDE                     
  2906                           ;matrix_keypad.c: 92:         return 6;
  2907   001CDE  0E06               	movlw	6
  2908   001CE0  EF87  F00E         	goto	l177
  2909   001CE4                     l193:
  2910   001CE4  B681               	btfsc	3969,3,c	;volatile
  2911   001CE6  EF77  F00E         	goto	u2501
  2912   001CEA  EF79  F00E         	goto	u2500
  2913   001CEE                     u2501:
  2914   001CEE  EF7C  F00E         	goto	l195
  2915   001CF2                     u2500:
  2916   001CF2                     
  2917                           ;matrix_keypad.c: 94:         return 9;
  2918   001CF2  0E09               	movlw	9
  2919   001CF4  EF87  F00E         	goto	l177
  2920   001CF8                     l195:
  2921   001CF8  B881               	btfsc	3969,4,c	;volatile
  2922   001CFA  EF81  F00E         	goto	u2511
  2923   001CFE  EF83  F00E         	goto	u2510
  2924   001D02                     u2511:
  2925   001D02  EF86  F00E         	goto	l194
  2926   001D06                     u2510:
  2927   001D06                     
  2928                           ;matrix_keypad.c: 96:         return 12;
  2929   001D06  0E0C               	movlw	12
  2930   001D08  EF87  F00E         	goto	l177
  2931   001D0C                     l194:
  2932   001D0C                     
  2933                           ;matrix_keypad.c: 98:     return 0xFF;
  2934   001D0C  0EFF               	movlw	255
  2935   001D0E                     l177:
  2936   001D0E  0012               	return		;funcret
  2937   001D10                     __end_of_scan_key:
  2938                           	callstack 0
  2939                           
  2940 ;; *************** function _read_adc *****************
  2941 ;; Defined at:
  2942 ;;		line 30 in file "adc.c"
  2943 ;; Parameters:    Size  Location     Type
  2944 ;;  channel         1    wreg     unsigned char 
  2945 ;; Auto vars:     Size  Location     Type
  2946 ;;  channel         1    7[COMRAM] unsigned char 
  2947 ;; Return value:  Size  Location     Type
  2948 ;;                  2    0[COMRAM] unsigned short 
  2949 ;; Registers used:
  2950 ;;		wreg, status,2, status,0
  2951 ;; Tracked objects:
  2952 ;;		On entry : 0/0
  2953 ;;		On exit  : 0/0
  2954 ;;		Unchanged: 0/0
  2955 ;; Data sizes:     COMRAM   BANK0   BANK1   BANK2   BANK3   BANK4   BANK5
  2956 ;;      Params:         2       0       0       0       0       0       0
  2957 ;;      Locals:         1       0       0       0       0       0       0
  2958 ;;      Temps:          5       0       0       0       0       0       0
  2959 ;;      Totals:         8       0       0       0       0       0       0
  2960 ;;Total ram usage:        8 bytes
  2961 ;; Hardware stack levels used: 1
  2962 ;; Hardware stack levels required when called: 1
  2963 ;; This function calls:
  2964 ;;		Nothing
  2965 ;; This function is called by:
  2966 ;;		_main
  2967 ;; This function uses a non-reentrant model
  2968 ;;
  2969                           
  2970                           	psect	text5
  2971   0026F6                     __ptext5:
  2972                           	callstack 0
  2973   0026F6                     _read_adc:
  2974                           	callstack 29
  2975                           
  2976                           ;incstack = 0
  2977                           ;read_adc@channel stored from wreg
  2978   0026F6  6E08               	movwf	read_adc@channel^0,c
  2979   0026F8                     
  2980                           ;adc.c: 30: unsigned short read_adc(unsigned char channel);adc.c: 31: {;adc.c: 32:     A
      +                          DCON0 = (ADCON0 & 0xC3) | (channel << 2);
  2981   0026F8  C008  F003         	movff	read_adc@channel,??_read_adc
  2982   0026FC  90D8               	bcf	status,0,c
  2983   0026FE  3603               	rlcf	??_read_adc^0,f,c
  2984   002700  90D8               	bcf	status,0,c
  2985   002702  3603               	rlcf	??_read_adc^0,f,c
  2986   002704  50C2               	movf	194,w,c	;volatile
  2987   002706  0BC3               	andlw	195
  2988   002708  1003               	iorwf	??_read_adc^0,w,c
  2989   00270A  6EC2               	movwf	194,c	;volatile
  2990   00270C                     
  2991                           ;adc.c: 34:     GO = 1;
  2992   00270C  82C2               	bsf	4034,1,c	;volatile
  2993                           
  2994                           ;adc.c: 35:     while ( GO )
  2995   00270E  EF9B  F013         	goto	l493
  2996   002712                     l3570:
  2997                           
  2998                           ;adc.c: 36:     {;adc.c: 37:         return (ADRESL | ((ADRESH & 0x03) << 8));
  2999   002712  CFC4 F003          	movff	4036,??_read_adc	;volatile
  3000   002716  0E03               	movlw	3
  3001   002718  1603               	andwf	??_read_adc^0,f,c
  3002   00271A  5003               	movf	??_read_adc^0,w,c
  3003   00271C  6E05               	movwf	(??_read_adc+2)^0,c
  3004   00271E  6A04               	clrf	(??_read_adc+1)^0,c
  3005   002720  50C3               	movf	195,w,c	;volatile
  3006   002722  6E06               	movwf	(??_read_adc+3)^0,c
  3007   002724  6A07               	clrf	(??_read_adc+4)^0,c
  3008   002726  5004               	movf	(??_read_adc+1)^0,w,c
  3009   002728  1006               	iorwf	(??_read_adc+3)^0,w,c
  3010   00272A  6E01               	movwf	?_read_adc^0,c
  3011   00272C  5005               	movf	(??_read_adc+2)^0,w,c
  3012   00272E  1007               	iorwf	(??_read_adc+4)^0,w,c
  3013   002730  6E02               	movwf	(?_read_adc+1)^0,c
  3014   002732  EFA2  F013         	goto	l495
  3015   002736                     l493:
  3016                           
  3017                           ;adc.c: 35:     while ( GO )
  3018   002736  B2C2               	btfsc	4034,1,c	;volatile
  3019   002738  EFA0  F013         	goto	u2771
  3020   00273C  EFA2  F013         	goto	u2770
  3021   002740                     u2771:
  3022   002740  EF89  F013         	goto	l3570
  3023   002744                     u2770:
  3024   002744                     l495:
  3025   002744  0012               	return		;funcret
  3026   002746                     __end_of_read_adc:
  3027                           	callstack 0
  3028                           
  3029 ;; *************** function _menu *****************
  3030 ;; Defined at:
  3031 ;;		line 185 in file "car_black_box.c"
  3032 ;; Parameters:    Size  Location     Type
  3033 ;;  key             1    wreg     unsigned char 
  3034 ;; Auto vars:     Size  Location     Type
  3035 ;;  key             1   22[COMRAM] unsigned char 
  3036 ;; Return value:  Size  Location     Type
  3037 ;;                  1    wreg      void 
  3038 ;; Registers used:
  3039 ;;		wreg, fsr0l, fsr0h, fsr2l, fsr2h, status,2, status,0, tblptrl, tblptrh, tblptru, prodl, prodh, cstack
  3040 ;; Tracked objects:
  3041 ;;		On entry : 0/0
  3042 ;;		On exit  : 0/0
  3043 ;;		Unchanged: 0/0
  3044 ;; Data sizes:     COMRAM   BANK0   BANK1   BANK2   BANK3   BANK4   BANK5
  3045 ;;      Params:         0       0       0       0       0       0       0
  3046 ;;      Locals:         2       0       0       0       0       0       0
  3047 ;;      Temps:          2       0       0       0       0       0       0
  3048 ;;      Totals:         4       0       0       0       0       0       0
  3049 ;;Total ram usage:        4 bytes
  3050 ;; Hardware stack levels used: 1
  3051 ;; Hardware stack levels required when called: 6
  3052 ;; This function calls:
  3053 ;;		___awmod
  3054 ;;		___wmul
  3055 ;;		_clcd_print
  3056 ;;		_clcd_putch
  3057 ;;		_read_event
  3058 ;;		_store_event
  3059 ;; This function is called by:
  3060 ;;		_main
  3061 ;; This function uses a non-reentrant model
  3062 ;;
  3063                           
  3064                           	psect	text6
  3065   00053A                     __ptext6:
  3066                           	callstack 0
  3067   00053A                     _menu:
  3068                           	callstack 24
  3069                           
  3070                           ;incstack = 0
  3071                           ;menu@key stored from wreg
  3072   00053A  6E17               	movwf	menu@key^0,c
  3073   00053C                     
  3074                           ;car_black_box.c: 187:     if (key == 11) {
  3075   00053C  0E0B               	movlw	11
  3076   00053E  1817               	xorwf	menu@key^0,w,c
  3077   000540  A4D8               	btfss	status,2,c
  3078   000542  EFA5  F002         	goto	u3081
  3079   000546  EFA7  F002         	goto	u3080
  3080   00054A                     u3081:
  3081   00054A  EF81  F003         	goto	l3824
  3082   00054E                     u3080:
  3083   00054E                     
  3084                           ;car_black_box.c: 188:         prekey = 11;
  3085   00054E  0E0B               	movlw	11
  3086   000550  6E4B               	movwf	_prekey^0,c
  3087   000552                     
  3088                           ;car_black_box.c: 189:         if (wait++ > 400) {
  3089   000552  5043               	movf	_wait^0,w,c
  3090   000554  6E14               	movwf	??_menu^0,c
  3091   000556  5044               	movf	(_wait+1)^0,w,c
  3092   000558  6E15               	movwf	(??_menu+1)^0,c
  3093   00055A  4A43               	infsnz	_wait^0,f,c
  3094   00055C  2A44               	incf	(_wait+1)^0,f,c
  3095   00055E  0E91               	movlw	145
  3096   000560  5C14               	subwf	??_menu^0,w,c
  3097   000562  0E01               	movlw	1
  3098   000564  5815               	subwfb	(??_menu+1)^0,w,c
  3099   000566  A0D8               	btfss	status,0,c
  3100   000568  EFB8  F002         	goto	u3091
  3101   00056C  EFBA  F002         	goto	u3090
  3102   000570                     u3091:
  3103   000570  EFCF  F003         	goto	l3846
  3104   000574                     u3090:
  3105   000574                     
  3106                           ;car_black_box.c: 190:             clcd_print(" Entered into : ", (0x80 + (0)));
  3107   000574  0ED0               	movlw	low STR_55
  3108   000576  6E03               	movwf	clcd_print@data^0,c
  3109   000578  0E2E               	movlw	high STR_55
  3110   00057A  6E04               	movwf	(clcd_print@data+1)^0,c
  3111   00057C  0E80               	movlw	128
  3112   00057E  6E05               	movwf	clcd_print@addr^0,c
  3113   000580  ECB4  F012         	call	_clcd_print	;wreg free
  3114   000584                     
  3115                           ;car_black_box.c: 191:             clcd_print(menu_opt[mode], (0xC0 + (0)));
  3116   000584  5049               	movf	_mode^0,w,c
  3117   000586  0D02               	mullw	2
  3118   000588  0EA9               	movlw	low _menu_opt
  3119   00058A  24F3               	addwf	243,w,c
  3120   00058C  6ED9               	movwf	fsr2l,c
  3121   00058E  0E00               	movlw	high _menu_opt
  3122   000590  20F4               	addwfc	prodh,w,c
  3123   000592  6EDA               	movwf	fsr2h,c
  3124   000594  CFDE F003          	movff	postinc2,clcd_print@data
  3125   000598  CFDD F004          	movff	postdec2,clcd_print@data+1
  3126   00059C  0EC0               	movlw	192
  3127   00059E  6E05               	movwf	clcd_print@addr^0,c
  3128   0005A0  ECB4  F012         	call	_clcd_print	;wreg free
  3129   0005A4                     
  3130                           ;car_black_box.c: 192:             _delay((unsigned long)((1000)*(20000000/4000.0)));
  3131   0005A4  0E1A               	movlw	26
  3132   0005A6  6E15               	movwf	(??_menu+1)^0,c
  3133   0005A8  0E5E               	movlw	94
  3134   0005AA  6E14               	movwf	??_menu^0,c
  3135   0005AC  0E6E               	movlw	110
  3136   0005AE                     u4497:
  3137   0005AE  2EE8               	decfsz	wreg,f,c
  3138   0005B0  D7FE               	bra	u4497
  3139   0005B2  2E14               	decfsz	??_menu^0,f,c
  3140   0005B4  D7FC               	bra	u4497
  3141   0005B6  2E15               	decfsz	(??_menu+1)^0,f,c
  3142   0005B8  D7FA               	bra	u4497
  3143   0005BA  D000               	nop2	
  3144   0005BC                     
  3145                           ;car_black_box.c: 193:             pass_flag = 3 + mode;
  3146   0005BC  5049               	movf	_mode^0,w,c
  3147   0005BE  0F03               	addlw	3
  3148   0005C0  6E5A               	movwf	_pass_flag^0,c
  3149   0005C2                     
  3150                           ;car_black_box.c: 194:             if (mode == 0) {
  3151   0005C2  5049               	movf	_mode^0,w,c
  3152   0005C4  A4D8               	btfss	status,2,c
  3153   0005C6  EFE7  F002         	goto	u3101
  3154   0005CA  EFE9  F002         	goto	u3100
  3155   0005CE                     u3101:
  3156   0005CE  EF0E  F003         	goto	l349
  3157   0005D2                     u3100:
  3158   0005D2                     
  3159                           ;car_black_box.c: 195:                 event_flag = ev = 0;
  3160   0005D2  0E00               	movlw	0
  3161   0005D4  6E58               	movwf	_ev^0,c
  3162   0005D6  C058  F05B         	movff	_ev,_event_flag
  3163   0005DA                     
  3164                           ;car_black_box.c: 196:                 read_event(0x00 + (14 * ((log_index + index) % 10
      +                          )), data);
  3165   0005DA  0E00               	movlw	0
  3166   0005DC  6E08               	movwf	(___wmul@multiplier+1)^0,c
  3167   0005DE  0E0E               	movlw	14
  3168   0005E0  6E07               	movwf	___wmul@multiplier^0,c
  3169   0005E2  0E00               	movlw	0
  3170   0005E4  6E04               	movwf	(___awmod@divisor+1)^0,c
  3171   0005E6  0E0A               	movlw	10
  3172   0005E8  6E03               	movwf	___awmod@divisor^0,c
  3173   0005EA  5047               	movf	_log_index^0,w,c
  3174   0005EC  2446               	addwf	_index^0,w,c
  3175   0005EE  6E01               	movwf	___awmod@dividend^0,c
  3176   0005F0  6A02               	clrf	(___awmod@dividend+1)^0,c
  3177   0005F2  3602               	rlcf	(___awmod@dividend+1)^0,f,c
  3178   0005F4  ECB9  F010         	call	___awmod	;wreg free
  3179   0005F8  C001  F009         	movff	?___awmod,___wmul@multiplicand
  3180   0005FC  C002  F00A         	movff	?___awmod+1,___wmul@multiplicand+1
  3181   000600  EC92  F014         	call	___wmul	;wreg free
  3182   000604  C007  F00D         	movff	?___wmul,read_event@address
  3183   000608  C008  F00E         	movff	?___wmul+1,read_event@address+1
  3184   00060C  0E73               	movlw	low _data
  3185   00060E  6E0F               	movwf	read_event@data^0,c
  3186   000610  0E00               	movlw	high _data
  3187   000612  6E10               	movwf	(read_event@data+1)^0,c
  3188   000614  ECC7  F013         	call	_read_event	;wreg free
  3189                           
  3190                           ;car_black_box.c: 197:             } else {
  3191   000618  EF3A  F003         	goto	l350
  3192   00061C                     l349:
  3193                           
  3194                           ;car_black_box.c: 198:                 option = mode;
  3195   00061C  C049  F048         	movff	_mode,_option
  3196   000620                     
  3197                           ;car_black_box.c: 199:                 event_flag = ev = 1;
  3198   000620  0E01               	movlw	1
  3199   000622  6E58               	movwf	_ev^0,c
  3200   000624  C058  F05B         	movff	_ev,_event_flag
  3201   000628                     
  3202                           ;car_black_box.c: 200:                 event[9] = menu_eve[option][0];
  3203   000628  5048               	movf	_option^0,w,c
  3204   00062A  0D02               	mullw	2
  3205   00062C  0E9F               	movlw	low _menu_eve
  3206   00062E  24F3               	addwf	243,w,c
  3207   000630  6ED9               	movwf	fsr2l,c
  3208   000632  0E00               	movlw	high _menu_eve
  3209   000634  20F4               	addwfc	prodh,w,c
  3210   000636  6EDA               	movwf	fsr2h,c
  3211   000638  CFDE FFF6          	movff	postinc2,tblptrl
  3212   00063C  CFDD FFF7          	movff	postdec2,tblptrh
  3213   000640                     	if	0	;tblptru may be non-zero
  3214   000640                     	endif
  3215   000640                     	if	0	;tblptru may be non-zero
  3216   000640                     	endif
  3217   000640  0008               	tblrd		*
  3218   000642  CFF5 F06C          	movff	tablat,_event+9
  3219   000646                     
  3220                           ;car_black_box.c: 201:                 event[10] = menu_eve[option][1];
  3221   000646  5048               	movf	_option^0,w,c
  3222   000648  0D02               	mullw	2
  3223   00064A  0E9F               	movlw	low _menu_eve
  3224   00064C  24F3               	addwf	243,w,c
  3225   00064E  6ED9               	movwf	fsr2l,c
  3226   000650  0E00               	movlw	high _menu_eve
  3227   000652  20F4               	addwfc	prodh,w,c
  3228   000654  6EDA               	movwf	fsr2h,c
  3229   000656  CFDE F014          	movff	postinc2,??_menu
  3230   00065A  CFDD F015          	movff	postdec2,??_menu+1
  3231   00065E  0E01               	movlw	1
  3232   000660  2614               	addwf	??_menu^0,f,c
  3233   000662  0E00               	movlw	0
  3234   000664  2215               	addwfc	(??_menu+1)^0,f,c
  3235   000666  C014  FFF6         	movff	??_menu,tblptrl
  3236   00066A  C015  FFF7         	movff	??_menu+1,tblptrh
  3237   00066E                     	if	0	;tblptru may be non-zero
  3238   00066E                     	endif
  3239   00066E                     	if	0	;tblptru may be non-zero
  3240   00066E                     	endif
  3241   00066E  0008               	tblrd		*
  3242   000670  CFF5 F06D          	movff	tablat,_event+10
  3243   000674                     l350:
  3244                           
  3245                           ;car_black_box.c: 204:             if (ev = 1 && event_flag == 1 && mode != 3) {
  3246   000674  0E00               	movlw	0
  3247   000676  6E16               	movwf	_menu$339^0,c
  3248   000678  045B               	decf	_event_flag^0,w,c
  3249   00067A  A4D8               	btfss	status,2,c
  3250   00067C  EF42  F003         	goto	u3111
  3251   000680  EF44  F003         	goto	u3110
  3252   000684                     u3111:
  3253   000684  EF4F  F003         	goto	l353
  3254   000688                     u3110:
  3255   000688  0E03               	movlw	3
  3256   00068A  1849               	xorwf	_mode^0,w,c
  3257   00068C  B4D8               	btfsc	status,2,c
  3258   00068E  EF4B  F003         	goto	u3121
  3259   000692  EF4D  F003         	goto	u3120
  3260   000696                     u3121:
  3261   000696  EF4F  F003         	goto	l353
  3262   00069A                     u3120:
  3263   00069A  0E01               	movlw	1
  3264   00069C  6E16               	movwf	_menu$339^0,c
  3265   00069E                     l353:
  3266   00069E  C016  F058         	movff	_menu$339,_ev
  3267   0006A2  5058               	movf	_ev^0,w,c
  3268   0006A4  B4D8               	btfsc	status,2,c
  3269   0006A6  EF57  F003         	goto	u3131
  3270   0006AA  EF59  F003         	goto	u3130
  3271   0006AE                     u3131:
  3272   0006AE  EF61  F003         	goto	l3814
  3273   0006B2                     u3130:
  3274   0006B2                     
  3275                           ;car_black_box.c: 205:                 event_flag = 0;
  3276   0006B2  0E00               	movlw	0
  3277   0006B4  6E5B               	movwf	_event_flag^0,c
  3278   0006B6                     
  3279                           ;car_black_box.c: 206:                 store_event(event);
  3280   0006B6  0E63               	movlw	low _event
  3281   0006B8  6E05               	movwf	store_event@data^0,c
  3282   0006BA  0E00               	movlw	high _event
  3283   0006BC  6E06               	movwf	(store_event@data+1)^0,c
  3284   0006BE  EC69  F011         	call	_store_event	;wreg free
  3285   0006C2                     l3814:
  3286                           
  3287                           ;car_black_box.c: 209:             line = star = prekey = pre_key_1 = wait = 0;
  3288   0006C2  0E00               	movlw	0
  3289   0006C4  6E44               	movwf	(_wait+1)^0,c
  3290   0006C6  0E00               	movlw	0
  3291   0006C8  6E43               	movwf	_wait^0,c
  3292   0006CA  C043  F04A         	movff	_wait,_pre_key_1
  3293   0006CE  C04A  F04B         	movff	_pre_key_1,_prekey
  3294   0006D2  C04B  F04C         	movff	_prekey,_star
  3295   0006D6  C04C  F04D         	movff	_star,_line
  3296   0006DA                     
  3297                           ;car_black_box.c: 210:             sec = 60;
  3298   0006DA  0E3C               	movlw	60
  3299   0006DC  6E5E               	movwf	_sec^0,c
  3300   0006DE                     
  3301                           ;car_black_box.c: 211:             clcd_print("                ", (0x80 + (0)));
  3302   0006DE  0E58               	movlw	low STR_19
  3303   0006E0  6E03               	movwf	clcd_print@data^0,c
  3304   0006E2  0E2F               	movlw	high STR_19
  3305   0006E4  6E04               	movwf	(clcd_print@data+1)^0,c
  3306   0006E6  0E80               	movlw	128
  3307   0006E8  6E05               	movwf	clcd_print@addr^0,c
  3308   0006EA  ECB4  F012         	call	_clcd_print	;wreg free
  3309   0006EE                     
  3310                           ;car_black_box.c: 212:             clcd_print("                ", (0xC0 + (0)));
  3311   0006EE  0E58               	movlw	low STR_19
  3312   0006F0  6E03               	movwf	clcd_print@data^0,c
  3313   0006F2  0E2F               	movlw	high STR_19
  3314   0006F4  6E04               	movwf	(clcd_print@data+1)^0,c
  3315   0006F6  0EC0               	movlw	192
  3316   0006F8  6E05               	movwf	clcd_print@addr^0,c
  3317   0006FA  ECB4  F012         	call	_clcd_print	;wreg free
  3318   0006FE  EFC2  F004         	goto	l354
  3319   000702                     l3824:
  3320   000702  5043               	movf	_wait^0,w,c
  3321   000704  1044               	iorwf	(_wait+1)^0,w,c
  3322   000706  B4D8               	btfsc	status,2,c
  3323   000708  EF88  F003         	goto	u3141
  3324   00070C  EF8A  F003         	goto	u3140
  3325   000710                     u3141:
  3326   000710  EFCF  F003         	goto	l3846
  3327   000714                     u3140:
  3328   000714  0E90               	movlw	144
  3329   000716  5C43               	subwf	_wait^0,w,c
  3330   000718  0E01               	movlw	1
  3331   00071A  5844               	subwfb	(_wait+1)^0,w,c
  3332   00071C  B0D8               	btfsc	status,0,c
  3333   00071E  EF93  F003         	goto	u3151
  3334   000722  EF95  F003         	goto	u3150
  3335   000726                     u3151:
  3336   000726  EFCF  F003         	goto	l3846
  3337   00072A                     u3150:
  3338   00072A  2817               	incf	menu@key^0,w,c
  3339   00072C  A4D8               	btfss	status,2,c
  3340   00072E  EF9B  F003         	goto	u3161
  3341   000732  EF9D  F003         	goto	u3160
  3342   000736                     u3161:
  3343   000736  EFCF  F003         	goto	l3846
  3344   00073A                     u3160:
  3345   00073A  0E0B               	movlw	11
  3346   00073C  184B               	xorwf	_prekey^0,w,c
  3347   00073E  A4D8               	btfss	status,2,c
  3348   000740  EFA4  F003         	goto	u3171
  3349   000744  EFA6  F003         	goto	u3170
  3350   000748                     u3171:
  3351   000748  EFCF  F003         	goto	l3846
  3352   00074C                     u3170:
  3353   00074C                     
  3354                           ;car_black_box.c: 216:         sec = 60;
  3355   00074C  0E3C               	movlw	60
  3356   00074E  6E5E               	movwf	_sec^0,c
  3357                           
  3358                           ;car_black_box.c: 217:         star = 0;
  3359   000750  0E00               	movlw	0
  3360   000752  6E4C               	movwf	_star^0,c
  3361   000754                     
  3362                           ;car_black_box.c: 219:         if (pre_key_1 == 11) {
  3363   000754  0E0B               	movlw	11
  3364   000756  184A               	xorwf	_pre_key_1^0,w,c
  3365   000758  A4D8               	btfss	status,2,c
  3366   00075A  EFB1  F003         	goto	u3181
  3367   00075E  EFB3  F003         	goto	u3180
  3368   000762                     u3181:
  3369   000762  EFBE  F003         	goto	l3840
  3370   000766                     u3180:
  3371   000766                     
  3372                           ;car_black_box.c: 220:             if (line-- <= 0)
  3373   000766  064D               	decf	_line^0,f,c
  3374   000768  284D               	incf	_line^0,w,c
  3375   00076A  A4D8               	btfss	status,2,c
  3376   00076C  EFBA  F003         	goto	u3191
  3377   000770  EFBC  F003         	goto	u3190
  3378   000774                     u3191:
  3379   000774  EFBE  F003         	goto	l3840
  3380   000778                     u3190:
  3381   000778                     
  3382                           ;car_black_box.c: 221:                 line = 0;
  3383   000778  0E00               	movlw	0
  3384   00077A  6E4D               	movwf	_line^0,c
  3385   00077C                     l3840:
  3386                           
  3387                           ;car_black_box.c: 223:         if (mode-- <= 0)
  3388   00077C  0649               	decf	_mode^0,f,c
  3389   00077E  2849               	incf	_mode^0,w,c
  3390   000780  A4D8               	btfss	status,2,c
  3391   000782  EFC5  F003         	goto	u3201
  3392   000786  EFC7  F003         	goto	u3200
  3393   00078A                     u3201:
  3394   00078A  EFC9  F003         	goto	l3844
  3395   00078E                     u3200:
  3396   00078E                     
  3397                           ;car_black_box.c: 224:             mode = 0;
  3398   00078E  0E00               	movlw	0
  3399   000790  6E49               	movwf	_mode^0,c
  3400   000792                     l3844:
  3401                           
  3402                           ;car_black_box.c: 226:         pre_key_1 = prekey;
  3403   000792  C04B  F04A         	movff	_prekey,_pre_key_1
  3404                           
  3405                           ;car_black_box.c: 227:         wait = 0;
  3406   000796  0E00               	movlw	0
  3407   000798  6E44               	movwf	(_wait+1)^0,c
  3408   00079A  0E00               	movlw	0
  3409   00079C  6E43               	movwf	_wait^0,c
  3410   00079E                     l3846:
  3411                           
  3412                           ;car_black_box.c: 231:     if (key == 12) {
  3413   00079E  0E0C               	movlw	12
  3414   0007A0  1817               	xorwf	menu@key^0,w,c
  3415   0007A2  A4D8               	btfss	status,2,c
  3416   0007A4  EFD6  F003         	goto	u3211
  3417   0007A8  EFD8  F003         	goto	u3210
  3418   0007AC                     u3211:
  3419   0007AC  EF05  F004         	goto	l3860
  3420   0007B0                     u3210:
  3421   0007B0                     
  3422                           ;car_black_box.c: 232:         prekey = 12;
  3423   0007B0  0E0C               	movlw	12
  3424   0007B2  6E4B               	movwf	_prekey^0,c
  3425   0007B4                     
  3426                           ;car_black_box.c: 233:         if (wait++ > 400) {
  3427   0007B4  5043               	movf	_wait^0,w,c
  3428   0007B6  6E14               	movwf	??_menu^0,c
  3429   0007B8  5044               	movf	(_wait+1)^0,w,c
  3430   0007BA  6E15               	movwf	(??_menu+1)^0,c
  3431   0007BC  4A43               	infsnz	_wait^0,f,c
  3432   0007BE  2A44               	incf	(_wait+1)^0,f,c
  3433   0007C0  0E91               	movlw	145
  3434   0007C2  5C14               	subwf	??_menu^0,w,c
  3435   0007C4  0E01               	movlw	1
  3436   0007C6  5815               	subwfb	(??_menu+1)^0,w,c
  3437   0007C8  A0D8               	btfss	status,0,c
  3438   0007CA  EFE9  F003         	goto	u3221
  3439   0007CE  EFEB  F003         	goto	u3220
  3440   0007D2                     u3221:
  3441   0007D2  EF57  F004         	goto	l3882
  3442   0007D6                     u3220:
  3443   0007D6                     
  3444                           ;car_black_box.c: 234:             pass_flag = line = mode = star = 0;
  3445   0007D6  0E00               	movlw	0
  3446   0007D8  6E4C               	movwf	_star^0,c
  3447   0007DA  C04C  F049         	movff	_star,_mode
  3448   0007DE  C049  F04D         	movff	_mode,_line
  3449   0007E2  C04D  F05A         	movff	_line,_pass_flag
  3450   0007E6                     
  3451                           ;car_black_box.c: 235:             clcd_print("                ", (0x80 + (0)));
  3452   0007E6  0E58               	movlw	low STR_19
  3453   0007E8  6E03               	movwf	clcd_print@data^0,c
  3454   0007EA  0E2F               	movlw	high STR_19
  3455   0007EC  6E04               	movwf	(clcd_print@data+1)^0,c
  3456   0007EE  0E80               	movlw	128
  3457   0007F0  6E05               	movwf	clcd_print@addr^0,c
  3458   0007F2  ECB4  F012         	call	_clcd_print	;wreg free
  3459   0007F6                     
  3460                           ;car_black_box.c: 236:             clcd_print("                ", (0xC0 + (0)));
  3461   0007F6  0E58               	movlw	low STR_19
  3462   0007F8  6E03               	movwf	clcd_print@data^0,c
  3463   0007FA  0E2F               	movlw	high STR_19
  3464   0007FC  6E04               	movwf	(clcd_print@data+1)^0,c
  3465   0007FE  0EC0               	movlw	192
  3466   000800  6E05               	movwf	clcd_print@addr^0,c
  3467   000802  ECB4  F012         	call	_clcd_print	;wreg free
  3468   000806  EFC2  F004         	goto	l354
  3469   00080A                     l3860:
  3470   00080A  5043               	movf	_wait^0,w,c
  3471   00080C  1044               	iorwf	(_wait+1)^0,w,c
  3472   00080E  B4D8               	btfsc	status,2,c
  3473   000810  EF0C  F004         	goto	u3231
  3474   000814  EF0E  F004         	goto	u3230
  3475   000818                     u3231:
  3476   000818  EF57  F004         	goto	l3882
  3477   00081C                     u3230:
  3478   00081C  0E90               	movlw	144
  3479   00081E  5C43               	subwf	_wait^0,w,c
  3480   000820  0E01               	movlw	1
  3481   000822  5844               	subwfb	(_wait+1)^0,w,c
  3482   000824  B0D8               	btfsc	status,0,c
  3483   000826  EF17  F004         	goto	u3241
  3484   00082A  EF19  F004         	goto	u3240
  3485   00082E                     u3241:
  3486   00082E  EF57  F004         	goto	l3882
  3487   000832                     u3240:
  3488   000832  2817               	incf	menu@key^0,w,c
  3489   000834  A4D8               	btfss	status,2,c
  3490   000836  EF1F  F004         	goto	u3251
  3491   00083A  EF21  F004         	goto	u3250
  3492   00083E                     u3251:
  3493   00083E  EF57  F004         	goto	l3882
  3494   000842                     u3250:
  3495   000842  0E0C               	movlw	12
  3496   000844  184B               	xorwf	_prekey^0,w,c
  3497   000846  A4D8               	btfss	status,2,c
  3498   000848  EF28  F004         	goto	u3261
  3499   00084C  EF2A  F004         	goto	u3260
  3500   000850                     u3261:
  3501   000850  EF57  F004         	goto	l3882
  3502   000854                     u3260:
  3503   000854                     
  3504                           ;car_black_box.c: 240:         sec = 60;
  3505   000854  0E3C               	movlw	60
  3506   000856  6E5E               	movwf	_sec^0,c
  3507                           
  3508                           ;car_black_box.c: 241:         star = 1;
  3509   000858  0E01               	movlw	1
  3510   00085A  6E4C               	movwf	_star^0,c
  3511   00085C                     
  3512                           ;car_black_box.c: 243:         if (pre_key_1 == 12) {
  3513   00085C  0E0C               	movlw	12
  3514   00085E  184A               	xorwf	_pre_key_1^0,w,c
  3515   000860  A4D8               	btfss	status,2,c
  3516   000862  EF35  F004         	goto	u3271
  3517   000866  EF37  F004         	goto	u3270
  3518   00086A                     u3271:
  3519   00086A  EF44  F004         	goto	l3876
  3520   00086E                     u3270:
  3521   00086E                     
  3522                           ;car_black_box.c: 244:             if (line++ >= 3)
  3523   00086E  2A4D               	incf	_line^0,f,c
  3524   000870  044D               	decf	_line^0,w,c
  3525   000872  6E14               	movwf	??_menu^0,c
  3526   000874  0E02               	movlw	2
  3527   000876  6414               	cpfsgt	??_menu^0,c
  3528   000878  EF40  F004         	goto	u3281
  3529   00087C  EF42  F004         	goto	u3280
  3530   000880                     u3281:
  3531   000880  EF44  F004         	goto	l3876
  3532   000884                     u3280:
  3533   000884                     
  3534                           ;car_black_box.c: 245:                 line = 3;
  3535   000884  0E03               	movlw	3
  3536   000886  6E4D               	movwf	_line^0,c
  3537   000888                     l3876:
  3538                           
  3539                           ;car_black_box.c: 248:         if (mode++ >= 4)
  3540   000888  2A49               	incf	_mode^0,f,c
  3541   00088A  0449               	decf	_mode^0,w,c
  3542   00088C  6E14               	movwf	??_menu^0,c
  3543   00088E  0E03               	movlw	3
  3544   000890  6414               	cpfsgt	??_menu^0,c
  3545   000892  EF4D  F004         	goto	u3291
  3546   000896  EF4F  F004         	goto	u3290
  3547   00089A                     u3291:
  3548   00089A  EF51  F004         	goto	l3880
  3549   00089E                     u3290:
  3550   00089E                     
  3551                           ;car_black_box.c: 249:             mode = 4;
  3552   00089E  0E04               	movlw	4
  3553   0008A0  6E49               	movwf	_mode^0,c
  3554   0008A2                     l3880:
  3555                           
  3556                           ;car_black_box.c: 251:         pre_key_1 = prekey;
  3557   0008A2  C04B  F04A         	movff	_prekey,_pre_key_1
  3558                           
  3559                           ;car_black_box.c: 252:         wait = 0;
  3560   0008A6  0E00               	movlw	0
  3561   0008A8  6E44               	movwf	(_wait+1)^0,c
  3562   0008AA  0E00               	movlw	0
  3563   0008AC  6E43               	movwf	_wait^0,c
  3564   0008AE                     l3882:
  3565                           
  3566                           ;car_black_box.c: 256:     if (star == 1) {
  3567   0008AE  044C               	decf	_star^0,w,c
  3568   0008B0  A4D8               	btfss	status,2,c
  3569   0008B2  EF5D  F004         	goto	u3301
  3570   0008B6  EF5F  F004         	goto	u3300
  3571   0008BA                     u3301:
  3572   0008BA  EF6B  F004         	goto	l3886
  3573   0008BE                     u3300:
  3574   0008BE                     
  3575                           ;car_black_box.c: 257:         clcd_putch(' ', (0x80 + (0)));
  3576   0008BE  0E80               	movlw	128
  3577   0008C0  6E0F               	movwf	clcd_putch@addr^0,c
  3578   0008C2  0E20               	movlw	32
  3579   0008C4  ECE9  F014         	call	_clcd_putch
  3580                           
  3581                           ;car_black_box.c: 258:         clcd_putch('*', (0xC0 + (0)));
  3582   0008C8  0EC0               	movlw	192
  3583   0008CA  6E0F               	movwf	clcd_putch@addr^0,c
  3584   0008CC  0E2A               	movlw	42
  3585   0008CE  ECE9  F014         	call	_clcd_putch
  3586                           
  3587                           ;car_black_box.c: 259:     } else if (star == 0) {
  3588   0008D2  EF7D  F004         	goto	l3890
  3589   0008D6                     l3886:
  3590   0008D6  504C               	movf	_star^0,w,c
  3591   0008D8  A4D8               	btfss	status,2,c
  3592   0008DA  EF71  F004         	goto	u3311
  3593   0008DE  EF73  F004         	goto	u3310
  3594   0008E2                     u3311:
  3595   0008E2  EF7D  F004         	goto	l3890
  3596   0008E6                     u3310:
  3597   0008E6                     
  3598                           ;car_black_box.c: 260:         clcd_putch('*', (0x80 + (0)));
  3599   0008E6  0E80               	movlw	128
  3600   0008E8  6E0F               	movwf	clcd_putch@addr^0,c
  3601   0008EA  0E2A               	movlw	42
  3602   0008EC  ECE9  F014         	call	_clcd_putch
  3603                           
  3604                           ;car_black_box.c: 261:         clcd_putch(' ', (0xC0 + (0)));
  3605   0008F0  0EC0               	movlw	192
  3606   0008F2  6E0F               	movwf	clcd_putch@addr^0,c
  3607   0008F4  0E20               	movlw	32
  3608   0008F6  ECE9  F014         	call	_clcd_putch
  3609   0008FA                     l3890:
  3610                           
  3611                           ;car_black_box.c: 264:     clcd_print(menu_opt[line], (0x80 + (2)));
  3612   0008FA  504D               	movf	_line^0,w,c
  3613   0008FC  0D02               	mullw	2
  3614   0008FE  0EA9               	movlw	low _menu_opt
  3615   000900  24F3               	addwf	243,w,c
  3616   000902  6ED9               	movwf	fsr2l,c
  3617   000904  0E00               	movlw	high _menu_opt
  3618   000906  20F4               	addwfc	prodh,w,c
  3619   000908  6EDA               	movwf	fsr2h,c
  3620   00090A  CFDE F003          	movff	postinc2,clcd_print@data
  3621   00090E  CFDD F004          	movff	postdec2,clcd_print@data+1
  3622   000912  0E82               	movlw	130
  3623   000914  6E05               	movwf	clcd_print@addr^0,c
  3624   000916  ECB4  F012         	call	_clcd_print	;wreg free
  3625   00091A                     
  3626                           ;car_black_box.c: 265:     clcd_print(menu_opt[line + 1], (0xC0 + (2)));
  3627   00091A  504D               	movf	_line^0,w,c
  3628   00091C  6E14               	movwf	??_menu^0,c
  3629   00091E  6A15               	clrf	(??_menu+1)^0,c
  3630   000920  90D8               	bcf	status,0,c
  3631   000922  3614               	rlcf	??_menu^0,f,c
  3632   000924  3615               	rlcf	(??_menu+1)^0,f,c
  3633   000926  0EAB               	movlw	low (_menu_opt+2)
  3634   000928  2414               	addwf	??_menu^0,w,c
  3635   00092A  6ED9               	movwf	fsr2l,c
  3636   00092C  0E00               	movlw	high (_menu_opt+2)
  3637   00092E  2015               	addwfc	(??_menu+1)^0,w,c
  3638   000930  6EDA               	movwf	fsr2h,c
  3639   000932  CFDE F003          	movff	postinc2,clcd_print@data
  3640   000936  CFDD F004          	movff	postdec2,clcd_print@data+1
  3641   00093A  0EC2               	movlw	194
  3642   00093C  6E05               	movwf	clcd_print@addr^0,c
  3643   00093E  ECB4  F012         	call	_clcd_print	;wreg free
  3644   000942                     
  3645                           ;car_black_box.c: 267:     if (sec == 55) {
  3646   000942  0E37               	movlw	55
  3647   000944  185E               	xorwf	_sec^0,w,c
  3648   000946  A4D8               	btfss	status,2,c
  3649   000948  EFA8  F004         	goto	u3321
  3650   00094C  EFAA  F004         	goto	u3320
  3651   000950                     u3321:
  3652   000950  EFC2  F004         	goto	l354
  3653   000954                     u3320:
  3654   000954                     
  3655                           ;car_black_box.c: 268:         clcd_print("                ", (0x80 + (0)));
  3656   000954  0E58               	movlw	low STR_19
  3657   000956  6E03               	movwf	clcd_print@data^0,c
  3658   000958  0E2F               	movlw	high STR_19
  3659   00095A  6E04               	movwf	(clcd_print@data+1)^0,c
  3660   00095C  0E80               	movlw	128
  3661   00095E  6E05               	movwf	clcd_print@addr^0,c
  3662   000960  ECB4  F012         	call	_clcd_print	;wreg free
  3663                           
  3664                           ;car_black_box.c: 269:         clcd_print("                ", (0xC0 + (0)));
  3665   000964  0E58               	movlw	low STR_19
  3666   000966  6E03               	movwf	clcd_print@data^0,c
  3667   000968  0E2F               	movlw	high STR_19
  3668   00096A  6E04               	movwf	(clcd_print@data+1)^0,c
  3669   00096C  0EC0               	movlw	192
  3670   00096E  6E05               	movwf	clcd_print@addr^0,c
  3671   000970  ECB4  F012         	call	_clcd_print	;wreg free
  3672   000974                     
  3673                           ;car_black_box.c: 270:         pass_flag = line = mode = star = 0;
  3674   000974  0E00               	movlw	0
  3675   000976  6E4C               	movwf	_star^0,c
  3676   000978  C04C  F049         	movff	_star,_mode
  3677   00097C  C049  F04D         	movff	_mode,_line
  3678   000980  C04D  F05A         	movff	_line,_pass_flag
  3679   000984                     l354:
  3680   000984  0012               	return		;funcret
  3681   000986                     __end_of_menu:
  3682                           	callstack 0
  3683                           
  3684 ;; *************** function _read_event *****************
  3685 ;; Defined at:
  3686 ;;		line 69 in file "eeprom.c"
  3687 ;; Parameters:    Size  Location     Type
  3688 ;;  address         2   12[COMRAM] PTR unsigned char 
  3689 ;;		 -> RAM(1535), 
  3690 ;;  data            2   14[COMRAM] PTR unsigned char 
  3691 ;;		 -> data(15), 
  3692 ;; Auto vars:     Size  Location     Type
  3693 ;;  i               1   18[COMRAM] unsigned char 
  3694 ;; Return value:  Size  Location     Type
  3695 ;;                  1    wreg      void 
  3696 ;; Registers used:
  3697 ;;		wreg, fsr2l, fsr2h, status,2, status,0, cstack
  3698 ;; Tracked objects:
  3699 ;;		On entry : 0/0
  3700 ;;		On exit  : 0/0
  3701 ;;		Unchanged: 0/0
  3702 ;; Data sizes:     COMRAM   BANK0   BANK1   BANK2   BANK3   BANK4   BANK5
  3703 ;;      Params:         4       0       0       0       0       0       0
  3704 ;;      Locals:         1       0       0       0       0       0       0
  3705 ;;      Temps:          2       0       0       0       0       0       0
  3706 ;;      Totals:         7       0       0       0       0       0       0
  3707 ;;Total ram usage:        7 bytes
  3708 ;; Hardware stack levels used: 1
  3709 ;; Hardware stack levels required when called: 5
  3710 ;; This function calls:
  3711 ;;		_read_ext_eeprom
  3712 ;; This function is called by:
  3713 ;;		_menu
  3714 ;;		_view_log
  3715 ;; This function uses a non-reentrant model
  3716 ;;
  3717                           
  3718                           	psect	text7
  3719   00278E                     __ptext7:
  3720                           	callstack 0
  3721   00278E                     _read_event:
  3722                           	callstack 24
  3723   00278E                     
  3724                           ;eeprom.c: 70:     for (unsigned char i = 0; i < 14; i++) {
  3725   00278E  0E00               	movlw	0
  3726   002790  6E13               	movwf	read_event@i^0,c
  3727   002792                     l3398:
  3728                           
  3729                           ;eeprom.c: 71:         data[i] = read_ext_eeprom(address + i);
  3730   002792  5013               	movf	read_event@i^0,w,c
  3731   002794  240F               	addwf	read_event@data^0,w,c
  3732   002796  6ED9               	movwf	fsr2l,c
  3733   002798  0E00               	movlw	0
  3734   00279A  2010               	addwfc	(read_event@data+1)^0,w,c
  3735   00279C  6EDA               	movwf	fsr2h,c
  3736   00279E  5013               	movf	read_event@i^0,w,c
  3737   0027A0  6E11               	movwf	??_read_event^0,c
  3738   0027A2  6A12               	clrf	(??_read_event+1)^0,c
  3739   0027A4  500D               	movf	read_event@address^0,w,c
  3740   0027A6  2411               	addwf	??_read_event^0,w,c
  3741   0027A8  EC54  F014         	call	_read_ext_eeprom
  3742   0027AC  6EDF               	movwf	indf2,c
  3743   0027AE                     
  3744                           ;eeprom.c: 72:     }
  3745   0027AE  2A13               	incf	read_event@i^0,f,c
  3746   0027B0  0E0D               	movlw	13
  3747   0027B2  6413               	cpfsgt	read_event@i^0,c
  3748   0027B4  EFDE  F013         	goto	u2571
  3749   0027B8  EFE0  F013         	goto	u2570
  3750   0027BC                     u2571:
  3751   0027BC  EFC9  F013         	goto	l3398
  3752   0027C0                     u2570:
  3753   0027C0                     
  3754                           ;eeprom.c: 73:     data[14] = '\0';
  3755   0027C0  EE20 F00E          	lfsr	2,14
  3756   0027C4  500F               	movf	read_event@data^0,w,c
  3757   0027C6  26D9               	addwf	fsr2l,f,c
  3758   0027C8  5010               	movf	(read_event@data+1)^0,w,c
  3759   0027CA  22DA               	addwfc	fsr2h,f,c
  3760   0027CC  6ADF               	clrf	indf2,c
  3761   0027CE  0012               	return		;funcret
  3762   0027D0                     __end_of_read_event:
  3763                           	callstack 0
  3764                           
  3765 ;; *************** function _read_ext_eeprom *****************
  3766 ;; Defined at:
  3767 ;;		line 32 in file "eeprom.c"
  3768 ;; Parameters:    Size  Location     Type
  3769 ;;  address         1    wreg     unsigned char 
  3770 ;; Auto vars:     Size  Location     Type
  3771 ;;  address         1    1[COMRAM] unsigned char 
  3772 ;;  data            1    2[COMRAM] unsigned char 
  3773 ;; Return value:  Size  Location     Type
  3774 ;;                  1    wreg      unsigned char 
  3775 ;; Registers used:
  3776 ;;		wreg, status,2, cstack
  3777 ;; Tracked objects:
  3778 ;;		On entry : 0/0
  3779 ;;		On exit  : 0/0
  3780 ;;		Unchanged: 0/0
  3781 ;; Data sizes:     COMRAM   BANK0   BANK1   BANK2   BANK3   BANK4   BANK5
  3782 ;;      Params:         0       0       0       0       0       0       0
  3783 ;;      Locals:         2       0       0       0       0       0       0
  3784 ;;      Temps:          0       0       0       0       0       0       0
  3785 ;;      Totals:         2       0       0       0       0       0       0
  3786 ;;Total ram usage:        2 bytes
  3787 ;; Hardware stack levels used: 1
  3788 ;; Hardware stack levels required when called: 4
  3789 ;; This function calls:
  3790 ;;		_i2c_read
  3791 ;;		_i2c_rep_start
  3792 ;;		_i2c_start
  3793 ;;		_i2c_stop
  3794 ;;		_i2c_write
  3795 ;; This function is called by:
  3796 ;;		_main
  3797 ;;		_read_event
  3798 ;; This function uses a non-reentrant model
  3799 ;;
  3800                           
  3801                           	psect	text8
  3802   0028A8                     __ptext8:
  3803                           	callstack 0
  3804   0028A8                     _read_ext_eeprom:
  3805                           	callstack 24
  3806                           
  3807                           ;incstack = 0
  3808                           ;read_ext_eeprom@address stored from wreg
  3809   0028A8  6E02               	movwf	read_ext_eeprom@address^0,c
  3810   0028AA                     
  3811                           ;eeprom.c: 33:     unsigned char data;;eeprom.c: 35:     i2c_start();
  3812   0028AA  EC30  F015         	call	_i2c_start	;wreg free
  3813   0028AE                     
  3814                           ;eeprom.c: 36:     i2c_write(0xA0);
  3815   0028AE  0EA0               	movlw	160
  3816   0028B0  EC1A  F015         	call	_i2c_write
  3817   0028B4                     
  3818                           ;eeprom.c: 37:     i2c_write(address);
  3819   0028B4  5002               	movf	read_ext_eeprom@address^0,w,c
  3820   0028B6  EC1A  F015         	call	_i2c_write
  3821   0028BA                     
  3822                           ;eeprom.c: 38:     i2c_rep_start();
  3823   0028BA  EC24  F015         	call	_i2c_rep_start	;wreg free
  3824   0028BE                     
  3825                           ;eeprom.c: 39:     i2c_write(0xA1);
  3826   0028BE  0EA1               	movlw	161
  3827   0028C0  EC1A  F015         	call	_i2c_write
  3828                           
  3829                           ;eeprom.c: 40:     data = i2c_read();
  3830   0028C4  EC14  F015         	call	_i2c_read	;wreg free
  3831   0028C8  6E03               	movwf	read_ext_eeprom@data^0,c
  3832   0028CA                     
  3833                           ;eeprom.c: 41:     i2c_stop();
  3834   0028CA  EC2C  F015         	call	_i2c_stop	;wreg free
  3835                           
  3836                           ;eeprom.c: 43:     return data;
  3837   0028CE  5003               	movf	read_ext_eeprom@data^0,w,c
  3838   0028D0  0012               	return		;funcret
  3839   0028D2                     __end_of_read_ext_eeprom:
  3840                           	callstack 0
  3841                           
  3842 ;; *************** function ___wmul *****************
  3843 ;; Defined at:
  3844 ;;		line 15 in file "C:\Program Files\Microchip\xc8\v2.41\pic\sources\c99\common\Umul16.c"
  3845 ;; Parameters:    Size  Location     Type
  3846 ;;  multiplier      2    6[COMRAM] unsigned int 
  3847 ;;  multiplicand    2    8[COMRAM] unsigned int 
  3848 ;; Auto vars:     Size  Location     Type
  3849 ;;  product         2   10[COMRAM] unsigned int 
  3850 ;; Return value:  Size  Location     Type
  3851 ;;                  2    6[COMRAM] unsigned int 
  3852 ;; Registers used:
  3853 ;;		wreg, status,2, status,0, prodl, prodh
  3854 ;; Tracked objects:
  3855 ;;		On entry : 0/0
  3856 ;;		On exit  : 0/0
  3857 ;;		Unchanged: 0/0
  3858 ;; Data sizes:     COMRAM   BANK0   BANK1   BANK2   BANK3   BANK4   BANK5
  3859 ;;      Params:         4       0       0       0       0       0       0
  3860 ;;      Locals:         2       0       0       0       0       0       0
  3861 ;;      Temps:          0       0       0       0       0       0       0
  3862 ;;      Totals:         6       0       0       0       0       0       0
  3863 ;;Total ram usage:        6 bytes
  3864 ;; Hardware stack levels used: 1
  3865 ;; Hardware stack levels required when called: 1
  3866 ;; This function calls:
  3867 ;;		Nothing
  3868 ;; This function is called by:
  3869 ;;		_menu
  3870 ;;		_view_log
  3871 ;; This function uses a non-reentrant model
  3872 ;;
  3873                           
  3874                           	psect	text9
  3875   002924                     __ptext9:
  3876                           	callstack 0
  3877   002924                     ___wmul:
  3878                           	callstack 28
  3879   002924  5007               	movf	___wmul@multiplier^0,w,c
  3880   002926  0209               	mulwf	___wmul@multiplicand^0,c
  3881   002928  CFF3 F00B          	movff	prodl,___wmul@product
  3882   00292C  CFF4 F00C          	movff	prodh,___wmul@product+1
  3883   002930  5007               	movf	___wmul@multiplier^0,w,c
  3884   002932  020A               	mulwf	(___wmul@multiplicand+1)^0,c
  3885   002934  50F3               	movf	243,w,c
  3886   002936  260C               	addwf	(___wmul@product+1)^0,f,c
  3887   002938  5008               	movf	(___wmul@multiplier+1)^0,w,c
  3888   00293A  0209               	mulwf	___wmul@multiplicand^0,c
  3889   00293C  50F3               	movf	243,w,c
  3890   00293E  260C               	addwf	(___wmul@product+1)^0,f,c
  3891   002940  C00B  F007         	movff	___wmul@product,?___wmul
  3892   002944  C00C  F008         	movff	___wmul@product+1,?___wmul+1
  3893   002948  0012               	return		;funcret
  3894   00294A                     __end_of___wmul:
  3895                           	callstack 0
  3896                           
  3897 ;; *************** function _init_config *****************
  3898 ;; Defined at:
  3899 ;;		line 49 in file "main.c"
  3900 ;; Parameters:    Size  Location     Type
  3901 ;;		None
  3902 ;; Auto vars:     Size  Location     Type
  3903 ;;		None
  3904 ;; Return value:  Size  Location     Type
  3905 ;;                  1    wreg      void 
  3906 ;; Registers used:
  3907 ;;		wreg, status,2, status,0, cstack
  3908 ;; Tracked objects:
  3909 ;;		On entry : 0/0
  3910 ;;		On exit  : 0/0
  3911 ;;		Unchanged: 0/0
  3912 ;; Data sizes:     COMRAM   BANK0   BANK1   BANK2   BANK3   BANK4   BANK5
  3913 ;;      Params:         0       0       0       0       0       0       0
  3914 ;;      Locals:         0       0       0       0       0       0       0
  3915 ;;      Temps:          0       0       0       0       0       0       0
  3916 ;;      Totals:         0       0       0       0       0       0       0
  3917 ;;Total ram usage:        0 bytes
  3918 ;; Hardware stack levels used: 1
  3919 ;; Hardware stack levels required when called: 6
  3920 ;; This function calls:
  3921 ;;		_init_adc
  3922 ;;		_init_clcd
  3923 ;;		_init_ds1307
  3924 ;;		_init_i2c
  3925 ;;		_init_matrix_keypad
  3926 ;;		_init_timer0
  3927 ;; This function is called by:
  3928 ;;		_main
  3929 ;; This function uses a non-reentrant model
  3930 ;;
  3931                           
  3932                           	psect	text10
  3933   002986                     __ptext10:
  3934                           	callstack 0
  3935   002986                     _init_config:
  3936                           	callstack 24
  3937   002986                     
  3938                           ;main.c: 50:     init_clcd();
  3939   002986  EC61  F010         	call	_init_clcd	;wreg free
  3940   00298A                     
  3941                           ;main.c: 51:     init_adc();
  3942   00298A  ECB4  F014         	call	_init_adc	;wreg free
  3943   00298E                     
  3944                           ;main.c: 52:     init_matrix_keypad();
  3945   00298E  EC20  F015         	call	_init_matrix_keypad	;wreg free
  3946   002992                     
  3947                           ;main.c: 53:     init_timer0();
  3948   002992  ECD0  F014         	call	_init_timer0	;wreg free
  3949   002996                     
  3950                           ;main.c: 54:     init_i2c();
  3951   002996  ECF5  F014         	call	_init_i2c	;wreg free
  3952   00299A                     
  3953                           ;main.c: 55:     init_ds1307();
  3954   00299A  ECA3  F013         	call	_init_ds1307	;wreg free
  3955   00299E  0012               	return		;funcret
  3956   0029A0                     __end_of_init_config:
  3957                           	callstack 0
  3958                           
  3959 ;; *************** function _init_timer0 *****************
  3960 ;; Defined at:
  3961 ;;		line 11 in file "timer0.c"
  3962 ;; Parameters:    Size  Location     Type
  3963 ;;		None
  3964 ;; Auto vars:     Size  Location     Type
  3965 ;;		None
  3966 ;; Return value:  Size  Location     Type
  3967 ;;                  1    wreg      void 
  3968 ;; Registers used:
  3969 ;;		wreg, status,2
  3970 ;; Tracked objects:
  3971 ;;		On entry : 0/0
  3972 ;;		On exit  : 0/0
  3973 ;;		Unchanged: 0/0
  3974 ;; Data sizes:     COMRAM   BANK0   BANK1   BANK2   BANK3   BANK4   BANK5
  3975 ;;      Params:         0       0       0       0       0       0       0
  3976 ;;      Locals:         0       0       0       0       0       0       0
  3977 ;;      Temps:          0       0       0       0       0       0       0
  3978 ;;      Totals:         0       0       0       0       0       0       0
  3979 ;;Total ram usage:        0 bytes
  3980 ;; Hardware stack levels used: 1
  3981 ;; Hardware stack levels required when called: 1
  3982 ;; This function calls:
  3983 ;;		Nothing
  3984 ;; This function is called by:
  3985 ;;		_init_config
  3986 ;; This function uses a non-reentrant model
  3987 ;;
  3988                           
  3989                           	psect	text11
  3990   0029A0                     __ptext11:
  3991                           	callstack 0
  3992   0029A0                     _init_timer0:
  3993                           	callstack 28
  3994   0029A0                     
  3995                           ;timer0.c: 14:     GIE = 1;
  3996   0029A0  8EF2               	bsf	4082,7,c	;volatile
  3997                           
  3998                           ;timer0.c: 15:     PEIE = 1;
  3999   0029A2  8CF2               	bsf	4082,6,c	;volatile
  4000                           
  4001                           ;timer0.c: 16:     TMR0IE = 1;
  4002   0029A4  8AF2               	bsf	4082,5,c	;volatile
  4003                           
  4004                           ;timer0.c: 17:     TMR0IF = 0;
  4005   0029A6  94F2               	bcf	4082,2,c	;volatile
  4006   0029A8                     
  4007                           ;timer0.c: 20:     TMR0 = 3036;
  4008   0029A8  0E0B               	movlw	11
  4009   0029AA  6ED7               	movwf	215,c	;volatile
  4010   0029AC  0EDC               	movlw	220
  4011   0029AE  6ED6               	movwf	214,c	;volatile
  4012   0029B0                     
  4013                           ;timer0.c: 22:     TMR0ON = 1;
  4014   0029B0  8ED5               	bsf	4053,7,c	;volatile
  4015   0029B2                     
  4016                           ;timer0.c: 23:     T08BIT = 0;
  4017   0029B2  9CD5               	bcf	4053,6,c	;volatile
  4018   0029B4                     
  4019                           ;timer0.c: 25:     T0CS = 0;
  4020   0029B4  9AD5               	bcf	4053,5,c	;volatile
  4021   0029B6                     
  4022                           ;timer0.c: 26:     PSA = 1;
  4023   0029B6  86D5               	bsf	4053,3,c	;volatile
  4024   0029B8  0012               	return		;funcret
  4025   0029BA                     __end_of_init_timer0:
  4026                           	callstack 0
  4027                           
  4028 ;; *************** function _init_matrix_keypad *****************
  4029 ;; Defined at:
  4030 ;;		line 13 in file "matrix_keypad.c"
  4031 ;; Parameters:    Size  Location     Type
  4032 ;;		None
  4033 ;; Auto vars:     Size  Location     Type
  4034 ;;		None
  4035 ;; Return value:  Size  Location     Type
  4036 ;;                  1    wreg      void 
  4037 ;; Registers used:
  4038 ;;		wreg, status,2
  4039 ;; Tracked objects:
  4040 ;;		On entry : 0/0
  4041 ;;		On exit  : 0/0
  4042 ;;		Unchanged: 0/0
  4043 ;; Data sizes:     COMRAM   BANK0   BANK1   BANK2   BANK3   BANK4   BANK5
  4044 ;;      Params:         0       0       0       0       0       0       0
  4045 ;;      Locals:         0       0       0       0       0       0       0
  4046 ;;      Temps:          0       0       0       0       0       0       0
  4047 ;;      Totals:         0       0       0       0       0       0       0
  4048 ;;Total ram usage:        0 bytes
  4049 ;; Hardware stack levels used: 1
  4050 ;; Hardware stack levels required when called: 1
  4051 ;; This function calls:
  4052 ;;		Nothing
  4053 ;; This function is called by:
  4054 ;;		_init_config
  4055 ;; This function uses a non-reentrant model
  4056 ;;
  4057                           
  4058                           	psect	text12
  4059   002A40                     __ptext12:
  4060                           	callstack 0
  4061   002A40                     _init_matrix_keypad:
  4062                           	callstack 28
  4063   002A40                     
  4064                           ;matrix_keypad.c: 15:     TRISB = 0x1E;
  4065   002A40  0E1E               	movlw	30
  4066   002A42  6E93               	movwf	147,c	;volatile
  4067   002A44                     
  4068                           ;matrix_keypad.c: 16:     RBPU = 0;
  4069   002A44  9EF1               	bcf	4081,7,c	;volatile
  4070   002A46  0012               	return		;funcret
  4071   002A48                     __end_of_init_matrix_keypad:
  4072                           	callstack 0
  4073                           
  4074 ;; *************** function _init_i2c *****************
  4075 ;; Defined at:
  4076 ;;		line 12 in file "i2c.c"
  4077 ;; Parameters:    Size  Location     Type
  4078 ;;		None
  4079 ;; Auto vars:     Size  Location     Type
  4080 ;;		None
  4081 ;; Return value:  Size  Location     Type
  4082 ;;                  1    wreg      void 
  4083 ;; Registers used:
  4084 ;;		wreg, status,2
  4085 ;; Tracked objects:
  4086 ;;		On entry : 0/0
  4087 ;;		On exit  : 0/0
  4088 ;;		Unchanged: 0/0
  4089 ;; Data sizes:     COMRAM   BANK0   BANK1   BANK2   BANK3   BANK4   BANK5
  4090 ;;      Params:         0       0       0       0       0       0       0
  4091 ;;      Locals:         0       0       0       0       0       0       0
  4092 ;;      Temps:          0       0       0       0       0       0       0
  4093 ;;      Totals:         0       0       0       0       0       0       0
  4094 ;;Total ram usage:        0 bytes
  4095 ;; Hardware stack levels used: 1
  4096 ;; Hardware stack levels required when called: 1
  4097 ;; This function calls:
  4098 ;;		Nothing
  4099 ;; This function is called by:
  4100 ;;		_init_config
  4101 ;; This function uses a non-reentrant model
  4102 ;;
  4103                           
  4104                           	psect	text13
  4105   0029EA                     __ptext13:
  4106                           	callstack 0
  4107   0029EA                     _init_i2c:
  4108                           	callstack 28
  4109   0029EA                     
  4110                           ;i2c.c: 15:  TRISC3 = 1;
  4111   0029EA  8694               	bsf	3988,3,c	;volatile
  4112                           
  4113                           ;i2c.c: 16:  TRISC4 = 1;
  4114   0029EC  8894               	bsf	3988,4,c	;volatile
  4115   0029EE                     
  4116                           ;i2c.c: 18:  SSPCON1 = 0x28;
  4117   0029EE  0E28               	movlw	40
  4118   0029F0  6EC6               	movwf	198,c	;volatile
  4119                           
  4120                           ;i2c.c: 20:  SSPADD = 0x31;
  4121   0029F2  0E31               	movlw	49
  4122   0029F4  6EC8               	movwf	200,c	;volatile
  4123   0029F6                     
  4124                           ;i2c.c: 22:  CKE = 0;
  4125   0029F6  9CC7               	bcf	4039,6,c	;volatile
  4126   0029F8                     
  4127                           ;i2c.c: 24:  SMP = 1;
  4128   0029F8  8EC7               	bsf	4039,7,c	;volatile
  4129   0029FA                     
  4130                           ;i2c.c: 26:  SSPIF = 0;
  4131   0029FA  969E               	bcf	3998,3,c	;volatile
  4132   0029FC                     
  4133                           ;i2c.c: 28:  BCLIF = 0;
  4134   0029FC  96A1               	bcf	4001,3,c	;volatile
  4135   0029FE  0012               	return		;funcret
  4136   002A00                     __end_of_init_i2c:
  4137                           	callstack 0
  4138                           
  4139 ;; *************** function _init_ds1307 *****************
  4140 ;; Defined at:
  4141 ;;		line 18 in file "RTC.c"
  4142 ;; Parameters:    Size  Location     Type
  4143 ;;		None
  4144 ;; Auto vars:     Size  Location     Type
  4145 ;;  dummy           1    3[COMRAM] unsigned char 
  4146 ;; Return value:  Size  Location     Type
  4147 ;;                  1    wreg      void 
  4148 ;; Registers used:
  4149 ;;		wreg, status,2, status,0, cstack
  4150 ;; Tracked objects:
  4151 ;;		On entry : 0/0
  4152 ;;		On exit  : 0/0
  4153 ;;		Unchanged: 0/0
  4154 ;; Data sizes:     COMRAM   BANK0   BANK1   BANK2   BANK3   BANK4   BANK5
  4155 ;;      Params:         0       0       0       0       0       0       0
  4156 ;;      Locals:         1       0       0       0       0       0       0
  4157 ;;      Temps:          0       0       0       0       0       0       0
  4158 ;;      Totals:         1       0       0       0       0       0       0
  4159 ;;Total ram usage:        1 bytes
  4160 ;; Hardware stack levels used: 1
  4161 ;; Hardware stack levels required when called: 5
  4162 ;; This function calls:
  4163 ;;		_read_ds1307
  4164 ;;		_write_ds1307
  4165 ;; This function is called by:
  4166 ;;		_init_config
  4167 ;; This function uses a non-reentrant model
  4168 ;;
  4169                           
  4170                           	psect	text14
  4171   002746                     __ptext14:
  4172                           	callstack 0
  4173   002746                     _init_ds1307:
  4174                           	callstack 24
  4175   002746                     
  4176                           ;RTC.c: 20:  unsigned char dummy;;RTC.c: 23:  dummy = read_ds1307(0x00);
  4177   002746  0E00               	movlw	0
  4178   002748  EC69  F014         	call	_read_ds1307
  4179   00274C  6E04               	movwf	init_ds1307@dummy^0,c
  4180   00274E                     
  4181                           ;RTC.c: 24:  write_ds1307(0x00, dummy | 0x80);
  4182   00274E  5004               	movf	init_ds1307@dummy^0,w,c
  4183   002750  0980               	iorlw	128
  4184   002752  6E02               	movwf	write_ds1307@data^0,c
  4185   002754  0E00               	movlw	0
  4186   002756  ECA5  F014         	call	_write_ds1307
  4187   00275A                     
  4188                           ;RTC.c: 27:  dummy = read_ds1307(0x02);
  4189   00275A  0E02               	movlw	2
  4190   00275C  EC69  F014         	call	_read_ds1307
  4191   002760  6E04               	movwf	init_ds1307@dummy^0,c
  4192                           
  4193                           ;RTC.c: 28:  write_ds1307(0x02, dummy & 0xBF);
  4194   002762  5004               	movf	init_ds1307@dummy^0,w,c
  4195   002764  0BBF               	andlw	191
  4196   002766  6E02               	movwf	write_ds1307@data^0,c
  4197   002768  0E02               	movlw	2
  4198   00276A  ECA5  F014         	call	_write_ds1307
  4199   00276E                     
  4200                           ;RTC.c: 43:  write_ds1307(0x07, 0x93);
  4201   00276E  0E93               	movlw	147
  4202   002770  6E02               	movwf	write_ds1307@data^0,c
  4203   002772  0E07               	movlw	7
  4204   002774  ECA5  F014         	call	_write_ds1307
  4205   002778                     
  4206                           ;RTC.c: 46:  dummy = read_ds1307(0x00);
  4207   002778  0E00               	movlw	0
  4208   00277A  EC69  F014         	call	_read_ds1307
  4209   00277E  6E04               	movwf	init_ds1307@dummy^0,c
  4210                           
  4211                           ;RTC.c: 47:  write_ds1307(0x00, dummy & 0x7F);
  4212   002780  5004               	movf	init_ds1307@dummy^0,w,c
  4213   002782  0B7F               	andlw	127
  4214   002784  6E02               	movwf	write_ds1307@data^0,c
  4215   002786  0E00               	movlw	0
  4216   002788  ECA5  F014         	call	_write_ds1307
  4217   00278C  0012               	return		;funcret
  4218   00278E                     __end_of_init_ds1307:
  4219                           	callstack 0
  4220                           
  4221 ;; *************** function _write_ds1307 *****************
  4222 ;; Defined at:
  4223 ;;		line 51 in file "RTC.c"
  4224 ;; Parameters:    Size  Location     Type
  4225 ;;  address         1    wreg     unsigned char 
  4226 ;;  data            1    1[COMRAM] unsigned char 
  4227 ;; Auto vars:     Size  Location     Type
  4228 ;;  address         1    2[COMRAM] unsigned char 
  4229 ;; Return value:  Size  Location     Type
  4230 ;;                  1    wreg      void 
  4231 ;; Registers used:
  4232 ;;		wreg, status,2, cstack
  4233 ;; Tracked objects:
  4234 ;;		On entry : 0/0
  4235 ;;		On exit  : 0/0
  4236 ;;		Unchanged: 0/0
  4237 ;; Data sizes:     COMRAM   BANK0   BANK1   BANK2   BANK3   BANK4   BANK5
  4238 ;;      Params:         1       0       0       0       0       0       0
  4239 ;;      Locals:         1       0       0       0       0       0       0
  4240 ;;      Temps:          0       0       0       0       0       0       0
  4241 ;;      Totals:         2       0       0       0       0       0       0
  4242 ;;Total ram usage:        2 bytes
  4243 ;; Hardware stack levels used: 1
  4244 ;; Hardware stack levels required when called: 3
  4245 ;; This function calls:
  4246 ;;		_i2c_start
  4247 ;;		_i2c_stop
  4248 ;;		_i2c_write
  4249 ;; This function is called by:
  4250 ;;		_set_time
  4251 ;;		_init_ds1307
  4252 ;; This function uses a non-reentrant model
  4253 ;;
  4254                           
  4255                           	psect	text15
  4256   00294A                     __ptext15:
  4257                           	callstack 0
  4258   00294A                     _write_ds1307:
  4259                           	callstack 26
  4260                           
  4261                           ;incstack = 0
  4262                           ;write_ds1307@address stored from wreg
  4263   00294A  6E03               	movwf	write_ds1307@address^0,c
  4264   00294C                     
  4265                           ;RTC.c: 51: void write_ds1307(unsigned char address, unsigned char data);RTC.c: 52: {;RT
      +                          C.c: 53:  i2c_start();
  4266   00294C  EC30  F015         	call	_i2c_start	;wreg free
  4267   002950                     
  4268                           ;RTC.c: 54:  i2c_write(0xD0);
  4269   002950  0ED0               	movlw	208
  4270   002952  EC1A  F015         	call	_i2c_write
  4271   002956                     
  4272                           ;RTC.c: 55:  i2c_write(address);
  4273   002956  5003               	movf	write_ds1307@address^0,w,c
  4274   002958  EC1A  F015         	call	_i2c_write
  4275   00295C                     
  4276                           ;RTC.c: 56:  i2c_write(data);
  4277   00295C  5002               	movf	write_ds1307@data^0,w,c
  4278   00295E  EC1A  F015         	call	_i2c_write
  4279   002962                     
  4280                           ;RTC.c: 57:  i2c_stop();
  4281   002962  EC2C  F015         	call	_i2c_stop	;wreg free
  4282   002966  0012               	return		;funcret
  4283   002968                     __end_of_write_ds1307:
  4284                           	callstack 0
  4285                           
  4286 ;; *************** function _init_clcd *****************
  4287 ;; Defined at:
  4288 ;;		line 35 in file "clcd.c"
  4289 ;; Parameters:    Size  Location     Type
  4290 ;;		None
  4291 ;; Auto vars:     Size  Location     Type
  4292 ;;		None
  4293 ;; Return value:  Size  Location     Type
  4294 ;;                  1    wreg      void 
  4295 ;; Registers used:
  4296 ;;		wreg, status,2, status,0, cstack
  4297 ;; Tracked objects:
  4298 ;;		On entry : 0/0
  4299 ;;		On exit  : 0/0
  4300 ;;		Unchanged: 0/0
  4301 ;; Data sizes:     COMRAM   BANK0   BANK1   BANK2   BANK3   BANK4   BANK5
  4302 ;;      Params:         0       0       0       0       0       0       0
  4303 ;;      Locals:         0       0       0       0       0       0       0
  4304 ;;      Temps:          2       0       0       0       0       0       0
  4305 ;;      Totals:         2       0       0       0       0       0       0
  4306 ;;Total ram usage:        2 bytes
  4307 ;; Hardware stack levels used: 1
  4308 ;; Hardware stack levels required when called: 2
  4309 ;; This function calls:
  4310 ;;		_clcd_write
  4311 ;; This function is called by:
  4312 ;;		_init_config
  4313 ;; This function uses a non-reentrant model
  4314 ;;
  4315                           
  4316                           	psect	text16
  4317   0020C2                     __ptext16:
  4318                           	callstack 0
  4319   0020C2                     _init_clcd:
  4320                           	callstack 27
  4321   0020C2                     
  4322                           ;clcd.c: 38:  TRISD = 0x00;
  4323   0020C2  0E00               	movlw	0
  4324   0020C4  6E95               	movwf	149,c	;volatile
  4325   0020C6                     
  4326                           ;clcd.c: 40:  TRISC = TRISC & 0xF8;
  4327   0020C6  5094               	movf	148,w,c	;volatile
  4328   0020C8  0BF8               	andlw	248
  4329   0020CA  6E94               	movwf	148,c	;volatile
  4330   0020CC                     
  4331                           ;clcd.c: 42:  RC0 = 0;
  4332   0020CC  9082               	bcf	3970,0,c	;volatile
  4333   0020CE                     
  4334                           ;clcd.c: 46:     _delay((unsigned long)((40)*(20000000/4000.0)));
  4335   0020CE  0E02               	movlw	2
  4336   0020D0  6E04               	movwf	(??_init_clcd+1)^0,c
  4337   0020D2  0E04               	movlw	4
  4338   0020D4  6E03               	movwf	??_init_clcd^0,c
  4339   0020D6  0EBA               	movlw	186
  4340   0020D8                     u4507:
  4341   0020D8  2EE8               	decfsz	wreg,f,c
  4342   0020DA  D7FE               	bra	u4507
  4343   0020DC  2E03               	decfsz	??_init_clcd^0,f,c
  4344   0020DE  D7FC               	bra	u4507
  4345   0020E0  2E04               	decfsz	(??_init_clcd+1)^0,f,c
  4346   0020E2  D7FA               	bra	u4507
  4347   0020E4  D000               	nop2	
  4348   0020E6                     
  4349                           ;clcd.c: 49:     clcd_write(0x33, 0 );
  4350   0020E6  0E00               	movlw	0
  4351   0020E8  6E01               	movwf	clcd_write@control_bit^0,c
  4352   0020EA  0E33               	movlw	51
  4353   0020EC  EC05  F014         	call	_clcd_write
  4354   0020F0                     
  4355                           ;clcd.c: 50:     _delay((unsigned long)((4100)*(20000000/4000000.0)));
  4356   0020F0  0E1B               	movlw	27
  4357   0020F2  6E03               	movwf	??_init_clcd^0,c
  4358   0020F4  0E9E               	movlw	158
  4359   0020F6                     u4517:
  4360   0020F6  2EE8               	decfsz	wreg,f,c
  4361   0020F8  D7FE               	bra	u4517
  4362   0020FA  2E03               	decfsz	??_init_clcd^0,f,c
  4363   0020FC  D7FC               	bra	u4517
  4364   0020FE  D000               	nop2	
  4365   002100                     
  4366                           ;clcd.c: 51:     clcd_write(0x33, 0 );
  4367   002100  0E00               	movlw	0
  4368   002102  6E01               	movwf	clcd_write@control_bit^0,c
  4369   002104  0E33               	movlw	51
  4370   002106  EC05  F014         	call	_clcd_write
  4371   00210A                     
  4372                           ;clcd.c: 52:     _delay((unsigned long)((100)*(20000000/4000000.0)));
  4373   00210A  0EA6               	movlw	166
  4374   00210C                     u4527:
  4375   00210C  2EE8               	decfsz	wreg,f,c
  4376   00210E  D7FE               	bra	u4527
  4377   002110  D000               	nop2	
  4378   002112                     
  4379                           ;clcd.c: 53:     clcd_write(0x33, 0 );
  4380   002112  0E00               	movlw	0
  4381   002114  6E01               	movwf	clcd_write@control_bit^0,c
  4382   002116  0E33               	movlw	51
  4383   002118  EC05  F014         	call	_clcd_write
  4384   00211C                     
  4385                           ;clcd.c: 54:     _delay((unsigned long)((1)*(20000000/4000000.0)));
  4386   00211C  D000               	nop2		;2 cycle nop
  4387   00211E  D000               	nop2		;2 cycle nop
  4388   002120  F000               	nop	
  4389   002122                     
  4390                           ;clcd.c: 56:     clcd_write(0x02, 0);
  4391   002122  0E00               	movlw	0
  4392   002124  6E01               	movwf	clcd_write@control_bit^0,c
  4393   002126  0E02               	movlw	2
  4394   002128  EC05  F014         	call	_clcd_write
  4395   00212C                     
  4396                           ;clcd.c: 57:     _delay((unsigned long)((100)*(20000000/4000000.0)));
  4397   00212C  0EA6               	movlw	166
  4398   00212E                     u4537:
  4399   00212E  2EE8               	decfsz	wreg,f,c
  4400   002130  D7FE               	bra	u4537
  4401   002132  D000               	nop2	
  4402   002134                     
  4403                           ;clcd.c: 58:     clcd_write(0x38, 0);
  4404   002134  0E00               	movlw	0
  4405   002136  6E01               	movwf	clcd_write@control_bit^0,c
  4406   002138  0E38               	movlw	56
  4407   00213A  EC05  F014         	call	_clcd_write
  4408   00213E                     
  4409                           ;clcd.c: 59:     _delay((unsigned long)((100)*(20000000/4000000.0)));
  4410   00213E  0EA6               	movlw	166
  4411   002140                     u4547:
  4412   002140  2EE8               	decfsz	wreg,f,c
  4413   002142  D7FE               	bra	u4547
  4414   002144  D000               	nop2	
  4415   002146                     
  4416                           ;clcd.c: 60:     clcd_write(0x01, 0);
  4417   002146  0E00               	movlw	0
  4418   002148  6E01               	movwf	clcd_write@control_bit^0,c
  4419   00214A  0E01               	movlw	1
  4420   00214C  EC05  F014         	call	_clcd_write
  4421   002150                     
  4422                           ;clcd.c: 61:     _delay((unsigned long)((500)*(20000000/4000000.0)));
  4423   002150  0E04               	movlw	4
  4424   002152  6E03               	movwf	??_init_clcd^0,c
  4425   002154  0E3E               	movlw	62
  4426   002156                     u4557:
  4427   002156  2EE8               	decfsz	wreg,f,c
  4428   002158  D7FE               	bra	u4557
  4429   00215A  2E03               	decfsz	??_init_clcd^0,f,c
  4430   00215C  D7FC               	bra	u4557
  4431   00215E                     
  4432                           ;clcd.c: 62:     clcd_write(0x0C, 0);
  4433   00215E  0E00               	movlw	0
  4434   002160  6E01               	movwf	clcd_write@control_bit^0,c
  4435   002162  0E0C               	movlw	12
  4436   002164  EC05  F014         	call	_clcd_write
  4437   002168                     
  4438                           ;clcd.c: 63:     _delay((unsigned long)((100)*(20000000/4000000.0)));
  4439   002168  0EA6               	movlw	166
  4440   00216A                     u4567:
  4441   00216A  2EE8               	decfsz	wreg,f,c
  4442   00216C  D7FE               	bra	u4567
  4443   00216E  D000               	nop2	
  4444   002170  0012               	return		;funcret
  4445   002172                     __end_of_init_clcd:
  4446                           	callstack 0
  4447                           
  4448 ;; *************** function _init_adc *****************
  4449 ;; Defined at:
  4450 ;;		line 12 in file "adc.c"
  4451 ;; Parameters:    Size  Location     Type
  4452 ;;		None
  4453 ;; Auto vars:     Size  Location     Type
  4454 ;;		None
  4455 ;; Return value:  Size  Location     Type
  4456 ;;                  1    wreg      void 
  4457 ;; Registers used:
  4458 ;;		None
  4459 ;; Tracked objects:
  4460 ;;		On entry : 0/0
  4461 ;;		On exit  : 0/0
  4462 ;;		Unchanged: 0/0
  4463 ;; Data sizes:     COMRAM   BANK0   BANK1   BANK2   BANK3   BANK4   BANK5
  4464 ;;      Params:         0       0       0       0       0       0       0
  4465 ;;      Locals:         0       0       0       0       0       0       0
  4466 ;;      Temps:          0       0       0       0       0       0       0
  4467 ;;      Totals:         0       0       0       0       0       0       0
  4468 ;;Total ram usage:        0 bytes
  4469 ;; Hardware stack levels used: 1
  4470 ;; Hardware stack levels required when called: 1
  4471 ;; This function calls:
  4472 ;;		Nothing
  4473 ;; This function is called by:
  4474 ;;		_init_config
  4475 ;; This function uses a non-reentrant model
  4476 ;;
  4477                           
  4478                           	psect	text17
  4479   002968                     __ptext17:
  4480                           	callstack 0
  4481   002968                     _init_adc:
  4482                           	callstack 28
  4483   002968                     
  4484                           ;adc.c: 14:     ADON = 1;
  4485   002968  80C2               	bsf	4034,0,c	;volatile
  4486                           
  4487                           ;adc.c: 15:     VCFG1 = 0;
  4488   00296A  9AC1               	bcf	4033,5,c	;volatile
  4489                           
  4490                           ;adc.c: 16:     VCFG0 = 0;
  4491   00296C  98C1               	bcf	4033,4,c	;volatile
  4492                           
  4493                           ;adc.c: 17:     PCFG3 = 1;
  4494   00296E  86C1               	bsf	4033,3,c	;volatile
  4495                           
  4496                           ;adc.c: 18:     PCFG2 = 1;
  4497   002970  84C1               	bsf	4033,2,c	;volatile
  4498                           
  4499                           ;adc.c: 19:     PCFG1 = 1;
  4500   002972  82C1               	bsf	4033,1,c	;volatile
  4501                           
  4502                           ;adc.c: 20:     PCFG0 = 1;
  4503   002974  80C1               	bsf	4033,0,c	;volatile
  4504                           
  4505                           ;adc.c: 21:     ACQT2 = 1;
  4506   002976  8AC0               	bsf	4032,5,c	;volatile
  4507                           
  4508                           ;adc.c: 22:     ACQT1 = 0;
  4509   002978  98C0               	bcf	4032,4,c	;volatile
  4510                           
  4511                           ;adc.c: 23:     ACQT0 = 0;
  4512   00297A  96C0               	bcf	4032,3,c	;volatile
  4513                           
  4514                           ;adc.c: 24:     ADCS2 = 0;
  4515   00297C  94C0               	bcf	4032,2,c	;volatile
  4516                           
  4517                           ;adc.c: 25:     ADCS1 = 1;
  4518   00297E  82C0               	bsf	4032,1,c	;volatile
  4519                           
  4520                           ;adc.c: 26:     ADCS0 = 0;
  4521   002980  90C0               	bcf	4032,0,c	;volatile
  4522                           
  4523                           ;adc.c: 27:     ADFM = 1;
  4524   002982  8EC0               	bsf	4032,7,c	;volatile
  4525   002984  0012               	return		;funcret
  4526   002986                     __end_of_init_adc:
  4527                           	callstack 0
  4528                           
  4529 ;; *************** function _enter_password *****************
  4530 ;; Defined at:
  4531 ;;		line 118 in file "car_black_box.c"
  4532 ;; Parameters:    Size  Location     Type
  4533 ;;  key             1    wreg     unsigned char 
  4534 ;; Auto vars:     Size  Location     Type
  4535 ;;  key             1   23[COMRAM] unsigned char 
  4536 ;;  j               2   24[COMRAM] int 
  4537 ;; Return value:  Size  Location     Type
  4538 ;;                  1    wreg      void 
  4539 ;; Registers used:
  4540 ;;		wreg, fsr0l, fsr0h, fsr1l, fsr1h, fsr2l, fsr2h, status,2, status,0, tblptrl, tblptrh, tblptru, cstack
  4541 ;; Tracked objects:
  4542 ;;		On entry : 0/0
  4543 ;;		On exit  : 0/0
  4544 ;;		Unchanged: 0/0
  4545 ;; Data sizes:     COMRAM   BANK0   BANK1   BANK2   BANK3   BANK4   BANK5
  4546 ;;      Params:         0       0       0       0       0       0       0
  4547 ;;      Locals:         3       0       0       0       0       0       0
  4548 ;;      Temps:          2       0       0       0       0       0       0
  4549 ;;      Totals:         5       0       0       0       0       0       0
  4550 ;;Total ram usage:        5 bytes
  4551 ;; Hardware stack levels used: 1
  4552 ;; Hardware stack levels required when called: 4
  4553 ;; This function calls:
  4554 ;;		___awdiv
  4555 ;;		___awmod
  4556 ;;		_clcd_print
  4557 ;;		_clcd_putch
  4558 ;;		_store_password
  4559 ;; This function is called by:
  4560 ;;		_main
  4561 ;; This function uses a non-reentrant model
  4562 ;;
  4563                           
  4564                           	psect	text18
  4565   0010C4                     __ptext18:
  4566                           	callstack 0
  4567   0010C4                     _enter_password:
  4568                           	callstack 26
  4569                           
  4570                           ;incstack = 0
  4571                           ;enter_password@key stored from wreg
  4572   0010C4  6E18               	movwf	enter_password@key^0,c
  4573   0010C6                     
  4574                           ;car_black_box.c: 119:     clcd_print(" Enter Password ", (0x80 + (0)));
  4575   0010C6  0EF2               	movlw	low STR_41
  4576   0010C8  6E03               	movwf	clcd_print@data^0,c
  4577   0010CA  0E2E               	movlw	high STR_41
  4578   0010CC  6E04               	movwf	(clcd_print@data+1)^0,c
  4579   0010CE  0E80               	movlw	128
  4580   0010D0  6E05               	movwf	clcd_print@addr^0,c
  4581   0010D2  ECB4  F012         	call	_clcd_print	;wreg free
  4582   0010D6                     
  4583                           ;car_black_box.c: 121:     if (sec == 55) {
  4584   0010D6  0E37               	movlw	55
  4585   0010D8  185E               	xorwf	_sec^0,w,c
  4586   0010DA  A4D8               	btfss	status,2,c
  4587   0010DC  EF72  F008         	goto	u2991
  4588   0010E0  EF74  F008         	goto	u2990
  4589   0010E4                     u2991:
  4590   0010E4  EF90  F008         	goto	l3700
  4591   0010E8                     u2990:
  4592   0010E8                     
  4593                           ;car_black_box.c: 122:         clcd_print("                ", (0x80 + (0)));
  4594   0010E8  0E58               	movlw	low STR_19
  4595   0010EA  6E03               	movwf	clcd_print@data^0,c
  4596   0010EC  0E2F               	movlw	high STR_19
  4597   0010EE  6E04               	movwf	(clcd_print@data+1)^0,c
  4598   0010F0  0E80               	movlw	128
  4599   0010F2  6E05               	movwf	clcd_print@addr^0,c
  4600   0010F4  ECB4  F012         	call	_clcd_print	;wreg free
  4601                           
  4602                           ;car_black_box.c: 123:         clcd_print("                ", (0xC0 + (0)));
  4603   0010F8  0E58               	movlw	low STR_19
  4604   0010FA  6E03               	movwf	clcd_print@data^0,c
  4605   0010FC  0E2F               	movlw	high STR_19
  4606   0010FE  6E04               	movwf	(clcd_print@data+1)^0,c
  4607   001100  0EC0               	movlw	192
  4608   001102  6E05               	movwf	clcd_print@addr^0,c
  4609   001104  ECB4  F012         	call	_clcd_print	;wreg free
  4610   001108                     
  4611                           ;car_black_box.c: 124:         pass_flag = ind = wait = 0;
  4612   001108  0E00               	movlw	0
  4613   00110A  6E44               	movwf	(_wait+1)^0,c
  4614   00110C  0E00               	movlw	0
  4615   00110E  6E43               	movwf	_wait^0,c
  4616   001110  C043  F052         	movff	_wait,_ind
  4617   001114  C052  F05A         	movff	_ind,_pass_flag
  4618   001118                     l3696:
  4619                           
  4620                           ;car_black_box.c: 125:         attempt = 3;
  4621   001118  0E03               	movlw	3
  4622   00111A  6E5C               	movwf	_attempt^0,c
  4623   00111C  EFB9  F009         	goto	l333
  4624   001120                     l3700:
  4625                           
  4626                           ;car_black_box.c: 130:     if (ind < 4)
  4627   001120  0E04               	movlw	4
  4628   001122  6052               	cpfslt	_ind^0,c
  4629   001124  EF96  F008         	goto	u3001
  4630   001128  EF98  F008         	goto	u3000
  4631   00112C                     u3001:
  4632   00112C  EF9F  F008         	goto	l3704
  4633   001130                     u3000:
  4634   001130                     
  4635                           ;car_black_box.c: 131:         store_password(key, input_pass);
  4636   001130  0E8B               	movlw	low _input_pass
  4637   001132  6E11               	movwf	store_password@pass^0,c
  4638   001134  0E00               	movlw	high _input_pass
  4639   001136  6E12               	movwf	(store_password@pass+1)^0,c
  4640   001138  5018               	movf	enter_password@key^0,w,c
  4641   00113A  EC8C  F00F         	call	_store_password
  4642   00113E                     l3704:
  4643                           
  4644                           ;car_black_box.c: 134:     if (ind == 4) {
  4645   00113E  0E04               	movlw	4
  4646   001140  1852               	xorwf	_ind^0,w,c
  4647   001142  A4D8               	btfss	status,2,c
  4648   001144  EFA6  F008         	goto	u3011
  4649   001148  EFA8  F008         	goto	u3010
  4650   00114C                     u3011:
  4651   00114C  EF56  F009         	goto	l3754
  4652   001150                     u3010:
  4653   001150                     
  4654                           ;car_black_box.c: 135:         _delay((unsigned long)((300)*(20000000/4000.0)));
  4655   001150  0E08               	movlw	8
  4656   001152  6E17               	movwf	(??_enter_password+1)^0,c
  4657   001154  0E9D               	movlw	157
  4658   001156  6E16               	movwf	??_enter_password^0,c
  4659   001158  0E06               	movlw	6
  4660   00115A                     u4577:
  4661   00115A  2EE8               	decfsz	wreg,f,c
  4662   00115C  D7FE               	bra	u4577
  4663   00115E  2E16               	decfsz	??_enter_password^0,f,c
  4664   001160  D7FC               	bra	u4577
  4665   001162  2E17               	decfsz	(??_enter_password+1)^0,f,c
  4666   001164  D7FA               	bra	u4577
  4667   001166                     
  4668                           ;car_black_box.c: 136:         ind = 0;
  4669   001166  0E00               	movlw	0
  4670   001168  6E52               	movwf	_ind^0,c
  4671   00116A                     
  4672                           ;car_black_box.c: 137:         for (int j = 0; j < 4; j++) {
  4673   00116A  0E00               	movlw	0
  4674   00116C  6E1A               	movwf	(enter_password@j+1)^0,c
  4675   00116E  0E00               	movlw	0
  4676   001170  6E19               	movwf	enter_password@j^0,c
  4677   001172                     l3716:
  4678                           
  4679                           ;car_black_box.c: 138:             if (password[j] == input_pass[j]) {
  4680   001172  0E8B               	movlw	low _input_pass
  4681   001174  2419               	addwf	enter_password@j^0,w,c
  4682   001176  6ED9               	movwf	fsr2l,c
  4683   001178  0E00               	movlw	high _input_pass
  4684   00117A  201A               	addwfc	(enter_password@j+1)^0,w,c
  4685   00117C  6EDA               	movwf	fsr2h,c
  4686   00117E  0EB3               	movlw	low _password
  4687   001180  2419               	addwf	enter_password@j^0,w,c
  4688   001182  6EE1               	movwf	fsr1l,c
  4689   001184  0E00               	movlw	high _password
  4690   001186  201A               	addwfc	(enter_password@j+1)^0,w,c
  4691   001188  6EE2               	movwf	fsr1h,c
  4692   00118A  50DE               	movf	postinc2,w,c
  4693   00118C  18E6               	xorwf	postinc1,w,c
  4694   00118E  A4D8               	btfss	status,2,c
  4695   001190  EFCC  F008         	goto	u3021
  4696   001194  EFCE  F008         	goto	u3020
  4697   001198                     u3021:
  4698   001198  EFCF  F008         	goto	l338
  4699   00119C                     u3020:
  4700   00119C                     
  4701                           ;car_black_box.c: 139:                 count++;
  4702   00119C  2A51               	incf	_count^0,f,c
  4703   00119E                     l338:
  4704                           
  4705                           ;car_black_box.c: 141:         }
  4706   00119E  4A19               	infsnz	enter_password@j^0,f,c
  4707   0011A0  2A1A               	incf	(enter_password@j+1)^0,f,c
  4708   0011A2  BE1A               	btfsc	(enter_password@j+1)^0,7,c
  4709   0011A4  EFDD  F008         	goto	u3031
  4710   0011A8  501A               	movf	(enter_password@j+1)^0,w,c
  4711   0011AA  E109               	bnz	u3030
  4712   0011AC  0E04               	movlw	4
  4713   0011AE  5C19               	subwf	enter_password@j^0,w,c
  4714   0011B0  A0D8               	btfss	status,0,c
  4715   0011B2  EFDD  F008         	goto	u3031
  4716   0011B6  EFDF  F008         	goto	u3030
  4717   0011BA                     u3031:
  4718   0011BA  EFB9  F008         	goto	l3716
  4719   0011BE                     u3030:
  4720   0011BE                     
  4721                           ;car_black_box.c: 145:         if (count == 4) {
  4722   0011BE  0E04               	movlw	4
  4723   0011C0  1851               	xorwf	_count^0,w,c
  4724   0011C2  A4D8               	btfss	status,2,c
  4725   0011C4  EFE6  F008         	goto	u3041
  4726   0011C8  EFE8  F008         	goto	u3040
  4727   0011CC                     u3041:
  4728   0011CC  EF21  F009         	goto	l3738
  4729   0011D0                     u3040:
  4730   0011D0                     
  4731                           ;car_black_box.c: 146:             clcd_print("Correct password", (0x80 + (0)));
  4732   0011D0  0E47               	movlw	low STR_44
  4733   0011D2  6E03               	movwf	clcd_print@data^0,c
  4734   0011D4  0E2F               	movlw	high STR_44
  4735   0011D6  6E04               	movwf	(clcd_print@data+1)^0,c
  4736   0011D8  0E80               	movlw	128
  4737   0011DA  6E05               	movwf	clcd_print@addr^0,c
  4738   0011DC  ECB4  F012         	call	_clcd_print	;wreg free
  4739                           
  4740                           ;car_black_box.c: 147:             clcd_print("                ", (0xC0 + (0)));
  4741   0011E0  0E58               	movlw	low STR_19
  4742   0011E2  6E03               	movwf	clcd_print@data^0,c
  4743   0011E4  0E2F               	movlw	high STR_19
  4744   0011E6  6E04               	movwf	(clcd_print@data+1)^0,c
  4745   0011E8  0EC0               	movlw	192
  4746   0011EA  6E05               	movwf	clcd_print@addr^0,c
  4747   0011EC  ECB4  F012         	call	_clcd_print	;wreg free
  4748   0011F0                     
  4749                           ;car_black_box.c: 148:             _delay((unsigned long)((1000)*(20000000/4000.0)));
  4750   0011F0  0E1A               	movlw	26
  4751   0011F2  6E17               	movwf	(??_enter_password+1)^0,c
  4752   0011F4  0E5E               	movlw	94
  4753   0011F6  6E16               	movwf	??_enter_password^0,c
  4754   0011F8  0E6E               	movlw	110
  4755   0011FA                     u4587:
  4756   0011FA  2EE8               	decfsz	wreg,f,c
  4757   0011FC  D7FE               	bra	u4587
  4758   0011FE  2E16               	decfsz	??_enter_password^0,f,c
  4759   001200  D7FC               	bra	u4587
  4760   001202  2E17               	decfsz	(??_enter_password+1)^0,f,c
  4761   001204  D7FA               	bra	u4587
  4762   001206  D000               	nop2	
  4763   001208                     
  4764                           ;car_black_box.c: 149:             pass_flag = 2;
  4765   001208  0E02               	movlw	2
  4766   00120A  6E5A               	movwf	_pass_flag^0,c
  4767   00120C                     
  4768                           ;car_black_box.c: 150:             sec = 60;
  4769   00120C  0E3C               	movlw	60
  4770   00120E  6E5E               	movwf	_sec^0,c
  4771   001210                     
  4772                           ;car_black_box.c: 151:             clcd_print("                ", (0x80 + (0)));
  4773   001210  0E58               	movlw	low STR_19
  4774   001212  6E03               	movwf	clcd_print@data^0,c
  4775   001214  0E2F               	movlw	high STR_19
  4776   001216  6E04               	movwf	(clcd_print@data+1)^0,c
  4777   001218  0E80               	movlw	128
  4778   00121A  6E05               	movwf	clcd_print@addr^0,c
  4779   00121C  ECB4  F012         	call	_clcd_print	;wreg free
  4780   001220                     
  4781                           ;car_black_box.c: 152:             ind = mode = count = wait = prekey = pre_key_1 = 0;
  4782   001220  0E00               	movlw	0
  4783   001222  6E4A               	movwf	_pre_key_1^0,c
  4784   001224  C04A  F04B         	movff	_pre_key_1,_prekey
  4785   001228  C04B  F043         	movff	_prekey,_wait
  4786   00122C  6A44               	clrf	(_wait+1)^0,c
  4787   00122E  C043  F051         	movff	_wait,_count
  4788   001232  C051  F049         	movff	_count,_mode
  4789   001236  C049  F052         	movff	_mode,_ind
  4790   00123A                     
  4791                           ;car_black_box.c: 153:             attempt = 3;
  4792   00123A  0E03               	movlw	3
  4793   00123C  6E5C               	movwf	_attempt^0,c
  4794                           
  4795                           ;car_black_box.c: 154:         }
  4796   00123E  EF56  F009         	goto	l3754
  4797   001242                     l3738:
  4798   001242  0E04               	movlw	4
  4799   001244  6051               	cpfslt	_count^0,c
  4800   001246  EF27  F009         	goto	u3051
  4801   00124A  EF29  F009         	goto	u3050
  4802   00124E                     u3051:
  4803   00124E  EF56  F009         	goto	l3754
  4804   001252                     u3050:
  4805   001252                     
  4806                           ;car_black_box.c: 156:             count = 0;
  4807   001252  0E00               	movlw	0
  4808   001254  6E51               	movwf	_count^0,c
  4809   001256                     
  4810                           ;car_black_box.c: 157:             attempt--;
  4811   001256  065C               	decf	_attempt^0,f,c
  4812   001258                     
  4813                           ;car_black_box.c: 160:             clcd_print(" Wrong Password ", (0x80 + (0)));
  4814   001258  0EE1               	movlw	low STR_47
  4815   00125A  6E03               	movwf	clcd_print@data^0,c
  4816   00125C  0E2E               	movlw	high STR_47
  4817   00125E  6E04               	movwf	(clcd_print@data+1)^0,c
  4818   001260  0E80               	movlw	128
  4819   001262  6E05               	movwf	clcd_print@addr^0,c
  4820   001264  ECB4  F012         	call	_clcd_print	;wreg free
  4821   001268                     
  4822                           ;car_black_box.c: 161:             clcd_putch(attempt + 48, (0xC0 + (1)));
  4823   001268  0EC1               	movlw	193
  4824   00126A  6E0F               	movwf	clcd_putch@addr^0,c
  4825   00126C  505C               	movf	_attempt^0,w,c
  4826   00126E  0F30               	addlw	48
  4827   001270  ECE9  F014         	call	_clcd_putch
  4828   001274                     
  4829                           ;car_black_box.c: 162:             clcd_print(" -> attempts  ", (0xC0 + (2)));
  4830   001274  0E69               	movlw	low STR_48
  4831   001276  6E03               	movwf	clcd_print@data^0,c
  4832   001278  0E2F               	movlw	high STR_48
  4833   00127A  6E04               	movwf	(clcd_print@data+1)^0,c
  4834   00127C  0EC2               	movlw	194
  4835   00127E  6E05               	movwf	clcd_print@addr^0,c
  4836   001280  ECB4  F012         	call	_clcd_print	;wreg free
  4837   001284                     
  4838                           ;car_black_box.c: 163:             _delay((unsigned long)((1000)*(20000000/4000.0)));
  4839   001284  0E1A               	movlw	26
  4840   001286  6E17               	movwf	(??_enter_password+1)^0,c
  4841   001288  0E5E               	movlw	94
  4842   00128A  6E16               	movwf	??_enter_password^0,c
  4843   00128C  0E6E               	movlw	110
  4844   00128E                     u4597:
  4845   00128E  2EE8               	decfsz	wreg,f,c
  4846   001290  D7FE               	bra	u4597
  4847   001292  2E16               	decfsz	??_enter_password^0,f,c
  4848   001294  D7FC               	bra	u4597
  4849   001296  2E17               	decfsz	(??_enter_password+1)^0,f,c
  4850   001298  D7FA               	bra	u4597
  4851   00129A  D000               	nop2	
  4852   00129C                     
  4853                           ;car_black_box.c: 164:             clcd_print("                ", (0xC0 + (0)));
  4854   00129C  0E58               	movlw	low STR_19
  4855   00129E  6E03               	movwf	clcd_print@data^0,c
  4856   0012A0  0E2F               	movlw	high STR_19
  4857   0012A2  6E04               	movwf	(clcd_print@data+1)^0,c
  4858   0012A4  0EC0               	movlw	192
  4859   0012A6  6E05               	movwf	clcd_print@addr^0,c
  4860   0012A8  ECB4  F012         	call	_clcd_print	;wreg free
  4861   0012AC                     l3754:
  4862                           
  4863                           ;car_black_box.c: 168:     if (attempt == 0) {
  4864   0012AC  505C               	movf	_attempt^0,w,c
  4865   0012AE  A4D8               	btfss	status,2,c
  4866   0012B0  EF5C  F009         	goto	u3061
  4867   0012B4  EF5E  F009         	goto	u3060
  4868   0012B8                     u3061:
  4869   0012B8  EFB9  F009         	goto	l333
  4870   0012BC                     u3060:
  4871   0012BC                     
  4872                           ;car_black_box.c: 169:         for (sec = 59; sec != 60;) {
  4873   0012BC  0E3B               	movlw	59
  4874   0012BE  6E5E               	movwf	_sec^0,c
  4875   0012C0                     l3758:
  4876   0012C0  0E3C               	movlw	60
  4877   0012C2  185E               	xorwf	_sec^0,w,c
  4878   0012C4  A4D8               	btfss	status,2,c
  4879   0012C6  EF67  F009         	goto	u3071
  4880   0012CA  EF69  F009         	goto	u3070
  4881   0012CE                     u3071:
  4882   0012CE  EF6B  F009         	goto	l3762
  4883   0012D2                     u3070:
  4884   0012D2  EFA3  F009         	goto	l3770
  4885   0012D6                     l3762:
  4886                           
  4887                           ;car_black_box.c: 170:             clcd_print(" Attempts over  ", (0x80 + (0)));
  4888   0012D6  0E9D               	movlw	low STR_50
  4889   0012D8  6E03               	movwf	clcd_print@data^0,c
  4890   0012DA  0E2E               	movlw	high STR_50
  4891   0012DC  6E04               	movwf	(clcd_print@data+1)^0,c
  4892   0012DE  0E80               	movlw	128
  4893   0012E0  6E05               	movwf	clcd_print@addr^0,c
  4894   0012E2  ECB4  F012         	call	_clcd_print	;wreg free
  4895                           
  4896                           ;car_black_box.c: 171:             clcd_print(" Wait for ", (0xC0 + (0)));
  4897   0012E6  0EBE               	movlw	low STR_51
  4898   0012E8  6E03               	movwf	clcd_print@data^0,c
  4899   0012EA  0E2F               	movlw	high STR_51
  4900   0012EC  6E04               	movwf	(clcd_print@data+1)^0,c
  4901   0012EE  0EC0               	movlw	192
  4902   0012F0  6E05               	movwf	clcd_print@addr^0,c
  4903   0012F2  ECB4  F012         	call	_clcd_print	;wreg free
  4904   0012F6                     
  4905                           ;car_black_box.c: 172:             clcd_putch(sec / 10 + 48, (0xC0 + (10)));
  4906   0012F6  0ECA               	movlw	202
  4907   0012F8  6E0F               	movwf	clcd_putch@addr^0,c
  4908   0012FA  C05E  F007         	movff	_sec,___awdiv@dividend
  4909   0012FE  6A08               	clrf	(___awdiv@dividend+1)^0,c
  4910   001300  0E00               	movlw	0
  4911   001302  6E0A               	movwf	(___awdiv@divisor+1)^0,c
  4912   001304  0E0A               	movlw	10
  4913   001306  6E09               	movwf	___awdiv@divisor^0,c
  4914   001308  ECFF  F00F         	call	___awdiv	;wreg free
  4915   00130C  5007               	movf	?___awdiv^0,w,c
  4916   00130E  0F30               	addlw	48
  4917   001310  ECE9  F014         	call	_clcd_putch
  4918   001314                     
  4919                           ;car_black_box.c: 173:             clcd_putch(sec % 10 + 48, (0xC0 + (11)));
  4920   001314  0ECB               	movlw	203
  4921   001316  6E0F               	movwf	clcd_putch@addr^0,c
  4922   001318  C05E  F001         	movff	_sec,___awmod@dividend
  4923   00131C  6A02               	clrf	(___awmod@dividend+1)^0,c
  4924   00131E  0E00               	movlw	0
  4925   001320  6E04               	movwf	(___awmod@divisor+1)^0,c
  4926   001322  0E0A               	movlw	10
  4927   001324  6E03               	movwf	___awmod@divisor^0,c
  4928   001326  ECB9  F010         	call	___awmod	;wreg free
  4929   00132A  5001               	movf	?___awmod^0,w,c
  4930   00132C  0F30               	addlw	48
  4931   00132E  ECE9  F014         	call	_clcd_putch
  4932                           
  4933                           ;car_black_box.c: 174:             clcd_print("sec", (0xC0 + (13)));
  4934   001332  0ECE               	movlw	low STR_52
  4935   001334  6E03               	movwf	clcd_print@data^0,c
  4936   001336  0E2F               	movlw	high STR_52
  4937   001338  6E04               	movwf	(clcd_print@data+1)^0,c
  4938   00133A  0ECD               	movlw	205
  4939   00133C  6E05               	movwf	clcd_print@addr^0,c
  4940   00133E  ECB4  F012         	call	_clcd_print	;wreg free
  4941   001342  EF60  F009         	goto	l3758
  4942   001346                     l3770:
  4943                           
  4944                           ;car_black_box.c: 176:         clcd_print("                ", (0x80 + (0)));
  4945   001346  0E58               	movlw	low STR_19
  4946   001348  6E03               	movwf	clcd_print@data^0,c
  4947   00134A  0E2F               	movlw	high STR_19
  4948   00134C  6E04               	movwf	(clcd_print@data+1)^0,c
  4949   00134E  0E80               	movlw	128
  4950   001350  6E05               	movwf	clcd_print@addr^0,c
  4951   001352  ECB4  F012         	call	_clcd_print	;wreg free
  4952                           
  4953                           ;car_black_box.c: 177:         clcd_print("                ", (0xC0 + (0)));
  4954   001356  0E58               	movlw	low STR_19
  4955   001358  6E03               	movwf	clcd_print@data^0,c
  4956   00135A  0E2F               	movlw	high STR_19
  4957   00135C  6E04               	movwf	(clcd_print@data+1)^0,c
  4958   00135E  0EC0               	movlw	192
  4959   001360  6E05               	movwf	clcd_print@addr^0,c
  4960   001362  ECB4  F012         	call	_clcd_print	;wreg free
  4961   001366                     
  4962                           ;car_black_box.c: 179:         pass_flag = ind = 0;
  4963   001366  0E00               	movlw	0
  4964   001368  6E52               	movwf	_ind^0,c
  4965   00136A  C052  F05A         	movff	_ind,_pass_flag
  4966   00136E  EF8C  F008         	goto	l3696
  4967   001372                     l333:
  4968   001372  0012               	return		;funcret
  4969   001374                     __end_of_enter_password:
  4970                           	callstack 0
  4971                           
  4972 ;; *************** function _download_log *****************
  4973 ;; Defined at:
  4974 ;;		line 391 in file "car_black_box.c"
  4975 ;; Parameters:    Size  Location     Type
  4976 ;;		None
  4977 ;; Auto vars:     Size  Location     Type
  4978 ;;  i               1   18[COMRAM] unsigned char 
  4979 ;; Return value:  Size  Location     Type
  4980 ;;                  1    wreg      void 
  4981 ;; Registers used:
  4982 ;;		wreg, fsr0l, fsr0h, status,2, status,0, tblptrl, tblptrh, tblptru, cstack
  4983 ;; Tracked objects:
  4984 ;;		On entry : 0/0
  4985 ;;		On exit  : 0/0
  4986 ;;		Unchanged: 0/0
  4987 ;; Data sizes:     COMRAM   BANK0   BANK1   BANK2   BANK3   BANK4   BANK5
  4988 ;;      Params:         0       0       0       0       0       0       0
  4989 ;;      Locals:         1       0       0       0       0       0       0
  4990 ;;      Temps:          2       0       0       0       0       0       0
  4991 ;;      Totals:         3       0       0       0       0       0       0
  4992 ;;Total ram usage:        3 bytes
  4993 ;; Hardware stack levels used: 1
  4994 ;; Hardware stack levels required when called: 3
  4995 ;; This function calls:
  4996 ;;		___awdiv
  4997 ;;		___awmod
  4998 ;;		_clcd_print
  4999 ;;		_clcd_putch
  5000 ;;		_init_uart
  5001 ;;		_putch
  5002 ;;		_puts
  5003 ;; This function is called by:
  5004 ;;		_main
  5005 ;; This function uses a non-reentrant model
  5006 ;;
  5007                           
  5008                           	psect	text19
  5009   001E16                     __ptext19:
  5010                           	callstack 0
  5011   001E16                     _download_log:
  5012                           	callstack 27
  5013   001E16                     
  5014                           ;car_black_box.c: 392:     clcd_print("Downloading...  ", (0x80 + (0)));
  5015   001E16  0E59               	movlw	low STR_70
  5016   001E18  6E03               	movwf	clcd_print@data^0,c
  5017   001E1A  0E2E               	movlw	high STR_70
  5018   001E1C  6E04               	movwf	(clcd_print@data+1)^0,c
  5019   001E1E  0E80               	movlw	128
  5020   001E20  6E05               	movwf	clcd_print@addr^0,c
  5021   001E22  ECB4  F012         	call	_clcd_print	;wreg free
  5022   001E26                     
  5023                           ;car_black_box.c: 393:     clcd_putch(total_events / 10 + 48, (0xC0 + (5)));
  5024   001E26  0EC5               	movlw	197
  5025   001E28  6E0F               	movwf	clcd_putch@addr^0,c
  5026   001E2A  C057  F007         	movff	_total_events,___awdiv@dividend
  5027   001E2E  6A08               	clrf	(___awdiv@dividend+1)^0,c
  5028   001E30  0E00               	movlw	0
  5029   001E32  6E0A               	movwf	(___awdiv@divisor+1)^0,c
  5030   001E34  0E0A               	movlw	10
  5031   001E36  6E09               	movwf	___awdiv@divisor^0,c
  5032   001E38  ECFF  F00F         	call	___awdiv	;wreg free
  5033   001E3C  5007               	movf	?___awdiv^0,w,c
  5034   001E3E  0F30               	addlw	48
  5035   001E40  ECE9  F014         	call	_clcd_putch
  5036   001E44                     
  5037                           ;car_black_box.c: 394:     clcd_putch(total_events % 10 + 48, (0xC0 + (6)));
  5038   001E44  0EC6               	movlw	198
  5039   001E46  6E0F               	movwf	clcd_putch@addr^0,c
  5040   001E48  C057  F001         	movff	_total_events,___awmod@dividend
  5041   001E4C  6A02               	clrf	(___awmod@dividend+1)^0,c
  5042   001E4E  0E00               	movlw	0
  5043   001E50  6E04               	movwf	(___awmod@divisor+1)^0,c
  5044   001E52  0E0A               	movlw	10
  5045   001E54  6E03               	movwf	___awmod@divisor^0,c
  5046   001E56  ECB9  F010         	call	___awmod	;wreg free
  5047   001E5A  5001               	movf	?___awmod^0,w,c
  5048   001E5C  0F30               	addlw	48
  5049   001E5E  ECE9  F014         	call	_clcd_putch
  5050   001E62                     
  5051                           ;car_black_box.c: 395:     clcd_putch('3', (0xC0 + (15)));
  5052   001E62  0ECF               	movlw	207
  5053   001E64  6E0F               	movwf	clcd_putch@addr^0,c
  5054   001E66  0E33               	movlw	51
  5055   001E68  ECE9  F014         	call	_clcd_putch
  5056   001E6C                     
  5057                           ;car_black_box.c: 396:     _delay((unsigned long)((1000)*(20000000/4000.0)));
  5058   001E6C  0E1A               	movlw	26
  5059   001E6E  6E12               	movwf	(??_download_log+1)^0,c
  5060   001E70  0E5E               	movlw	94
  5061   001E72  6E11               	movwf	??_download_log^0,c
  5062   001E74  0E6E               	movlw	110
  5063   001E76                     u4607:
  5064   001E76  2EE8               	decfsz	wreg,f,c
  5065   001E78  D7FE               	bra	u4607
  5066   001E7A  2E11               	decfsz	??_download_log^0,f,c
  5067   001E7C  D7FC               	bra	u4607
  5068   001E7E  2E12               	decfsz	(??_download_log+1)^0,f,c
  5069   001E80  D7FA               	bra	u4607
  5070   001E82  D000               	nop2	
  5071   001E84                     
  5072                           ;car_black_box.c: 399:     GIE = 0;
  5073   001E84  9EF2               	bcf	4082,7,c	;volatile
  5074   001E86                     
  5075                           ;car_black_box.c: 400:     PEIE = 0;
  5076   001E86  9CF2               	bcf	4082,6,c	;volatile
  5077   001E88                     
  5078                           ;car_black_box.c: 401:     TMR0IE = 0;
  5079   001E88  9AF2               	bcf	4082,5,c	;volatile
  5080   001E8A                     
  5081                           ;car_black_box.c: 402:     TMR0IF = 0;
  5082   001E8A  94F2               	bcf	4082,2,c	;volatile
  5083   001E8C                     
  5084                           ;car_black_box.c: 403:     TMR0ON = 0;
  5085   001E8C  9ED5               	bcf	4053,7,c	;volatile
  5086   001E8E                     
  5087                           ;car_black_box.c: 405:     init_uart();
  5088   001E8E  ECE8  F013         	call	_init_uart	;wreg free
  5089   001E92                     
  5090                           ;car_black_box.c: 407:     puts("#   TIME   EV SP\n\r");
  5091   001E92  0E13               	movlw	low STR_71
  5092   001E94  6E02               	movwf	puts@data^0,c
  5093   001E96  0E2E               	movlw	high STR_71
  5094   001E98  6E03               	movwf	(puts@data+1)^0,c
  5095   001E9A  EC22  F014         	call	_puts	;wreg free
  5096   001E9E                     
  5097                           ;car_black_box.c: 408:     for (unsigned char i = 0; i < total_events; i++) {
  5098   001E9E  0E00               	movlw	0
  5099   001EA0  6E13               	movwf	download_log@i^0,c
  5100   001EA2  EF73  F00F         	goto	l4104
  5101   001EA6                     l4098:
  5102                           
  5103                           ;car_black_box.c: 409:         putch(((log_index + index) % 10) / 10 + 48);
  5104   001EA6  0E00               	movlw	0
  5105   001EA8  6E04               	movwf	(___awmod@divisor+1)^0,c
  5106   001EAA  0E0A               	movlw	10
  5107   001EAC  6E03               	movwf	___awmod@divisor^0,c
  5108   001EAE  5047               	movf	_log_index^0,w,c
  5109   001EB0  2446               	addwf	_index^0,w,c
  5110   001EB2  6E01               	movwf	___awmod@dividend^0,c
  5111   001EB4  6A02               	clrf	(___awmod@dividend+1)^0,c
  5112   001EB6  3602               	rlcf	(___awmod@dividend+1)^0,f,c
  5113   001EB8  ECB9  F010         	call	___awmod	;wreg free
  5114   001EBC  C001  F007         	movff	?___awmod,___awdiv@dividend
  5115   001EC0  C002  F008         	movff	?___awmod+1,___awdiv@dividend+1
  5116   001EC4  0E00               	movlw	0
  5117   001EC6  6E0A               	movwf	(___awdiv@divisor+1)^0,c
  5118   001EC8  0E0A               	movlw	10
  5119   001ECA  6E09               	movwf	___awdiv@divisor^0,c
  5120   001ECC  ECFF  F00F         	call	___awdiv	;wreg free
  5121   001ED0  5007               	movf	?___awdiv^0,w,c
  5122   001ED2  0F30               	addlw	48
  5123   001ED4  ECDD  F014         	call	_putch
  5124   001ED8                     
  5125                           ;car_black_box.c: 410:         puts("\n\r");
  5126   001ED8  0E23               	movlw	low (STR_71+16)
  5127   001EDA  6E02               	movwf	puts@data^0,c
  5128   001EDC  0E2E               	movlw	high (STR_71+16)
  5129   001EDE  6E03               	movwf	(puts@data+1)^0,c
  5130   001EE0  EC22  F014         	call	_puts	;wreg free
  5131   001EE4                     
  5132                           ;car_black_box.c: 411:     }
  5133   001EE4  2A13               	incf	download_log@i^0,f,c
  5134   001EE6                     l4104:
  5135   001EE6  5057               	movf	_total_events^0,w,c
  5136   001EE8  5C13               	subwf	download_log@i^0,w,c
  5137   001EEA  A0D8               	btfss	status,0,c
  5138   001EEC  EF7A  F00F         	goto	u3751
  5139   001EF0  EF7C  F00F         	goto	u3750
  5140   001EF4                     u3751:
  5141   001EF4  EF53  F00F         	goto	l4098
  5142   001EF8                     u3750:
  5143   001EF8                     
  5144                           ;car_black_box.c: 414:     GIE = 1;
  5145   001EF8  8EF2               	bsf	4082,7,c	;volatile
  5146                           
  5147                           ;car_black_box.c: 415:     PEIE = 1;
  5148   001EFA  8CF2               	bsf	4082,6,c	;volatile
  5149                           
  5150                           ;car_black_box.c: 416:     TMR0IE = 1;
  5151   001EFC  8AF2               	bsf	4082,5,c	;volatile
  5152                           
  5153                           ;car_black_box.c: 417:     TMR0IF = 0;
  5154   001EFE  94F2               	bcf	4082,2,c	;volatile
  5155                           
  5156                           ;car_black_box.c: 418:     TMR0ON = 1;
  5157   001F00  8ED5               	bsf	4053,7,c	;volatile
  5158   001F02                     
  5159                           ;car_black_box.c: 420:     pass_flag = 2;
  5160   001F02  0E02               	movlw	2
  5161   001F04  6E5A               	movwf	_pass_flag^0,c
  5162                           
  5163                           ;car_black_box.c: 421:     mode = wait = 0;
  5164   001F06  0E00               	movlw	0
  5165   001F08  6E44               	movwf	(_wait+1)^0,c
  5166   001F0A  0E00               	movlw	0
  5167   001F0C  6E43               	movwf	_wait^0,c
  5168   001F0E  C043  F049         	movff	_wait,_mode
  5169                           
  5170                           ;car_black_box.c: 422:     sec = 60;
  5171   001F12  0E3C               	movlw	60
  5172   001F14  6E5E               	movwf	_sec^0,c
  5173   001F16  0012               	return		;funcret
  5174   001F18                     __end_of_download_log:
  5175                           	callstack 0
  5176                           
  5177 ;; *************** function _puts *****************
  5178 ;; Defined at:
  5179 ;;		line 87 in file "uart.c"
  5180 ;; Parameters:    Size  Location     Type
  5181 ;;  data            2    1[COMRAM] PTR unsigned char 
  5182 ;;		 -> STR_72(3), STR_71(19), 
  5183 ;; Auto vars:     Size  Location     Type
  5184 ;;		None
  5185 ;; Return value:  Size  Location     Type
  5186 ;;                  1    wreg      void 
  5187 ;; Registers used:
  5188 ;;		wreg, status,2, status,0, tblptrl, tblptrh, tblptru, cstack
  5189 ;; Tracked objects:
  5190 ;;		On entry : 0/0
  5191 ;;		On exit  : 0/0
  5192 ;;		Unchanged: 0/0
  5193 ;; Data sizes:     COMRAM   BANK0   BANK1   BANK2   BANK3   BANK4   BANK5
  5194 ;;      Params:         2       0       0       0       0       0       0
  5195 ;;      Locals:         0       0       0       0       0       0       0
  5196 ;;      Temps:          0       0       0       0       0       0       0
  5197 ;;      Totals:         2       0       0       0       0       0       0
  5198 ;;Total ram usage:        2 bytes
  5199 ;; Hardware stack levels used: 1
  5200 ;; Hardware stack levels required when called: 2
  5201 ;; This function calls:
  5202 ;;		_putch
  5203 ;; This function is called by:
  5204 ;;		_download_log
  5205 ;; This function uses a non-reentrant model
  5206 ;;
  5207                           
  5208                           	psect	text20
  5209   002844                     __ptext20:
  5210                           	callstack 0
  5211   002844                     _puts:
  5212                           	callstack 27
  5213   002844                     
  5214                           ;uart.c: 88:     while (*data) {
  5215   002844  EF2E  F014         	goto	l3424
  5216   002848                     l3420:
  5217                           
  5218                           ;uart.c: 89:         putch(*data++);
  5219   002848  C002  FFF6         	movff	puts@data,tblptrl
  5220   00284C  C003  FFF7         	movff	puts@data+1,tblptrh
  5221   002850                     	if	0	;tblptru may be non-zero
  5222   002850                     	endif
  5223   002850                     	if	0	;tblptru may be non-zero
  5224   002850                     	endif
  5225   002850  0008               	tblrd		*
  5226   002852  50F5               	movf	tablat,w,c
  5227   002854  ECDD  F014         	call	_putch
  5228   002858  4A02               	infsnz	puts@data^0,f,c
  5229   00285A  2A03               	incf	(puts@data+1)^0,f,c
  5230   00285C                     l3424:
  5231                           
  5232                           ;uart.c: 88:     while (*data) {
  5233   00285C  C002  FFF6         	movff	puts@data,tblptrl
  5234   002860  C003  FFF7         	movff	puts@data+1,tblptrh
  5235   002864                     	if	0	;tblptru may be non-zero
  5236   002864                     	endif
  5237   002864                     	if	0	;tblptru may be non-zero
  5238   002864                     	endif
  5239   002864  0008               	tblrd		*
  5240   002866  50F5               	movf	tablat,w,c
  5241   002868  0900               	iorlw	0
  5242   00286A  A4D8               	btfss	status,2,c
  5243   00286C  EF3A  F014         	goto	u2581
  5244   002870  EF3C  F014         	goto	u2580
  5245   002874                     u2581:
  5246   002874  EF24  F014         	goto	l3420
  5247   002878                     u2580:
  5248   002878  0012               	return		;funcret
  5249   00287A                     __end_of_puts:
  5250                           	callstack 0
  5251                           
  5252 ;; *************** function _putch *****************
  5253 ;; Defined at:
  5254 ;;		line 81 in file "uart.c"
  5255 ;; Parameters:    Size  Location     Type
  5256 ;;  data            1    wreg     unsigned char 
  5257 ;; Auto vars:     Size  Location     Type
  5258 ;;  data            1    0[COMRAM] unsigned char 
  5259 ;; Return value:  Size  Location     Type
  5260 ;;                  1    wreg      void 
  5261 ;; Registers used:
  5262 ;;		wreg
  5263 ;; Tracked objects:
  5264 ;;		On entry : 0/0
  5265 ;;		On exit  : 0/0
  5266 ;;		Unchanged: 0/0
  5267 ;; Data sizes:     COMRAM   BANK0   BANK1   BANK2   BANK3   BANK4   BANK5
  5268 ;;      Params:         0       0       0       0       0       0       0
  5269 ;;      Locals:         1       0       0       0       0       0       0
  5270 ;;      Temps:          0       0       0       0       0       0       0
  5271 ;;      Totals:         1       0       0       0       0       0       0
  5272 ;;Total ram usage:        1 bytes
  5273 ;; Hardware stack levels used: 1
  5274 ;; Hardware stack levels required when called: 1
  5275 ;; This function calls:
  5276 ;;		Nothing
  5277 ;; This function is called by:
  5278 ;;		_download_log
  5279 ;;		_puts
  5280 ;;		_getche
  5281 ;; This function uses a non-reentrant model
  5282 ;;
  5283                           
  5284                           	psect	text21
  5285   0029BA                     __ptext21:
  5286                           	callstack 0
  5287   0029BA                     _putch:
  5288                           	callstack 27
  5289                           
  5290                           ;incstack = 0
  5291                           ;putch@data stored from wreg
  5292   0029BA  6E01               	movwf	putch@data^0,c
  5293   0029BC                     l725:
  5294   0029BC  A89E               	btfss	3998,4,c	;volatile
  5295   0029BE  EFE3  F014         	goto	u2291
  5296   0029C2  EFE5  F014         	goto	u2290
  5297   0029C6                     u2291:
  5298   0029C6  EFDE  F014         	goto	l725
  5299   0029CA                     u2290:
  5300   0029CA                     
  5301                           ;uart.c: 83:     TXREG = data;
  5302   0029CA  C001  FFAD         	movff	putch@data,4013	;volatile
  5303   0029CE                     
  5304                           ;uart.c: 84:     TXIF = 0;
  5305   0029CE  989E               	bcf	3998,4,c	;volatile
  5306   0029D0  0012               	return		;funcret
  5307   0029D2                     __end_of_putch:
  5308                           	callstack 0
  5309                           
  5310 ;; *************** function _init_uart *****************
  5311 ;; Defined at:
  5312 ;;		line 12 in file "uart.c"
  5313 ;; Parameters:    Size  Location     Type
  5314 ;;		None
  5315 ;; Auto vars:     Size  Location     Type
  5316 ;;		None
  5317 ;; Return value:  Size  Location     Type
  5318 ;;                  1    wreg      void 
  5319 ;; Registers used:
  5320 ;;		wreg, status,2
  5321 ;; Tracked objects:
  5322 ;;		On entry : 0/0
  5323 ;;		On exit  : 0/0
  5324 ;;		Unchanged: 0/0
  5325 ;; Data sizes:     COMRAM   BANK0   BANK1   BANK2   BANK3   BANK4   BANK5
  5326 ;;      Params:         0       0       0       0       0       0       0
  5327 ;;      Locals:         0       0       0       0       0       0       0
  5328 ;;      Temps:          0       0       0       0       0       0       0
  5329 ;;      Totals:         0       0       0       0       0       0       0
  5330 ;;Total ram usage:        0 bytes
  5331 ;; Hardware stack levels used: 1
  5332 ;; Hardware stack levels required when called: 1
  5333 ;; This function calls:
  5334 ;;		Nothing
  5335 ;; This function is called by:
  5336 ;;		_download_log
  5337 ;; This function uses a non-reentrant model
  5338 ;;
  5339                           
  5340                           	psect	text22
  5341   0027D0                     __ptext22:
  5342                           	callstack 0
  5343   0027D0                     _init_uart:
  5344                           	callstack 28
  5345   0027D0                     
  5346                           ;uart.c: 13:     TRISC7 = 1;
  5347   0027D0  8E94               	bsf	3988,7,c	;volatile
  5348                           
  5349                           ;uart.c: 14:     TRISC6 = 0;
  5350   0027D2  9C94               	bcf	3988,6,c	;volatile
  5351                           
  5352                           ;uart.c: 16:     CSRC = 0;
  5353   0027D4  9EAC               	bcf	4012,7,c	;volatile
  5354                           
  5355                           ;uart.c: 17:     TX9 = 0;
  5356   0027D6  9CAC               	bcf	4012,6,c	;volatile
  5357                           
  5358                           ;uart.c: 18:     TXEN = 1;
  5359   0027D8  8AAC               	bsf	4012,5,c	;volatile
  5360                           
  5361                           ;uart.c: 19:     SYNC = 0;
  5362   0027DA  98AC               	bcf	4012,4,c	;volatile
  5363                           
  5364                           ;uart.c: 20:     SENDB = 0;
  5365   0027DC  96AC               	bcf	4012,3,c	;volatile
  5366                           
  5367                           ;uart.c: 21:     BRGH = 1;
  5368   0027DE  84AC               	bsf	4012,2,c	;volatile
  5369                           
  5370                           ;uart.c: 22:     TRMT = 0;
  5371   0027E0  92AC               	bcf	4012,1,c	;volatile
  5372                           
  5373                           ;uart.c: 25:     SPEN = 1;
  5374   0027E2  8EAB               	bsf	4011,7,c	;volatile
  5375                           
  5376                           ;uart.c: 26:     RX9 = 0;
  5377   0027E4  9CAB               	bcf	4011,6,c	;volatile
  5378                           
  5379                           ;uart.c: 27:     SREN = 0;
  5380   0027E6  9AAB               	bcf	4011,5,c	;volatile
  5381                           
  5382                           ;uart.c: 28:     CREN = 1;
  5383   0027E8  88AB               	bsf	4011,4,c	;volatile
  5384                           
  5385                           ;uart.c: 29:     ADDEN = 0;
  5386   0027EA  96AB               	bcf	4011,3,c	;volatile
  5387                           
  5388                           ;uart.c: 30:     FERR = 0;
  5389   0027EC  94AB               	bcf	4011,2,c	;volatile
  5390                           
  5391                           ;uart.c: 31:     OERR = 0;
  5392   0027EE  92AB               	bcf	4011,1,c	;volatile
  5393                           
  5394                           ;uart.c: 34:     ABDOVF = 0;
  5395   0027F0  9EB8               	bcf	4024,7,c	;volatile
  5396                           
  5397                           ;uart.c: 35:     RCIDL = 1;
  5398   0027F2  8CB8               	bsf	4024,6,c	;volatile
  5399                           
  5400                           ;uart.c: 36:     SCKP = 0;
  5401   0027F4  98B8               	bcf	4024,4,c	;volatile
  5402                           
  5403                           ;uart.c: 37:     BRG16 = 0;
  5404   0027F6  96B8               	bcf	4024,3,c	;volatile
  5405                           
  5406                           ;uart.c: 38:     WUE = 0;
  5407   0027F8  92B8               	bcf	4024,1,c	;volatile
  5408                           
  5409                           ;uart.c: 39:     ABDEN = 0;
  5410   0027FA  90B8               	bcf	4024,0,c	;volatile
  5411   0027FC                     
  5412                           ;uart.c: 41:     SPBRG = 64;
  5413   0027FC  0E40               	movlw	64
  5414   0027FE  6EAF               	movwf	175,c	;volatile
  5415   002800                     
  5416                           ;uart.c: 43:     TXIE = 1;
  5417   002800  889D               	bsf	3997,4,c	;volatile
  5418   002802                     
  5419                           ;uart.c: 44:     TXIF = 0;
  5420   002802  989E               	bcf	3998,4,c	;volatile
  5421   002804                     
  5422                           ;uart.c: 45:     RCIE = 1;
  5423   002804  8A9D               	bsf	3997,5,c	;volatile
  5424   002806                     
  5425                           ;uart.c: 46:     RCIF = 0;
  5426   002806  9A9E               	bcf	3998,5,c	;volatile
  5427   002808  0012               	return		;funcret
  5428   00280A                     __end_of_init_uart:
  5429                           	callstack 0
  5430                           
  5431 ;; *************** function ___awmod *****************
  5432 ;; Defined at:
  5433 ;;		line 7 in file "C:\Program Files\Microchip\xc8\v2.41\pic\sources\c99\common\awmod.c"
  5434 ;; Parameters:    Size  Location     Type
  5435 ;;  dividend        2    0[COMRAM] int 
  5436 ;;  divisor         2    2[COMRAM] int 
  5437 ;; Auto vars:     Size  Location     Type
  5438 ;;  sign            1    5[COMRAM] unsigned char 
  5439 ;;  counter         1    4[COMRAM] unsigned char 
  5440 ;; Return value:  Size  Location     Type
  5441 ;;                  2    0[COMRAM] int 
  5442 ;; Registers used:
  5443 ;;		wreg, status,2, status,0
  5444 ;; Tracked objects:
  5445 ;;		On entry : 0/0
  5446 ;;		On exit  : 0/0
  5447 ;;		Unchanged: 0/0
  5448 ;; Data sizes:     COMRAM   BANK0   BANK1   BANK2   BANK3   BANK4   BANK5
  5449 ;;      Params:         4       0       0       0       0       0       0
  5450 ;;      Locals:         2       0       0       0       0       0       0
  5451 ;;      Temps:          0       0       0       0       0       0       0
  5452 ;;      Totals:         6       0       0       0       0       0       0
  5453 ;;Total ram usage:        6 bytes
  5454 ;; Hardware stack levels used: 1
  5455 ;; Hardware stack levels required when called: 1
  5456 ;; This function calls:
  5457 ;;		Nothing
  5458 ;; This function is called by:
  5459 ;;		_enter_password
  5460 ;;		_menu
  5461 ;;		_view_log
  5462 ;;		_download_log
  5463 ;; This function uses a non-reentrant model
  5464 ;;
  5465                           
  5466                           	psect	text23
  5467   002172                     __ptext23:
  5468                           	callstack 0
  5469   002172                     ___awmod:
  5470                           	callstack 28
  5471   002172  0E00               	movlw	0
  5472   002174  6E06               	movwf	___awmod@sign^0,c
  5473   002176  BE02               	btfsc	(___awmod@dividend+1)^0,7,c
  5474   002178  EFC2  F010         	goto	u2650
  5475   00217C  EFC0  F010         	goto	u2651
  5476   002180                     u2651:
  5477   002180  EFC8  F010         	goto	l3484
  5478   002184                     u2650:
  5479   002184  6C01               	negf	___awmod@dividend^0,c
  5480   002186  1E02               	comf	(___awmod@dividend+1)^0,f,c
  5481   002188  B0D8               	btfsc	status,0,c
  5482   00218A  2A02               	incf	(___awmod@dividend+1)^0,f,c
  5483   00218C  0E01               	movlw	1
  5484   00218E  6E06               	movwf	___awmod@sign^0,c
  5485   002190                     l3484:
  5486   002190  BE04               	btfsc	(___awmod@divisor+1)^0,7,c
  5487   002192  EFCF  F010         	goto	u2660
  5488   002196  EFCD  F010         	goto	u2661
  5489   00219A                     u2661:
  5490   00219A  EFD3  F010         	goto	l3488
  5491   00219E                     u2660:
  5492   00219E  6C03               	negf	___awmod@divisor^0,c
  5493   0021A0  1E04               	comf	(___awmod@divisor+1)^0,f,c
  5494   0021A2  B0D8               	btfsc	status,0,c
  5495   0021A4  2A04               	incf	(___awmod@divisor+1)^0,f,c
  5496   0021A6                     l3488:
  5497   0021A6  5003               	movf	___awmod@divisor^0,w,c
  5498   0021A8  1004               	iorwf	(___awmod@divisor+1)^0,w,c
  5499   0021AA  B4D8               	btfsc	status,2,c
  5500   0021AC  EFDA  F010         	goto	u2671
  5501   0021B0  EFDC  F010         	goto	u2670
  5502   0021B4                     u2671:
  5503   0021B4  EF00  F011         	goto	l3504
  5504   0021B8                     u2670:
  5505   0021B8  0E01               	movlw	1
  5506   0021BA  6E05               	movwf	___awmod@counter^0,c
  5507   0021BC  EFE4  F010         	goto	l3494
  5508   0021C0                     l3492:
  5509   0021C0  90D8               	bcf	status,0,c
  5510   0021C2  3603               	rlcf	___awmod@divisor^0,f,c
  5511   0021C4  3604               	rlcf	(___awmod@divisor+1)^0,f,c
  5512   0021C6  2A05               	incf	___awmod@counter^0,f,c
  5513   0021C8                     l3494:
  5514   0021C8  AE04               	btfss	(___awmod@divisor+1)^0,7,c
  5515   0021CA  EFE9  F010         	goto	u2681
  5516   0021CE  EFEB  F010         	goto	u2680
  5517   0021D2                     u2681:
  5518   0021D2  EFE0  F010         	goto	l3492
  5519   0021D6                     u2680:
  5520   0021D6                     l3496:
  5521   0021D6  5003               	movf	___awmod@divisor^0,w,c
  5522   0021D8  5C01               	subwf	___awmod@dividend^0,w,c
  5523   0021DA  5004               	movf	(___awmod@divisor+1)^0,w,c
  5524   0021DC  5802               	subwfb	(___awmod@dividend+1)^0,w,c
  5525   0021DE  A0D8               	btfss	status,0,c
  5526   0021E0  EFF4  F010         	goto	u2691
  5527   0021E4  EFF6  F010         	goto	u2690
  5528   0021E8                     u2691:
  5529   0021E8  EFFA  F010         	goto	l3500
  5530   0021EC                     u2690:
  5531   0021EC  5003               	movf	___awmod@divisor^0,w,c
  5532   0021EE  5E01               	subwf	___awmod@dividend^0,f,c
  5533   0021F0  5004               	movf	(___awmod@divisor+1)^0,w,c
  5534   0021F2  5A02               	subwfb	(___awmod@dividend+1)^0,f,c
  5535   0021F4                     l3500:
  5536   0021F4  90D8               	bcf	status,0,c
  5537   0021F6  3204               	rrcf	(___awmod@divisor+1)^0,f,c
  5538   0021F8  3203               	rrcf	___awmod@divisor^0,f,c
  5539   0021FA  2E05               	decfsz	___awmod@counter^0,f,c
  5540   0021FC  EFEB  F010         	goto	l3496
  5541   002200                     l3504:
  5542   002200  5006               	movf	___awmod@sign^0,w,c
  5543   002202  B4D8               	btfsc	status,2,c
  5544   002204  EF06  F011         	goto	u2701
  5545   002208  EF08  F011         	goto	u2700
  5546   00220C                     u2701:
  5547   00220C  EF0C  F011         	goto	l3508
  5548   002210                     u2700:
  5549   002210  6C01               	negf	___awmod@dividend^0,c
  5550   002212  1E02               	comf	(___awmod@dividend+1)^0,f,c
  5551   002214  B0D8               	btfsc	status,0,c
  5552   002216  2A02               	incf	(___awmod@dividend+1)^0,f,c
  5553   002218                     l3508:
  5554   002218  C001  F001         	movff	___awmod@dividend,?___awmod
  5555   00221C  C002  F002         	movff	___awmod@dividend+1,?___awmod+1
  5556   002220  0012               	return		;funcret
  5557   002222                     __end_of___awmod:
  5558                           	callstack 0
  5559                           
  5560 ;; *************** function ___awdiv *****************
  5561 ;; Defined at:
  5562 ;;		line 7 in file "C:\Program Files\Microchip\xc8\v2.41\pic\sources\c99\common\awdiv.c"
  5563 ;; Parameters:    Size  Location     Type
  5564 ;;  dividend        2    6[COMRAM] int 
  5565 ;;  divisor         2    8[COMRAM] int 
  5566 ;; Auto vars:     Size  Location     Type
  5567 ;;  quotient        2   12[COMRAM] int 
  5568 ;;  sign            1   11[COMRAM] unsigned char 
  5569 ;;  counter         1   10[COMRAM] unsigned char 
  5570 ;; Return value:  Size  Location     Type
  5571 ;;                  2    6[COMRAM] int 
  5572 ;; Registers used:
  5573 ;;		wreg, status,2, status,0
  5574 ;; Tracked objects:
  5575 ;;		On entry : 0/0
  5576 ;;		On exit  : 0/0
  5577 ;;		Unchanged: 0/0
  5578 ;; Data sizes:     COMRAM   BANK0   BANK1   BANK2   BANK3   BANK4   BANK5
  5579 ;;      Params:         4       0       0       0       0       0       0
  5580 ;;      Locals:         4       0       0       0       0       0       0
  5581 ;;      Temps:          0       0       0       0       0       0       0
  5582 ;;      Totals:         8       0       0       0       0       0       0
  5583 ;;Total ram usage:        8 bytes
  5584 ;; Hardware stack levels used: 1
  5585 ;; Hardware stack levels required when called: 1
  5586 ;; This function calls:
  5587 ;;		Nothing
  5588 ;; This function is called by:
  5589 ;;		_enter_password
  5590 ;;		_download_log
  5591 ;; This function uses a non-reentrant model
  5592 ;;
  5593                           
  5594                           	psect	text24
  5595   001FFE                     __ptext24:
  5596                           	callstack 0
  5597   001FFE                     ___awdiv:
  5598                           	callstack 28
  5599   001FFE  0E00               	movlw	0
  5600   002000  6E0C               	movwf	___awdiv@sign^0,c
  5601   002002  BE0A               	btfsc	(___awdiv@divisor+1)^0,7,c
  5602   002004  EF08  F010         	goto	u2590
  5603   002008  EF06  F010         	goto	u2591
  5604   00200C                     u2591:
  5605   00200C  EF0E  F010         	goto	l3440
  5606   002010                     u2590:
  5607   002010  6C09               	negf	___awdiv@divisor^0,c
  5608   002012  1E0A               	comf	(___awdiv@divisor+1)^0,f,c
  5609   002014  B0D8               	btfsc	status,0,c
  5610   002016  2A0A               	incf	(___awdiv@divisor+1)^0,f,c
  5611   002018  0E01               	movlw	1
  5612   00201A  6E0C               	movwf	___awdiv@sign^0,c
  5613   00201C                     l3440:
  5614   00201C  BE08               	btfsc	(___awdiv@dividend+1)^0,7,c
  5615   00201E  EF15  F010         	goto	u2600
  5616   002022  EF13  F010         	goto	u2601
  5617   002026                     u2601:
  5618   002026  EF1B  F010         	goto	l3446
  5619   00202A                     u2600:
  5620   00202A  6C07               	negf	___awdiv@dividend^0,c
  5621   00202C  1E08               	comf	(___awdiv@dividend+1)^0,f,c
  5622   00202E  B0D8               	btfsc	status,0,c
  5623   002030  2A08               	incf	(___awdiv@dividend+1)^0,f,c
  5624   002032  0E01               	movlw	1
  5625   002034  1A0C               	xorwf	___awdiv@sign^0,f,c
  5626   002036                     l3446:
  5627   002036  0E00               	movlw	0
  5628   002038  6E0E               	movwf	(___awdiv@quotient+1)^0,c
  5629   00203A  0E00               	movlw	0
  5630   00203C  6E0D               	movwf	___awdiv@quotient^0,c
  5631   00203E  5009               	movf	___awdiv@divisor^0,w,c
  5632   002040  100A               	iorwf	(___awdiv@divisor+1)^0,w,c
  5633   002042  B4D8               	btfsc	status,2,c
  5634   002044  EF26  F010         	goto	u2611
  5635   002048  EF28  F010         	goto	u2610
  5636   00204C                     u2611:
  5637   00204C  EF50  F010         	goto	l3468
  5638   002050                     u2610:
  5639   002050  0E01               	movlw	1
  5640   002052  6E0B               	movwf	___awdiv@counter^0,c
  5641   002054  EF30  F010         	goto	l3454
  5642   002058                     l3452:
  5643   002058  90D8               	bcf	status,0,c
  5644   00205A  3609               	rlcf	___awdiv@divisor^0,f,c
  5645   00205C  360A               	rlcf	(___awdiv@divisor+1)^0,f,c
  5646   00205E  2A0B               	incf	___awdiv@counter^0,f,c
  5647   002060                     l3454:
  5648   002060  AE0A               	btfss	(___awdiv@divisor+1)^0,7,c
  5649   002062  EF35  F010         	goto	u2621
  5650   002066  EF37  F010         	goto	u2620
  5651   00206A                     u2621:
  5652   00206A  EF2C  F010         	goto	l3452
  5653   00206E                     u2620:
  5654   00206E                     l3456:
  5655   00206E  90D8               	bcf	status,0,c
  5656   002070  360D               	rlcf	___awdiv@quotient^0,f,c
  5657   002072  360E               	rlcf	(___awdiv@quotient+1)^0,f,c
  5658   002074  5009               	movf	___awdiv@divisor^0,w,c
  5659   002076  5C07               	subwf	___awdiv@dividend^0,w,c
  5660   002078  500A               	movf	(___awdiv@divisor+1)^0,w,c
  5661   00207A  5808               	subwfb	(___awdiv@dividend+1)^0,w,c
  5662   00207C  A0D8               	btfss	status,0,c
  5663   00207E  EF43  F010         	goto	u2631
  5664   002082  EF45  F010         	goto	u2630
  5665   002086                     u2631:
  5666   002086  EF4A  F010         	goto	l3464
  5667   00208A                     u2630:
  5668   00208A  5009               	movf	___awdiv@divisor^0,w,c
  5669   00208C  5E07               	subwf	___awdiv@dividend^0,f,c
  5670   00208E  500A               	movf	(___awdiv@divisor+1)^0,w,c
  5671   002090  5A08               	subwfb	(___awdiv@dividend+1)^0,f,c
  5672   002092  800D               	bsf	___awdiv@quotient^0,0,c
  5673   002094                     l3464:
  5674   002094  90D8               	bcf	status,0,c
  5675   002096  320A               	rrcf	(___awdiv@divisor+1)^0,f,c
  5676   002098  3209               	rrcf	___awdiv@divisor^0,f,c
  5677   00209A  2E0B               	decfsz	___awdiv@counter^0,f,c
  5678   00209C  EF37  F010         	goto	l3456
  5679   0020A0                     l3468:
  5680   0020A0  500C               	movf	___awdiv@sign^0,w,c
  5681   0020A2  B4D8               	btfsc	status,2,c
  5682   0020A4  EF56  F010         	goto	u2641
  5683   0020A8  EF58  F010         	goto	u2640
  5684   0020AC                     u2641:
  5685   0020AC  EF5C  F010         	goto	l3472
  5686   0020B0                     u2640:
  5687   0020B0  6C0D               	negf	___awdiv@quotient^0,c
  5688   0020B2  1E0E               	comf	(___awdiv@quotient+1)^0,f,c
  5689   0020B4  B0D8               	btfsc	status,0,c
  5690   0020B6  2A0E               	incf	(___awdiv@quotient+1)^0,f,c
  5691   0020B8                     l3472:
  5692   0020B8  C00D  F007         	movff	___awdiv@quotient,?___awdiv
  5693   0020BC  C00E  F008         	movff	___awdiv@quotient+1,?___awdiv+1
  5694   0020C0  0012               	return		;funcret
  5695   0020C2                     __end_of___awdiv:
  5696                           	callstack 0
  5697                           
  5698 ;; *************** function _display_time *****************
  5699 ;; Defined at:
  5700 ;;		line 44 in file "main.c"
  5701 ;; Parameters:    Size  Location     Type
  5702 ;;		None
  5703 ;; Auto vars:     Size  Location     Type
  5704 ;;		None
  5705 ;; Return value:  Size  Location     Type
  5706 ;;                  1    wreg      void 
  5707 ;; Registers used:
  5708 ;;		wreg, fsr0l, fsr0h, status,2, status,0, tblptrl, tblptrh, tblptru, cstack
  5709 ;; Tracked objects:
  5710 ;;		On entry : 0/0
  5711 ;;		On exit  : 0/0
  5712 ;;		Unchanged: 0/0
  5713 ;; Data sizes:     COMRAM   BANK0   BANK1   BANK2   BANK3   BANK4   BANK5
  5714 ;;      Params:         0       0       0       0       0       0       0
  5715 ;;      Locals:         0       0       0       0       0       0       0
  5716 ;;      Temps:          0       0       0       0       0       0       0
  5717 ;;      Totals:         0       0       0       0       0       0       0
  5718 ;;Total ram usage:        0 bytes
  5719 ;; Hardware stack levels used: 1
  5720 ;; Hardware stack levels required when called: 6
  5721 ;; This function calls:
  5722 ;;		_clcd_print
  5723 ;;		_get_time
  5724 ;; This function is called by:
  5725 ;;		_main
  5726 ;; This function uses a non-reentrant model
  5727 ;;
  5728                           
  5729                           	psect	text25
  5730   002A00                     __ptext25:
  5731                           	callstack 0
  5732   002A00                     _display_time:
  5733                           	callstack 24
  5734   002A00                     
  5735                           ;main.c: 45:     get_time();
  5736   002A00  EC11  F011         	call	_get_time	;wreg free
  5737   002A04                     
  5738                           ;main.c: 46:     clcd_print(time, (0xC0 + (0)));
  5739   002A04  0E82               	movlw	low _time
  5740   002A06  6E03               	movwf	clcd_print@data^0,c
  5741   002A08  0E00               	movlw	high _time
  5742   002A0A  6E04               	movwf	(clcd_print@data+1)^0,c
  5743   002A0C  0EC0               	movlw	192
  5744   002A0E  6E05               	movwf	clcd_print@addr^0,c
  5745   002A10  ECB4  F012         	call	_clcd_print	;wreg free
  5746   002A14  0012               	return		;funcret
  5747   002A16                     __end_of_display_time:
  5748                           	callstack 0
  5749                           
  5750 ;; *************** function _get_time *****************
  5751 ;; Defined at:
  5752 ;;		line 22 in file "main.c"
  5753 ;; Parameters:    Size  Location     Type
  5754 ;;		None
  5755 ;; Auto vars:     Size  Location     Type
  5756 ;;		None
  5757 ;; Return value:  Size  Location     Type
  5758 ;;                  1    wreg      void 
  5759 ;; Registers used:
  5760 ;;		wreg, status,2, status,0, cstack
  5761 ;; Tracked objects:
  5762 ;;		On entry : 0/0
  5763 ;;		On exit  : 0/0
  5764 ;;		Unchanged: 0/0
  5765 ;; Data sizes:     COMRAM   BANK0   BANK1   BANK2   BANK3   BANK4   BANK5
  5766 ;;      Params:         0       0       0       0       0       0       0
  5767 ;;      Locals:         0       0       0       0       0       0       0
  5768 ;;      Temps:          0       0       0       0       0       0       0
  5769 ;;      Totals:         0       0       0       0       0       0       0
  5770 ;;Total ram usage:        0 bytes
  5771 ;; Hardware stack levels used: 1
  5772 ;; Hardware stack levels required when called: 5
  5773 ;; This function calls:
  5774 ;;		_read_ds1307
  5775 ;; This function is called by:
  5776 ;;		_display_time
  5777 ;; This function uses a non-reentrant model
  5778 ;;
  5779                           
  5780                           	psect	text26
  5781   002222                     __ptext26:
  5782                           	callstack 0
  5783   002222                     _get_time:
  5784                           	callstack 24
  5785   002222                     
  5786                           ;main.c: 23:     clock_reg[0] = read_ds1307(0x02);
  5787   002222  0E02               	movlw	2
  5788   002224  EC69  F014         	call	_read_ds1307
  5789   002228  6E40               	movwf	_clock_reg^0,c
  5790                           
  5791                           ;main.c: 24:     clock_reg[1] = read_ds1307(0x01);
  5792   00222A  0E01               	movlw	1
  5793   00222C  EC69  F014         	call	_read_ds1307
  5794   002230  6E41               	movwf	(_clock_reg+1)^0,c
  5795                           
  5796                           ;main.c: 25:     clock_reg[2] = read_ds1307(0x00);
  5797   002232  0E00               	movlw	0
  5798   002234  EC69  F014         	call	_read_ds1307
  5799   002238  6E42               	movwf	(_clock_reg+2)^0,c
  5800   00223A                     
  5801                           ;main.c: 27:     if (clock_reg[0] & 0x40) {
  5802   00223A  AC40               	btfss	_clock_reg^0,6,c
  5803   00223C  EF22  F011         	goto	u2301
  5804   002240  EF24  F011         	goto	u2300
  5805   002244                     u2301:
  5806   002244  EF34  F011         	goto	l3158
  5807   002248                     u2300:
  5808   002248                     
  5809                           ;main.c: 28:         time[0] = event[0] = '0' + ((clock_reg[0] >> 4) & 0x01);
  5810   002248  3840               	swapf	_clock_reg^0,w,c
  5811   00224A  0B0F               	andlw	15
  5812   00224C  0B01               	andlw	1
  5813   00224E  0F30               	addlw	48
  5814   002250  0100               	movlb	0	; () banked
  5815   002252  6F63               	movwf	_event& (0+255),b
  5816   002254  C063  F082         	movff	_event,_time
  5817                           
  5818                           ;main.c: 29:         time[1] = event[1] = '0' + (clock_reg[0] & 0x0F);
  5819   002258  5040               	movf	_clock_reg^0,w,c
  5820   00225A  0B0F               	andlw	15
  5821   00225C  0F30               	addlw	48
  5822   00225E  6F64               	movwf	(_event+1)& (0+255),b
  5823   002260  C064  F083         	movff	_event+1,_time+1
  5824                           
  5825                           ;main.c: 30:     } else {
  5826   002264  EF42  F011         	goto	l3160
  5827   002268                     l3158:
  5828                           
  5829                           ;main.c: 31:         time[0] = event[0] = '0' + ((clock_reg[0] >> 4) & 0x03);
  5830   002268  3840               	swapf	_clock_reg^0,w,c
  5831   00226A  0B0F               	andlw	15
  5832   00226C  0B03               	andlw	3
  5833   00226E  0F30               	addlw	48
  5834   002270  0100               	movlb	0	; () banked
  5835   002272  6F63               	movwf	_event& (0+255),b
  5836   002274  C063  F082         	movff	_event,_time
  5837                           
  5838                           ;main.c: 32:         time[1] = event[1] = '0' + (clock_reg[0] & 0x0F);
  5839   002278  5040               	movf	_clock_reg^0,w,c
  5840   00227A  0B0F               	andlw	15
  5841   00227C  0F30               	addlw	48
  5842   00227E  6F64               	movwf	(_event+1)& (0+255),b
  5843   002280  C064  F083         	movff	_event+1,_time+1
  5844   002284                     l3160:
  5845                           
  5846                           ; BSR set to: 0
  5847                           ;main.c: 34:     time[2] = event[2] = ':';
  5848   002284  0E3A               	movlw	58
  5849   002286  6F65               	movwf	(_event+2)& (0+255),b
  5850   002288  C065  F084         	movff	_event+2,_time+2
  5851   00228C                     
  5852                           ; BSR set to: 0
  5853                           ;main.c: 35:     time[3] = event[3] = '0' + ((clock_reg[1] >> 4) & 0x0F);
  5854   00228C  3841               	swapf	(_clock_reg+1)^0,w,c
  5855   00228E  0B0F               	andlw	15
  5856   002290  0B0F               	andlw	15
  5857   002292  0F30               	addlw	48
  5858   002294  6F66               	movwf	(_event+3)& (0+255),b
  5859   002296  C066  F085         	movff	_event+3,_time+3
  5860   00229A                     
  5861                           ; BSR set to: 0
  5862                           ;main.c: 36:     time[4] = event[4] = '0' + (clock_reg[1] & 0x0F);
  5863   00229A  5041               	movf	(_clock_reg+1)^0,w,c
  5864   00229C  0B0F               	andlw	15
  5865   00229E  0F30               	addlw	48
  5866   0022A0  6F67               	movwf	(_event+4)& (0+255),b
  5867   0022A2  C067  F086         	movff	_event+4,_time+4
  5868   0022A6                     
  5869                           ; BSR set to: 0
  5870                           ;main.c: 37:     time[5] = event[5] = ':';
  5871   0022A6  0E3A               	movlw	58
  5872   0022A8  6F68               	movwf	(_event+5)& (0+255),b
  5873   0022AA  C068  F087         	movff	_event+5,_time+5
  5874                           
  5875                           ;main.c: 38:     time[6] = event[6] = '0' + ((clock_reg[2] >> 4) & 0x0F);
  5876   0022AE  3842               	swapf	(_clock_reg+2)^0,w,c
  5877   0022B0  0B0F               	andlw	15
  5878   0022B2  0B0F               	andlw	15
  5879   0022B4  0F30               	addlw	48
  5880   0022B6  6F69               	movwf	(_event+6)& (0+255),b
  5881   0022B8  C069  F088         	movff	_event+6,_time+6
  5882                           
  5883                           ;main.c: 39:     time[7] = event[7] = '0' + (clock_reg[2] & 0x0F);
  5884   0022BC  5042               	movf	(_clock_reg+2)^0,w,c
  5885   0022BE  0B0F               	andlw	15
  5886   0022C0  0F30               	addlw	48
  5887   0022C2  6F6A               	movwf	(_event+7)& (0+255),b
  5888   0022C4  C06A  F089         	movff	_event+7,_time+7
  5889   0022C8                     
  5890                           ; BSR set to: 0
  5891                           ;main.c: 40:     time[8] = '\0';
  5892   0022C8  0E00               	movlw	0
  5893   0022CA  6F8A               	movwf	(_time+8)& (0+255),b
  5894   0022CC                     
  5895                           ; BSR set to: 0
  5896                           ;main.c: 41:     event[8] = ' ';
  5897   0022CC  0E20               	movlw	32
  5898   0022CE  6F6B               	movwf	(_event+8)& (0+255),b
  5899   0022D0                     
  5900                           ; BSR set to: 0
  5901   0022D0  0012               	return		;funcret
  5902   0022D2                     __end_of_get_time:
  5903                           	callstack 0
  5904                           
  5905 ;; *************** function _read_ds1307 *****************
  5906 ;; Defined at:
  5907 ;;		line 60 in file "RTC.c"
  5908 ;; Parameters:    Size  Location     Type
  5909 ;;  address         1    wreg     unsigned char 
  5910 ;; Auto vars:     Size  Location     Type
  5911 ;;  address         1    1[COMRAM] unsigned char 
  5912 ;;  data            1    2[COMRAM] unsigned char 
  5913 ;; Return value:  Size  Location     Type
  5914 ;;                  1    wreg      unsigned char 
  5915 ;; Registers used:
  5916 ;;		wreg, status,2, cstack
  5917 ;; Tracked objects:
  5918 ;;		On entry : 0/0
  5919 ;;		On exit  : 0/0
  5920 ;;		Unchanged: 0/0
  5921 ;; Data sizes:     COMRAM   BANK0   BANK1   BANK2   BANK3   BANK4   BANK5
  5922 ;;      Params:         0       0       0       0       0       0       0
  5923 ;;      Locals:         2       0       0       0       0       0       0
  5924 ;;      Temps:          0       0       0       0       0       0       0
  5925 ;;      Totals:         2       0       0       0       0       0       0
  5926 ;;Total ram usage:        2 bytes
  5927 ;; Hardware stack levels used: 1
  5928 ;; Hardware stack levels required when called: 4
  5929 ;; This function calls:
  5930 ;;		_i2c_read
  5931 ;;		_i2c_rep_start
  5932 ;;		_i2c_start
  5933 ;;		_i2c_stop
  5934 ;;		_i2c_write
  5935 ;; This function is called by:
  5936 ;;		_get_time
  5937 ;;		_init_ds1307
  5938 ;; This function uses a non-reentrant model
  5939 ;;
  5940                           
  5941                           	psect	text27
  5942   0028D2                     __ptext27:
  5943                           	callstack 0
  5944   0028D2                     _read_ds1307:
  5945                           	callstack 24
  5946                           
  5947                           ; BSR set to: 0
  5948                           ;incstack = 0
  5949                           ;read_ds1307@address stored from wreg
  5950   0028D2  6E02               	movwf	read_ds1307@address^0,c
  5951   0028D4                     
  5952                           ;RTC.c: 60: unsigned char read_ds1307(unsigned char address);RTC.c: 61: {;RTC.c: 62:  un
      +                          signed char data;;RTC.c: 64:  i2c_start();
  5953   0028D4  EC30  F015         	call	_i2c_start	;wreg free
  5954   0028D8                     
  5955                           ;RTC.c: 65:  i2c_write(0xD0);
  5956   0028D8  0ED0               	movlw	208
  5957   0028DA  EC1A  F015         	call	_i2c_write
  5958   0028DE                     
  5959                           ;RTC.c: 66:  i2c_write(address);
  5960   0028DE  5002               	movf	read_ds1307@address^0,w,c
  5961   0028E0  EC1A  F015         	call	_i2c_write
  5962   0028E4                     
  5963                           ;RTC.c: 67:  i2c_rep_start();
  5964   0028E4  EC24  F015         	call	_i2c_rep_start	;wreg free
  5965   0028E8                     
  5966                           ;RTC.c: 68:  i2c_write(0xD1);
  5967   0028E8  0ED1               	movlw	209
  5968   0028EA  EC1A  F015         	call	_i2c_write
  5969                           
  5970                           ;RTC.c: 69:  data = i2c_read();
  5971   0028EE  EC14  F015         	call	_i2c_read	;wreg free
  5972   0028F2  6E03               	movwf	read_ds1307@data^0,c
  5973   0028F4                     
  5974                           ;RTC.c: 70:  i2c_stop();
  5975   0028F4  EC2C  F015         	call	_i2c_stop	;wreg free
  5976                           
  5977                           ;RTC.c: 72:  return data;
  5978   0028F8  5003               	movf	read_ds1307@data^0,w,c
  5979   0028FA  0012               	return		;funcret
  5980   0028FC                     __end_of_read_ds1307:
  5981                           	callstack 0
  5982                           
  5983 ;; *************** function _i2c_rep_start *****************
  5984 ;; Defined at:
  5985 ;;		line 57 in file "i2c.c"
  5986 ;; Parameters:    Size  Location     Type
  5987 ;;		None
  5988 ;; Auto vars:     Size  Location     Type
  5989 ;;		None
  5990 ;; Return value:  Size  Location     Type
  5991 ;;                  1    wreg      void 
  5992 ;; Registers used:
  5993 ;;		cstack
  5994 ;; Tracked objects:
  5995 ;;		On entry : 0/0
  5996 ;;		On exit  : 0/0
  5997 ;;		Unchanged: 0/0
  5998 ;; Data sizes:     COMRAM   BANK0   BANK1   BANK2   BANK3   BANK4   BANK5
  5999 ;;      Params:         0       0       0       0       0       0       0
  6000 ;;      Locals:         0       0       0       0       0       0       0
  6001 ;;      Temps:          0       0       0       0       0       0       0
  6002 ;;      Totals:         0       0       0       0       0       0       0
  6003 ;;Total ram usage:        0 bytes
  6004 ;; Hardware stack levels used: 1
  6005 ;; Hardware stack levels required when called: 2
  6006 ;; This function calls:
  6007 ;;		_i2c_idle
  6008 ;; This function is called by:
  6009 ;;		_read_ds1307
  6010 ;;		_read_ext_eeprom
  6011 ;; This function uses a non-reentrant model
  6012 ;;
  6013                           
  6014                           	psect	text28
  6015   002A48                     __ptext28:
  6016                           	callstack 0
  6017   002A48                     _i2c_rep_start:
  6018                           	callstack 25
  6019   002A48                     
  6020                           ;i2c.c: 59:  RSEN = 1;
  6021   002A48  82C5               	bsf	4037,1,c	;volatile
  6022   002A4A                     
  6023                           ;i2c.c: 60:  i2c_idle();
  6024   002A4A  EC0B  F015         	call	_i2c_idle	;wreg free
  6025   002A4E  0012               	return		;funcret
  6026   002A50                     __end_of_i2c_rep_start:
  6027                           	callstack 0
  6028                           
  6029 ;; *************** function _i2c_read *****************
  6030 ;; Defined at:
  6031 ;;		line 81 in file "i2c.c"
  6032 ;; Parameters:    Size  Location     Type
  6033 ;;		None
  6034 ;; Auto vars:     Size  Location     Type
  6035 ;;		None
  6036 ;; Return value:  Size  Location     Type
  6037 ;;                  1    wreg      unsigned char 
  6038 ;; Registers used:
  6039 ;;		wreg, status,2, cstack
  6040 ;; Tracked objects:
  6041 ;;		On entry : 0/0
  6042 ;;		On exit  : 0/0
  6043 ;;		Unchanged: 0/0
  6044 ;; Data sizes:     COMRAM   BANK0   BANK1   BANK2   BANK3   BANK4   BANK5
  6045 ;;      Params:         0       0       0       0       0       0       0
  6046 ;;      Locals:         0       0       0       0       0       0       0
  6047 ;;      Temps:          0       0       0       0       0       0       0
  6048 ;;      Totals:         0       0       0       0       0       0       0
  6049 ;;Total ram usage:        0 bytes
  6050 ;; Hardware stack levels used: 1
  6051 ;; Hardware stack levels required when called: 3
  6052 ;; This function calls:
  6053 ;;		_i2c_no_ack
  6054 ;;		_i2c_rx_mode
  6055 ;; This function is called by:
  6056 ;;		_read_ds1307
  6057 ;;		_read_ext_eeprom
  6058 ;; This function uses a non-reentrant model
  6059 ;;
  6060                           
  6061                           	psect	text29
  6062   002A28                     __ptext29:
  6063                           	callstack 0
  6064   002A28                     _i2c_read:
  6065                           	callstack 24
  6066   002A28                     
  6067                           ;i2c.c: 83:  i2c_rx_mode();
  6068   002A28  EC28  F015         	call	_i2c_rx_mode	;wreg free
  6069                           
  6070                           ;i2c.c: 84:  i2c_no_ack();
  6071   002A2C  EC34  F015         	call	_i2c_no_ack	;wreg free
  6072   002A30                     
  6073                           ;i2c.c: 86:  return SSPBUF;
  6074   002A30  50C9               	movf	201,w,c	;volatile
  6075   002A32  0012               	return		;funcret
  6076   002A34                     __end_of_i2c_read:
  6077                           	callstack 0
  6078                           
  6079 ;; *************** function _i2c_rx_mode *****************
  6080 ;; Defined at:
  6081 ;;		line 69 in file "i2c.c"
  6082 ;; Parameters:    Size  Location     Type
  6083 ;;		None
  6084 ;; Auto vars:     Size  Location     Type
  6085 ;;		None
  6086 ;; Return value:  Size  Location     Type
  6087 ;;                  1    wreg      void 
  6088 ;; Registers used:
  6089 ;;		cstack
  6090 ;; Tracked objects:
  6091 ;;		On entry : 0/0
  6092 ;;		On exit  : 0/0
  6093 ;;		Unchanged: 0/0
  6094 ;; Data sizes:     COMRAM   BANK0   BANK1   BANK2   BANK3   BANK4   BANK5
  6095 ;;      Params:         0       0       0       0       0       0       0
  6096 ;;      Locals:         0       0       0       0       0       0       0
  6097 ;;      Temps:          0       0       0       0       0       0       0
  6098 ;;      Totals:         0       0       0       0       0       0       0
  6099 ;;Total ram usage:        0 bytes
  6100 ;; Hardware stack levels used: 1
  6101 ;; Hardware stack levels required when called: 2
  6102 ;; This function calls:
  6103 ;;		_i2c_idle
  6104 ;; This function is called by:
  6105 ;;		_i2c_read
  6106 ;; This function uses a non-reentrant model
  6107 ;;
  6108                           
  6109                           	psect	text30
  6110   002A50                     __ptext30:
  6111                           	callstack 0
  6112   002A50                     _i2c_rx_mode:
  6113                           	callstack 24
  6114   002A50                     
  6115                           ;i2c.c: 71:  RCEN = 1;
  6116   002A50  86C5               	bsf	4037,3,c	;volatile
  6117   002A52                     
  6118                           ;i2c.c: 72:  i2c_idle();
  6119   002A52  EC0B  F015         	call	_i2c_idle	;wreg free
  6120   002A56  0012               	return		;funcret
  6121   002A58                     __end_of_i2c_rx_mode:
  6122                           	callstack 0
  6123                           
  6124 ;; *************** function _i2c_no_ack *****************
  6125 ;; Defined at:
  6126 ;;		line 75 in file "i2c.c"
  6127 ;; Parameters:    Size  Location     Type
  6128 ;;		None
  6129 ;; Auto vars:     Size  Location     Type
  6130 ;;		None
  6131 ;; Return value:  Size  Location     Type
  6132 ;;                  1    wreg      void 
  6133 ;; Registers used:
  6134 ;;		None
  6135 ;; Tracked objects:
  6136 ;;		On entry : 0/0
  6137 ;;		On exit  : 0/0
  6138 ;;		Unchanged: 0/0
  6139 ;; Data sizes:     COMRAM   BANK0   BANK1   BANK2   BANK3   BANK4   BANK5
  6140 ;;      Params:         0       0       0       0       0       0       0
  6141 ;;      Locals:         0       0       0       0       0       0       0
  6142 ;;      Temps:          0       0       0       0       0       0       0
  6143 ;;      Totals:         0       0       0       0       0       0       0
  6144 ;;Total ram usage:        0 bytes
  6145 ;; Hardware stack levels used: 1
  6146 ;; Hardware stack levels required when called: 1
  6147 ;; This function calls:
  6148 ;;		Nothing
  6149 ;; This function is called by:
  6150 ;;		_i2c_read
  6151 ;; This function uses a non-reentrant model
  6152 ;;
  6153                           
  6154                           	psect	text31
  6155   002A68                     __ptext31:
  6156                           	callstack 0
  6157   002A68                     _i2c_no_ack:
  6158                           	callstack 25
  6159   002A68                     
  6160                           ;i2c.c: 77:  ACKDT = 1;
  6161   002A68  8AC5               	bsf	4037,5,c	;volatile
  6162                           
  6163                           ;i2c.c: 78:  ACKEN = 1;
  6164   002A6A  88C5               	bsf	4037,4,c	;volatile
  6165   002A6C  0012               	return		;funcret
  6166   002A6E                     __end_of_i2c_no_ack:
  6167                           	callstack 0
  6168                           
  6169 ;; *************** function _display_speed *****************
  6170 ;; Defined at:
  6171 ;;		line 87 in file "car_black_box.c"
  6172 ;; Parameters:    Size  Location     Type
  6173 ;;  speed           2   16[COMRAM] unsigned short 
  6174 ;; Auto vars:     Size  Location     Type
  6175 ;;		None
  6176 ;; Return value:  Size  Location     Type
  6177 ;;                  1    wreg      void 
  6178 ;; Registers used:
  6179 ;;		wreg, status,2, status,0, cstack
  6180 ;; Tracked objects:
  6181 ;;		On entry : 0/0
  6182 ;;		On exit  : 0/0
  6183 ;;		Unchanged: 0/0
  6184 ;; Data sizes:     COMRAM   BANK0   BANK1   BANK2   BANK3   BANK4   BANK5
  6185 ;;      Params:         2       0       0       0       0       0       0
  6186 ;;      Locals:         0       0       0       0       0       0       0
  6187 ;;      Temps:          0       0       0       0       0       0       0
  6188 ;;      Totals:         2       0       0       0       0       0       0
  6189 ;;Total ram usage:        2 bytes
  6190 ;; Hardware stack levels used: 1
  6191 ;; Hardware stack levels required when called: 3
  6192 ;; This function calls:
  6193 ;;		___lwdiv
  6194 ;;		___lwmod
  6195 ;;		_clcd_putch
  6196 ;; This function is called by:
  6197 ;;		_main
  6198 ;; This function uses a non-reentrant model
  6199 ;;
  6200                           
  6201                           	psect	text32
  6202   002402                     __ptext32:
  6203                           	callstack 0
  6204   002402                     _display_speed:
  6205                           	callstack 27
  6206   002402                     
  6207                           ;car_black_box.c: 88:     event[11] = ' ';
  6208   002402  0E20               	movlw	32
  6209   002404  0100               	movlb	0	; () banked
  6210   002406  6F6E               	movwf	(_event+11)& (0+255),b
  6211   002408                     
  6212                           ; BSR set to: 0
  6213                           ;car_black_box.c: 89:     clcd_putch((speed / 10) + 48, (0xC0 + (14)));
  6214   002408  0ECE               	movlw	206
  6215   00240A  6E0F               	movwf	clcd_putch@addr^0,c
  6216   00240C  C011  F001         	movff	display_speed@speed,___lwdiv@dividend
  6217   002410  C012  F002         	movff	display_speed@speed+1,___lwdiv@dividend+1
  6218   002414  0E00               	movlw	0
  6219   002416  6E04               	movwf	(___lwdiv@divisor+1)^0,c
  6220   002418  0E0A               	movlw	10
  6221   00241A  6E03               	movwf	___lwdiv@divisor^0,c
  6222   00241C  EC41  F012         	call	___lwdiv	;wreg free
  6223   002420  5001               	movf	?___lwdiv^0,w,c
  6224   002422  0F30               	addlw	48
  6225   002424  ECE9  F014         	call	_clcd_putch
  6226   002428                     
  6227                           ;car_black_box.c: 90:     clcd_putch((speed % 10) + 48, (0xC0 + (15)));
  6228   002428  0ECF               	movlw	207
  6229   00242A  6E0F               	movwf	clcd_putch@addr^0,c
  6230   00242C  C011  F001         	movff	display_speed@speed,___lwmod@dividend
  6231   002430  C012  F002         	movff	display_speed@speed+1,___lwmod@dividend+1
  6232   002434  0E00               	movlw	0
  6233   002436  6E04               	movwf	(___lwmod@divisor+1)^0,c
  6234   002438  0E0A               	movlw	10
  6235   00243A  6E03               	movwf	___lwmod@divisor^0,c
  6236   00243C  EC1C  F013         	call	___lwmod	;wreg free
  6237   002440  5001               	movf	?___lwmod^0,w,c
  6238   002442  0F30               	addlw	48
  6239   002444  ECE9  F014         	call	_clcd_putch
  6240   002448                     
  6241                           ;car_black_box.c: 91:     event[12] = (speed / 10) + 48;
  6242   002448  C011  F001         	movff	display_speed@speed,___lwdiv@dividend
  6243   00244C  C012  F002         	movff	display_speed@speed+1,___lwdiv@dividend+1
  6244   002450  0E00               	movlw	0
  6245   002452  6E04               	movwf	(___lwdiv@divisor+1)^0,c
  6246   002454  0E0A               	movlw	10
  6247   002456  6E03               	movwf	___lwdiv@divisor^0,c
  6248   002458  EC41  F012         	call	___lwdiv	;wreg free
  6249   00245C  5001               	movf	?___lwdiv^0,w,c
  6250   00245E  0F30               	addlw	48
  6251   002460  0100               	movlb	0	; () banked
  6252   002462  6F6F               	movwf	(_event+12)& (0+255),b
  6253   002464                     
  6254                           ; BSR set to: 0
  6255                           ;car_black_box.c: 92:     event[13] = (speed % 10) + 48;
  6256   002464  C011  F001         	movff	display_speed@speed,___lwmod@dividend
  6257   002468  C012  F002         	movff	display_speed@speed+1,___lwmod@dividend+1
  6258   00246C  0E00               	movlw	0
  6259   00246E  6E04               	movwf	(___lwmod@divisor+1)^0,c
  6260   002470  0E0A               	movlw	10
  6261   002472  6E03               	movwf	___lwmod@divisor^0,c
  6262   002474  EC1C  F013         	call	___lwmod	;wreg free
  6263   002478  5001               	movf	?___lwmod^0,w,c
  6264   00247A  0F30               	addlw	48
  6265   00247C  0100               	movlb	0	; () banked
  6266   00247E  6F70               	movwf	(_event+13)& (0+255),b
  6267   002480                     
  6268                           ; BSR set to: 0
  6269   002480  0012               	return		;funcret
  6270   002482                     __end_of_display_speed:
  6271                           	callstack 0
  6272                           
  6273 ;; *************** function ___lwmod *****************
  6274 ;; Defined at:
  6275 ;;		line 7 in file "C:\Program Files\Microchip\xc8\v2.41\pic\sources\c99\common\lwmod.c"
  6276 ;; Parameters:    Size  Location     Type
  6277 ;;  dividend        2    0[COMRAM] unsigned int 
  6278 ;;  divisor         2    2[COMRAM] unsigned int 
  6279 ;; Auto vars:     Size  Location     Type
  6280 ;;  counter         1    4[COMRAM] unsigned char 
  6281 ;; Return value:  Size  Location     Type
  6282 ;;                  2    0[COMRAM] unsigned int 
  6283 ;; Registers used:
  6284 ;;		wreg, status,2, status,0
  6285 ;; Tracked objects:
  6286 ;;		On entry : 0/0
  6287 ;;		On exit  : 0/0
  6288 ;;		Unchanged: 0/0
  6289 ;; Data sizes:     COMRAM   BANK0   BANK1   BANK2   BANK3   BANK4   BANK5
  6290 ;;      Params:         4       0       0       0       0       0       0
  6291 ;;      Locals:         1       0       0       0       0       0       0
  6292 ;;      Temps:          0       0       0       0       0       0       0
  6293 ;;      Totals:         5       0       0       0       0       0       0
  6294 ;;Total ram usage:        5 bytes
  6295 ;; Hardware stack levels used: 1
  6296 ;; Hardware stack levels required when called: 1
  6297 ;; This function calls:
  6298 ;;		Nothing
  6299 ;; This function is called by:
  6300 ;;		_display_speed
  6301 ;; This function uses a non-reentrant model
  6302 ;;
  6303                           
  6304                           	psect	text33
  6305   002638                     __ptext33:
  6306                           	callstack 0
  6307   002638                     ___lwmod:
  6308                           	callstack 28
  6309   002638  5003               	movf	___lwmod@divisor^0,w,c
  6310   00263A  1004               	iorwf	(___lwmod@divisor+1)^0,w,c
  6311   00263C  B4D8               	btfsc	status,2,c
  6312   00263E  EF23  F013         	goto	u2741
  6313   002642  EF25  F013         	goto	u2740
  6314   002646                     u2741:
  6315   002646  EF49  F013         	goto	l1250
  6316   00264A                     u2740:
  6317   00264A  0E01               	movlw	1
  6318   00264C  6E05               	movwf	___lwmod@counter^0,c
  6319   00264E  EF2D  F013         	goto	l3540
  6320   002652                     l3538:
  6321   002652  90D8               	bcf	status,0,c
  6322   002654  3603               	rlcf	___lwmod@divisor^0,f,c
  6323   002656  3604               	rlcf	(___lwmod@divisor+1)^0,f,c
  6324   002658  2A05               	incf	___lwmod@counter^0,f,c
  6325   00265A                     l3540:
  6326   00265A  AE04               	btfss	(___lwmod@divisor+1)^0,7,c
  6327   00265C  EF32  F013         	goto	u2751
  6328   002660  EF34  F013         	goto	u2750
  6329   002664                     u2751:
  6330   002664  EF29  F013         	goto	l3538
  6331   002668                     u2750:
  6332   002668                     l3542:
  6333   002668  5003               	movf	___lwmod@divisor^0,w,c
  6334   00266A  5C01               	subwf	___lwmod@dividend^0,w,c
  6335   00266C  5004               	movf	(___lwmod@divisor+1)^0,w,c
  6336   00266E  5802               	subwfb	(___lwmod@dividend+1)^0,w,c
  6337   002670  A0D8               	btfss	status,0,c
  6338   002672  EF3D  F013         	goto	u2761
  6339   002676  EF3F  F013         	goto	u2760
  6340   00267A                     u2761:
  6341   00267A  EF43  F013         	goto	l3546
  6342   00267E                     u2760:
  6343   00267E  5003               	movf	___lwmod@divisor^0,w,c
  6344   002680  5E01               	subwf	___lwmod@dividend^0,f,c
  6345   002682  5004               	movf	(___lwmod@divisor+1)^0,w,c
  6346   002684  5A02               	subwfb	(___lwmod@dividend+1)^0,f,c
  6347   002686                     l3546:
  6348   002686  90D8               	bcf	status,0,c
  6349   002688  3204               	rrcf	(___lwmod@divisor+1)^0,f,c
  6350   00268A  3203               	rrcf	___lwmod@divisor^0,f,c
  6351   00268C  2E05               	decfsz	___lwmod@counter^0,f,c
  6352   00268E  EF34  F013         	goto	l3542
  6353   002692                     l1250:
  6354   002692  C001  F001         	movff	___lwmod@dividend,?___lwmod
  6355   002696  C002  F002         	movff	___lwmod@dividend+1,?___lwmod+1
  6356   00269A  0012               	return		;funcret
  6357   00269C                     __end_of___lwmod:
  6358                           	callstack 0
  6359                           
  6360 ;; *************** function ___lwdiv *****************
  6361 ;; Defined at:
  6362 ;;		line 7 in file "C:\Program Files\Microchip\xc8\v2.41\pic\sources\c99\common\lwdiv.c"
  6363 ;; Parameters:    Size  Location     Type
  6364 ;;  dividend        2    0[COMRAM] unsigned int 
  6365 ;;  divisor         2    2[COMRAM] unsigned int 
  6366 ;; Auto vars:     Size  Location     Type
  6367 ;;  quotient        2    4[COMRAM] unsigned int 
  6368 ;;  counter         1    6[COMRAM] unsigned char 
  6369 ;; Return value:  Size  Location     Type
  6370 ;;                  2    0[COMRAM] unsigned int 
  6371 ;; Registers used:
  6372 ;;		wreg, status,2, status,0
  6373 ;; Tracked objects:
  6374 ;;		On entry : 0/0
  6375 ;;		On exit  : 0/0
  6376 ;;		Unchanged: 0/0
  6377 ;; Data sizes:     COMRAM   BANK0   BANK1   BANK2   BANK3   BANK4   BANK5
  6378 ;;      Params:         4       0       0       0       0       0       0
  6379 ;;      Locals:         3       0       0       0       0       0       0
  6380 ;;      Temps:          0       0       0       0       0       0       0
  6381 ;;      Totals:         7       0       0       0       0       0       0
  6382 ;;Total ram usage:        7 bytes
  6383 ;; Hardware stack levels used: 1
  6384 ;; Hardware stack levels required when called: 1
  6385 ;; This function calls:
  6386 ;;		Nothing
  6387 ;; This function is called by:
  6388 ;;		_display_speed
  6389 ;; This function uses a non-reentrant model
  6390 ;;
  6391                           
  6392                           	psect	text34
  6393   002482                     __ptext34:
  6394                           	callstack 0
  6395   002482                     ___lwdiv:
  6396                           	callstack 28
  6397   002482  0E00               	movlw	0
  6398   002484  6E06               	movwf	(___lwdiv@quotient+1)^0,c
  6399   002486  0E00               	movlw	0
  6400   002488  6E05               	movwf	___lwdiv@quotient^0,c
  6401   00248A  5003               	movf	___lwdiv@divisor^0,w,c
  6402   00248C  1004               	iorwf	(___lwdiv@divisor+1)^0,w,c
  6403   00248E  B4D8               	btfsc	status,2,c
  6404   002490  EF4C  F012         	goto	u2711
  6405   002494  EF4E  F012         	goto	u2710
  6406   002498                     u2711:
  6407   002498  EF76  F012         	goto	l1240
  6408   00249C                     u2710:
  6409   00249C  0E01               	movlw	1
  6410   00249E  6E07               	movwf	___lwdiv@counter^0,c
  6411   0024A0  EF56  F012         	goto	l3520
  6412   0024A4                     l3518:
  6413   0024A4  90D8               	bcf	status,0,c
  6414   0024A6  3603               	rlcf	___lwdiv@divisor^0,f,c
  6415   0024A8  3604               	rlcf	(___lwdiv@divisor+1)^0,f,c
  6416   0024AA  2A07               	incf	___lwdiv@counter^0,f,c
  6417   0024AC                     l3520:
  6418   0024AC  AE04               	btfss	(___lwdiv@divisor+1)^0,7,c
  6419   0024AE  EF5B  F012         	goto	u2721
  6420   0024B2  EF5D  F012         	goto	u2720
  6421   0024B6                     u2721:
  6422   0024B6  EF52  F012         	goto	l3518
  6423   0024BA                     u2720:
  6424   0024BA                     l3522:
  6425   0024BA  90D8               	bcf	status,0,c
  6426   0024BC  3605               	rlcf	___lwdiv@quotient^0,f,c
  6427   0024BE  3606               	rlcf	(___lwdiv@quotient+1)^0,f,c
  6428   0024C0  5003               	movf	___lwdiv@divisor^0,w,c
  6429   0024C2  5C01               	subwf	___lwdiv@dividend^0,w,c
  6430   0024C4  5004               	movf	(___lwdiv@divisor+1)^0,w,c
  6431   0024C6  5802               	subwfb	(___lwdiv@dividend+1)^0,w,c
  6432   0024C8  A0D8               	btfss	status,0,c
  6433   0024CA  EF69  F012         	goto	u2731
  6434   0024CE  EF6B  F012         	goto	u2730
  6435   0024D2                     u2731:
  6436   0024D2  EF70  F012         	goto	l3530
  6437   0024D6                     u2730:
  6438   0024D6  5003               	movf	___lwdiv@divisor^0,w,c
  6439   0024D8  5E01               	subwf	___lwdiv@dividend^0,f,c
  6440   0024DA  5004               	movf	(___lwdiv@divisor+1)^0,w,c
  6441   0024DC  5A02               	subwfb	(___lwdiv@dividend+1)^0,f,c
  6442   0024DE  8005               	bsf	___lwdiv@quotient^0,0,c
  6443   0024E0                     l3530:
  6444   0024E0  90D8               	bcf	status,0,c
  6445   0024E2  3204               	rrcf	(___lwdiv@divisor+1)^0,f,c
  6446   0024E4  3203               	rrcf	___lwdiv@divisor^0,f,c
  6447   0024E6  2E07               	decfsz	___lwdiv@counter^0,f,c
  6448   0024E8  EF5D  F012         	goto	l3522
  6449   0024EC                     l1240:
  6450   0024EC  C005  F001         	movff	___lwdiv@quotient,?___lwdiv
  6451   0024F0  C006  F002         	movff	___lwdiv@quotient+1,?___lwdiv+1
  6452   0024F4  0012               	return		;funcret
  6453   0024F6                     __end_of___lwdiv:
  6454                           	callstack 0
  6455                           
  6456 ;; *************** function _display_event *****************
  6457 ;; Defined at:
  6458 ;;		line 33 in file "car_black_box.c"
  6459 ;; Parameters:    Size  Location     Type
  6460 ;;  key             1    wreg     unsigned char 
  6461 ;; Auto vars:     Size  Location     Type
  6462 ;;  key             1   10[COMRAM] unsigned char 
  6463 ;; Return value:  Size  Location     Type
  6464 ;;                  1    wreg      void 
  6465 ;; Registers used:
  6466 ;;		wreg, fsr0l, fsr0h, fsr2l, fsr2h, status,2, status,0, tblptrl, tblptrh, tblptru, prodl, prodh, cstack
  6467 ;; Tracked objects:
  6468 ;;		On entry : 0/0
  6469 ;;		On exit  : 0/0
  6470 ;;		Unchanged: 0/0
  6471 ;; Data sizes:     COMRAM   BANK0   BANK1   BANK2   BANK3   BANK4   BANK5
  6472 ;;      Params:         0       0       0       0       0       0       0
  6473 ;;      Locals:         1       0       0       0       0       0       0
  6474 ;;      Temps:          2       0       0       0       0       0       0
  6475 ;;      Totals:         3       0       0       0       0       0       0
  6476 ;;Total ram usage:        3 bytes
  6477 ;; Hardware stack levels used: 1
  6478 ;; Hardware stack levels required when called: 5
  6479 ;; This function calls:
  6480 ;;		_clcd_print
  6481 ;;		_store_event
  6482 ;; This function is called by:
  6483 ;;		_main
  6484 ;; This function uses a non-reentrant model
  6485 ;;
  6486                           
  6487                           	psect	text35
  6488   001374                     __ptext35:
  6489                           	callstack 0
  6490   001374                     _display_event:
  6491                           	callstack 25
  6492                           
  6493                           ;incstack = 0
  6494                           ;display_event@key stored from wreg
  6495   001374  6E0B               	movwf	display_event@key^0,c
  6496   001376                     
  6497                           ;car_black_box.c: 34:     if (key == 1 && prekey != 1) {
  6498   001376  040B               	decf	display_event@key^0,w,c
  6499   001378  A4D8               	btfss	status,2,c
  6500   00137A  EFC1  F009         	goto	u2831
  6501   00137E  EFC3  F009         	goto	u2830
  6502   001382                     u2831:
  6503   001382  EFD5  F009         	goto	l3622
  6504   001386                     u2830:
  6505   001386  044B               	decf	_prekey^0,w,c
  6506   001388  B4D8               	btfsc	status,2,c
  6507   00138A  EFC9  F009         	goto	u2841
  6508   00138E  EFCB  F009         	goto	u2840
  6509   001392                     u2841:
  6510   001392  EFD5  F009         	goto	l3622
  6511   001396                     u2840:
  6512   001396                     
  6513                           ;car_black_box.c: 35:         event_flag = 1;
  6514   001396  0E01               	movlw	1
  6515   001398  6E5B               	movwf	_event_flag^0,c
  6516                           
  6517                           ;car_black_box.c: 36:         flag = 1;
  6518   00139A  0E01               	movlw	1
  6519   00139C  6E54               	movwf	_flag^0,c
  6520                           
  6521                           ;car_black_box.c: 37:         gear = 0;
  6522   00139E  0E00               	movlw	0
  6523   0013A0  6E55               	movwf	_gear^0,c
  6524                           
  6525                           ;car_black_box.c: 38:         ev = 0;
  6526   0013A2  0E00               	movlw	0
  6527   0013A4  6E58               	movwf	_ev^0,c
  6528   0013A6                     
  6529                           ;car_black_box.c: 39:         prekey = key;
  6530   0013A6  C00B  F04B         	movff	display_event@key,_prekey
  6531   0013AA                     l3622:
  6532                           
  6533                           ;car_black_box.c: 41:     if (key == 2) {
  6534   0013AA  0E02               	movlw	2
  6535   0013AC  180B               	xorwf	display_event@key^0,w,c
  6536   0013AE  A4D8               	btfss	status,2,c
  6537   0013B0  EFDC  F009         	goto	u2851
  6538   0013B4  EFDE  F009         	goto	u2850
  6539   0013B8                     u2851:
  6540   0013B8  EF05  F00A         	goto	l3638
  6541   0013BC                     u2850:
  6542   0013BC                     
  6543                           ;car_black_box.c: 42:         if (gear == 6 && prekey == 2);
  6544   0013BC  0E06               	movlw	6
  6545   0013BE  1855               	xorwf	_gear^0,w,c
  6546   0013C0  A4D8               	btfss	status,2,c
  6547   0013C2  EFE5  F009         	goto	u2861
  6548   0013C6  EFE7  F009         	goto	u2860
  6549   0013CA                     u2861:
  6550   0013CA  EFF2  F009         	goto	l3630
  6551   0013CE                     u2860:
  6552   0013CE  0E02               	movlw	2
  6553   0013D0  184B               	xorwf	_prekey^0,w,c
  6554   0013D2  A4D8               	btfss	status,2,c
  6555   0013D4  EFEE  F009         	goto	u2871
  6556   0013D8  EFF0  F009         	goto	u2870
  6557   0013DC                     u2871:
  6558   0013DC  EFF2  F009         	goto	l3630
  6559   0013E0                     u2870:
  6560   0013E0  EF05  F00A         	goto	l3638
  6561   0013E4                     l3630:
  6562                           
  6563                           ;car_black_box.c: 44:             event_flag = 1;
  6564   0013E4  0E01               	movlw	1
  6565   0013E6  6E5B               	movwf	_event_flag^0,c
  6566                           
  6567                           ;car_black_box.c: 45:             flag = 0;
  6568   0013E8  0E00               	movlw	0
  6569   0013EA  6E54               	movwf	_flag^0,c
  6570                           
  6571                           ;car_black_box.c: 46:             ev = 0;
  6572   0013EC  0E00               	movlw	0
  6573   0013EE  6E58               	movwf	_ev^0,c
  6574   0013F0                     
  6575                           ;car_black_box.c: 47:             if (++gear >= 6) {
  6576   0013F0  2A55               	incf	_gear^0,f,c
  6577   0013F2  0E05               	movlw	5
  6578   0013F4  6455               	cpfsgt	_gear^0,c
  6579   0013F6  EFFF  F009         	goto	u2881
  6580   0013FA  EF01  F00A         	goto	u2880
  6581   0013FE                     u2881:
  6582   0013FE  EF05  F00A         	goto	l3638
  6583   001402                     u2880:
  6584   001402                     
  6585                           ;car_black_box.c: 48:                 gear = 6;
  6586   001402  0E06               	movlw	6
  6587   001404  6E55               	movwf	_gear^0,c
  6588   001406                     
  6589                           ;car_black_box.c: 49:                 prekey = key;
  6590   001406  C00B  F04B         	movff	display_event@key,_prekey
  6591   00140A                     l3638:
  6592                           
  6593                           ;car_black_box.c: 53:     if (key == 3 && flag == 0 && gear > 1) {
  6594   00140A  0E03               	movlw	3
  6595   00140C  180B               	xorwf	display_event@key^0,w,c
  6596   00140E  A4D8               	btfss	status,2,c
  6597   001410  EF0C  F00A         	goto	u2891
  6598   001414  EF0E  F00A         	goto	u2890
  6599   001418                     u2891:
  6600   001418  EF42  F00A         	goto	l3658
  6601   00141C                     u2890:
  6602   00141C  5054               	movf	_flag^0,w,c
  6603   00141E  A4D8               	btfss	status,2,c
  6604   001420  EF14  F00A         	goto	u2901
  6605   001424  EF16  F00A         	goto	u2900
  6606   001428                     u2901:
  6607   001428  EF42  F00A         	goto	l3658
  6608   00142C                     u2900:
  6609   00142C  0E01               	movlw	1
  6610   00142E  6455               	cpfsgt	_gear^0,c
  6611   001430  EF1C  F00A         	goto	u2911
  6612   001434  EF1E  F00A         	goto	u2910
  6613   001438                     u2911:
  6614   001438  EF42  F00A         	goto	l3658
  6615   00143C                     u2910:
  6616   00143C                     
  6617                           ;car_black_box.c: 54:         if (gear == 1 && prekey == 3);
  6618   00143C  0455               	decf	_gear^0,w,c
  6619   00143E  A4D8               	btfss	status,2,c
  6620   001440  EF24  F00A         	goto	u2921
  6621   001444  EF26  F00A         	goto	u2920
  6622   001448                     u2921:
  6623   001448  EF31  F00A         	goto	l3650
  6624   00144C                     u2920:
  6625   00144C  0E03               	movlw	3
  6626   00144E  184B               	xorwf	_prekey^0,w,c
  6627   001450  A4D8               	btfss	status,2,c
  6628   001452  EF2D  F00A         	goto	u2931
  6629   001456  EF2F  F00A         	goto	u2930
  6630   00145A                     u2931:
  6631   00145A  EF31  F00A         	goto	l3650
  6632   00145E                     u2930:
  6633   00145E  EF42  F00A         	goto	l3658
  6634   001462                     l3650:
  6635                           
  6636                           ;car_black_box.c: 56:             event_flag = 1;
  6637   001462  0E01               	movlw	1
  6638   001464  6E5B               	movwf	_event_flag^0,c
  6639                           
  6640                           ;car_black_box.c: 57:             ev = 0;
  6641   001466  0E00               	movlw	0
  6642   001468  6E58               	movwf	_ev^0,c
  6643   00146A                     
  6644                           ;car_black_box.c: 58:             if (--gear <= 1) {
  6645   00146A  0655               	decf	_gear^0,f,c
  6646   00146C  0E02               	movlw	2
  6647   00146E  6055               	cpfslt	_gear^0,c
  6648   001470  EF3C  F00A         	goto	u2941
  6649   001474  EF3E  F00A         	goto	u2940
  6650   001478                     u2941:
  6651   001478  EF42  F00A         	goto	l3658
  6652   00147C                     u2940:
  6653   00147C                     
  6654                           ;car_black_box.c: 59:                 gear = 1;
  6655   00147C  0E01               	movlw	1
  6656   00147E  6E55               	movwf	_gear^0,c
  6657   001480                     
  6658                           ;car_black_box.c: 60:                 prekey = key;
  6659   001480  C00B  F04B         	movff	display_event@key,_prekey
  6660   001484                     l3658:
  6661                           
  6662                           ;car_black_box.c: 65:     if (ev == 1 || option != 0) {
  6663   001484  0458               	decf	_ev^0,w,c
  6664   001486  B4D8               	btfsc	status,2,c
  6665   001488  EF48  F00A         	goto	u2951
  6666   00148C  EF4A  F00A         	goto	u2950
  6667   001490                     u2951:
  6668   001490  EF52  F00A         	goto	l3662
  6669   001494                     u2950:
  6670   001494  5048               	movf	_option^0,w,c
  6671   001496  B4D8               	btfsc	status,2,c
  6672   001498  EF50  F00A         	goto	u2961
  6673   00149C  EF52  F00A         	goto	u2960
  6674   0014A0                     u2961:
  6675   0014A0  EF8A  F00A         	goto	l3668
  6676   0014A4                     u2960:
  6677   0014A4                     l3662:
  6678                           
  6679                           ;car_black_box.c: 66:         clcd_print(menu_eve[option], (0xC0 + (10)));
  6680   0014A4  5048               	movf	_option^0,w,c
  6681   0014A6  0D02               	mullw	2
  6682   0014A8  0E9F               	movlw	low _menu_eve
  6683   0014AA  24F3               	addwf	243,w,c
  6684   0014AC  6ED9               	movwf	fsr2l,c
  6685   0014AE  0E00               	movlw	high _menu_eve
  6686   0014B0  20F4               	addwfc	prodh,w,c
  6687   0014B2  6EDA               	movwf	fsr2h,c
  6688   0014B4  CFDE F003          	movff	postinc2,clcd_print@data
  6689   0014B8  CFDD F004          	movff	postdec2,clcd_print@data+1
  6690   0014BC  0ECA               	movlw	202
  6691   0014BE  6E05               	movwf	clcd_print@addr^0,c
  6692   0014C0  ECB4  F012         	call	_clcd_print	;wreg free
  6693   0014C4                     
  6694                           ;car_black_box.c: 67:         event[9] = menu_eve[option][0];
  6695   0014C4  5048               	movf	_option^0,w,c
  6696   0014C6  0D02               	mullw	2
  6697   0014C8  0E9F               	movlw	low _menu_eve
  6698   0014CA  24F3               	addwf	243,w,c
  6699   0014CC  6ED9               	movwf	fsr2l,c
  6700   0014CE  0E00               	movlw	high _menu_eve
  6701   0014D0  20F4               	addwfc	prodh,w,c
  6702   0014D2  6EDA               	movwf	fsr2h,c
  6703   0014D4  CFDE FFF6          	movff	postinc2,tblptrl
  6704   0014D8  CFDD FFF7          	movff	postdec2,tblptrh
  6705   0014DC                     	if	0	;tblptru may be non-zero
  6706   0014DC                     	endif
  6707   0014DC                     	if	0	;tblptru may be non-zero
  6708   0014DC                     	endif
  6709   0014DC  0008               	tblrd		*
  6710   0014DE  CFF5 F06C          	movff	tablat,_event+9
  6711   0014E2                     
  6712                           ;car_black_box.c: 68:         event[10] = menu_eve[option][1];
  6713   0014E2  5048               	movf	_option^0,w,c
  6714   0014E4  0D02               	mullw	2
  6715   0014E6  0E9F               	movlw	low _menu_eve
  6716   0014E8  24F3               	addwf	243,w,c
  6717   0014EA  6ED9               	movwf	fsr2l,c
  6718   0014EC  0E00               	movlw	high _menu_eve
  6719   0014EE  20F4               	addwfc	prodh,w,c
  6720   0014F0  6EDA               	movwf	fsr2h,c
  6721   0014F2  CFDE F009          	movff	postinc2,??_display_event
  6722   0014F6  CFDD F00A          	movff	postdec2,??_display_event+1
  6723   0014FA  0E01               	movlw	1
  6724   0014FC  2609               	addwf	??_display_event^0,f,c
  6725   0014FE  0E00               	movlw	0
  6726   001500  220A               	addwfc	(??_display_event+1)^0,f,c
  6727   001502  C009  FFF6         	movff	??_display_event,tblptrl
  6728   001506  C00A  FFF7         	movff	??_display_event+1,tblptrh
  6729   00150A                     	if	0	;tblptru may be non-zero
  6730   00150A                     	endif
  6731   00150A                     	if	0	;tblptru may be non-zero
  6732   00150A                     	endif
  6733   00150A  0008               	tblrd		*
  6734   00150C  CFF5 F06D          	movff	tablat,_event+10
  6735                           
  6736                           ;car_black_box.c: 69:     } else {
  6737   001510  EFE9  F00A         	goto	l3682
  6738   001514                     l3668:
  6739                           
  6740                           ;car_black_box.c: 70:         if (flag == 1) {
  6741   001514  0454               	decf	_flag^0,w,c
  6742   001516  A4D8               	btfss	status,2,c
  6743   001518  EF90  F00A         	goto	u2971
  6744   00151C  EF92  F00A         	goto	u2970
  6745   001520                     u2971:
  6746   001520  EFB3  F00A         	goto	l3676
  6747   001524                     u2970:
  6748   001524                     
  6749                           ;car_black_box.c: 71:             clcd_print(signature[7], (0xC0 + (10)));
  6750   001524  C09D  F003         	movff	_signature+14,clcd_print@data
  6751   001528  C09E  F004         	movff	_signature+15,clcd_print@data+1
  6752   00152C  0ECA               	movlw	202
  6753   00152E  6E05               	movwf	clcd_print@addr^0,c
  6754   001530  ECB4  F012         	call	_clcd_print	;wreg free
  6755   001534                     
  6756                           ;car_black_box.c: 72:             event[9] = signature[7][0];
  6757   001534  EE20  F09D         	lfsr	2,_signature+14
  6758   001538  CFDE FFF6          	movff	postinc2,tblptrl
  6759   00153C  CFDD FFF7          	movff	postdec2,tblptrh
  6760   001540                     	if	0	;tblptru may be non-zero
  6761   001540                     	endif
  6762   001540                     	if	0	;tblptru may be non-zero
  6763   001540                     	endif
  6764   001540  0008               	tblrd		*
  6765   001542  CFF5 F06C          	movff	tablat,_event+9
  6766   001546                     
  6767                           ;car_black_box.c: 73:             event[10] = signature[7][1];
  6768   001546  0E01               	movlw	1
  6769   001548  0100               	movlb	0	; () banked
  6770   00154A  259D               	addwf	(_signature+14)& (0+255),w,b
  6771   00154C  6E09               	movwf	??_display_event^0,c
  6772   00154E  0E00               	movlw	0
  6773   001550  219E               	addwfc	(_signature+15)& (0+255),w,b
  6774   001552  6E0A               	movwf	(??_display_event+1)^0,c
  6775   001554  C009  FFF6         	movff	??_display_event,tblptrl
  6776   001558  C00A  FFF7         	movff	??_display_event+1,tblptrh
  6777   00155C                     	if	0	;tblptru may be non-zero
  6778   00155C                     	endif
  6779   00155C                     	if	0	;tblptru may be non-zero
  6780   00155C                     	endif
  6781   00155C  0008               	tblrd		*
  6782   00155E  CFF5 F06D          	movff	tablat,_event+10
  6783                           
  6784                           ;car_black_box.c: 74:         } else {
  6785   001562  EFE9  F00A         	goto	l3682
  6786   001566                     l3676:
  6787                           
  6788                           ;car_black_box.c: 75:             clcd_print(signature[gear], (0xC0 + (10)));
  6789   001566  5055               	movf	_gear^0,w,c
  6790   001568  0D02               	mullw	2
  6791   00156A  0E8F               	movlw	low _signature
  6792   00156C  24F3               	addwf	243,w,c
  6793   00156E  6ED9               	movwf	fsr2l,c
  6794   001570  0E00               	movlw	high _signature
  6795   001572  20F4               	addwfc	prodh,w,c
  6796   001574  6EDA               	movwf	fsr2h,c
  6797   001576  CFDE F003          	movff	postinc2,clcd_print@data
  6798   00157A  CFDD F004          	movff	postdec2,clcd_print@data+1
  6799   00157E  0ECA               	movlw	202
  6800   001580  6E05               	movwf	clcd_print@addr^0,c
  6801   001582  ECB4  F012         	call	_clcd_print	;wreg free
  6802   001586                     
  6803                           ;car_black_box.c: 76:             event[9] = signature[gear][0];
  6804   001586  5055               	movf	_gear^0,w,c
  6805   001588  0D02               	mullw	2
  6806   00158A  0E8F               	movlw	low _signature
  6807   00158C  24F3               	addwf	243,w,c
  6808   00158E  6ED9               	movwf	fsr2l,c
  6809   001590  0E00               	movlw	high _signature
  6810   001592  20F4               	addwfc	prodh,w,c
  6811   001594  6EDA               	movwf	fsr2h,c
  6812   001596  CFDE FFF6          	movff	postinc2,tblptrl
  6813   00159A  CFDD FFF7          	movff	postdec2,tblptrh
  6814   00159E                     	if	0	;tblptru may be non-zero
  6815   00159E                     	endif
  6816   00159E                     	if	0	;tblptru may be non-zero
  6817   00159E                     	endif
  6818   00159E  0008               	tblrd		*
  6819   0015A0  CFF5 F06C          	movff	tablat,_event+9
  6820   0015A4                     
  6821                           ;car_black_box.c: 77:             event[10] = signature[gear][1];
  6822   0015A4  5055               	movf	_gear^0,w,c
  6823   0015A6  0D02               	mullw	2
  6824   0015A8  0E8F               	movlw	low _signature
  6825   0015AA  24F3               	addwf	243,w,c
  6826   0015AC  6ED9               	movwf	fsr2l,c
  6827   0015AE  0E00               	movlw	high _signature
  6828   0015B0  20F4               	addwfc	prodh,w,c
  6829   0015B2  6EDA               	movwf	fsr2h,c
  6830   0015B4  CFDE F009          	movff	postinc2,??_display_event
  6831   0015B8  CFDD F00A          	movff	postdec2,??_display_event+1
  6832   0015BC  0E01               	movlw	1
  6833   0015BE  2609               	addwf	??_display_event^0,f,c
  6834   0015C0  0E00               	movlw	0
  6835   0015C2  220A               	addwfc	(??_display_event+1)^0,f,c
  6836   0015C4  C009  FFF6         	movff	??_display_event,tblptrl
  6837   0015C8  C00A  FFF7         	movff	??_display_event+1,tblptrh
  6838   0015CC                     	if	0	;tblptru may be non-zero
  6839   0015CC                     	endif
  6840   0015CC                     	if	0	;tblptru may be non-zero
  6841   0015CC                     	endif
  6842   0015CC  0008               	tblrd		*
  6843   0015CE  CFF5 F06D          	movff	tablat,_event+10
  6844   0015D2                     l3682:
  6845                           
  6846                           ;car_black_box.c: 81:     if (event_flag == 1) {
  6847   0015D2  045B               	decf	_event_flag^0,w,c
  6848   0015D4  A4D8               	btfss	status,2,c
  6849   0015D6  EFEF  F00A         	goto	u2981
  6850   0015DA  EFF1  F00A         	goto	u2980
  6851   0015DE                     u2981:
  6852   0015DE  EFF9  F00A         	goto	l316
  6853   0015E2                     u2980:
  6854   0015E2                     
  6855                           ;car_black_box.c: 82:         event_flag = 0;
  6856   0015E2  0E00               	movlw	0
  6857   0015E4  6E5B               	movwf	_event_flag^0,c
  6858   0015E6                     
  6859                           ;car_black_box.c: 83:         store_event(event);
  6860   0015E6  0E63               	movlw	low _event
  6861   0015E8  6E05               	movwf	store_event@data^0,c
  6862   0015EA  0E00               	movlw	high _event
  6863   0015EC  6E06               	movwf	(store_event@data+1)^0,c
  6864   0015EE  EC69  F011         	call	_store_event	;wreg free
  6865   0015F2                     l316:
  6866   0015F2  0012               	return		;funcret
  6867   0015F4                     __end_of_display_event:
  6868                           	callstack 0
  6869                           
  6870 ;; *************** function _clear_log *****************
  6871 ;; Defined at:
  6872 ;;		line 426 in file "car_black_box.c"
  6873 ;; Parameters:    Size  Location     Type
  6874 ;;		None
  6875 ;; Auto vars:     Size  Location     Type
  6876 ;;		None
  6877 ;; Return value:  Size  Location     Type
  6878 ;;                  1    wreg      void 
  6879 ;; Registers used:
  6880 ;;		wreg, fsr0l, fsr0h, fsr2l, fsr2h, status,2, status,0, tblptrl, tblptrh, tblptru, prodl, prodh, cstack
  6881 ;; Tracked objects:
  6882 ;;		On entry : 0/0
  6883 ;;		On exit  : 0/0
  6884 ;;		Unchanged: 0/0
  6885 ;; Data sizes:     COMRAM   BANK0   BANK1   BANK2   BANK3   BANK4   BANK5
  6886 ;;      Params:         0       0       0       0       0       0       0
  6887 ;;      Locals:         0       0       0       0       0       0       0
  6888 ;;      Temps:          2       0       0       0       0       0       0
  6889 ;;      Totals:         2       0       0       0       0       0       0
  6890 ;;Total ram usage:        2 bytes
  6891 ;; Hardware stack levels used: 1
  6892 ;; Hardware stack levels required when called: 5
  6893 ;; This function calls:
  6894 ;;		_clcd_print
  6895 ;;		_clcd_putch
  6896 ;;		_store_event
  6897 ;; This function is called by:
  6898 ;;		_main
  6899 ;; This function uses a non-reentrant model
  6900 ;;
  6901                           
  6902                           	psect	text36
  6903   002376                     __ptext36:
  6904                           	callstack 0
  6905   002376                     _clear_log:
  6906                           	callstack 25
  6907   002376                     
  6908                           ;car_black_box.c: 427:     clcd_putch('4', (0xC0 + (15)));
  6909   002376  0ECF               	movlw	207
  6910   002378  6E0F               	movwf	clcd_putch@addr^0,c
  6911   00237A  0E34               	movlw	52
  6912   00237C  ECE9  F014         	call	_clcd_putch
  6913   002380                     
  6914                           ;car_black_box.c: 428:     count_eve = total_events = log_index = index = mode = wait = 
      +                          0;
  6915   002380  0E00               	movlw	0
  6916   002382  6E44               	movwf	(_wait+1)^0,c
  6917   002384  0E00               	movlw	0
  6918   002386  6E43               	movwf	_wait^0,c
  6919   002388  C043  F049         	movff	_wait,_mode
  6920   00238C  C049  F046         	movff	_mode,_index
  6921   002390  C046  F047         	movff	_index,_log_index
  6922   002394  C047  F057         	movff	_log_index,_total_events
  6923   002398  C057  F059         	movff	_total_events,_count_eve
  6924   00239C                     
  6925                           ;car_black_box.c: 429:     store_event(event);
  6926   00239C  0E63               	movlw	low _event
  6927   00239E  6E05               	movwf	store_event@data^0,c
  6928   0023A0  0E00               	movlw	high _event
  6929   0023A2  6E06               	movwf	(store_event@data+1)^0,c
  6930   0023A4  EC69  F011         	call	_store_event	;wreg free
  6931   0023A8                     
  6932                           ;car_black_box.c: 430:     event_flag = 0;
  6933   0023A8  0E00               	movlw	0
  6934   0023AA  6E5B               	movwf	_event_flag^0,c
  6935   0023AC                     
  6936                           ;car_black_box.c: 431:     clcd_print("  Logs cleared  ", (0x80 + (0)));
  6937   0023AC  0E6A               	movlw	low STR_73
  6938   0023AE  6E03               	movwf	clcd_print@data^0,c
  6939   0023B0  0E2E               	movlw	high STR_73
  6940   0023B2  6E04               	movwf	(clcd_print@data+1)^0,c
  6941   0023B4  0E80               	movlw	128
  6942   0023B6  6E05               	movwf	clcd_print@addr^0,c
  6943   0023B8  ECB4  F012         	call	_clcd_print	;wreg free
  6944   0023BC                     
  6945                           ;car_black_box.c: 432:     _delay((unsigned long)((1000)*(20000000/4000.0)));
  6946   0023BC  0E1A               	movlw	26
  6947   0023BE  6E12               	movwf	(??_clear_log+1)^0,c
  6948   0023C0  0E5E               	movlw	94
  6949   0023C2  6E11               	movwf	??_clear_log^0,c
  6950   0023C4  0E6E               	movlw	110
  6951   0023C6                     u4617:
  6952   0023C6  2EE8               	decfsz	wreg,f,c
  6953   0023C8  D7FE               	bra	u4617
  6954   0023CA  2E11               	decfsz	??_clear_log^0,f,c
  6955   0023CC  D7FC               	bra	u4617
  6956   0023CE  2E12               	decfsz	(??_clear_log+1)^0,f,c
  6957   0023D0  D7FA               	bra	u4617
  6958   0023D2  D000               	nop2	
  6959   0023D4                     
  6960                           ;car_black_box.c: 433:     clcd_putch(count_eve + 48, (0xC0 + (10)));
  6961   0023D4  0ECA               	movlw	202
  6962   0023D6  6E0F               	movwf	clcd_putch@addr^0,c
  6963   0023D8  5059               	movf	_count_eve^0,w,c
  6964   0023DA  0F30               	addlw	48
  6965   0023DC  ECE9  F014         	call	_clcd_putch
  6966   0023E0                     
  6967                           ;car_black_box.c: 434:     _delay((unsigned long)((1000)*(20000000/4000.0)));
  6968   0023E0  0E1A               	movlw	26
  6969   0023E2  6E12               	movwf	(??_clear_log+1)^0,c
  6970   0023E4  0E5E               	movlw	94
  6971   0023E6  6E11               	movwf	??_clear_log^0,c
  6972   0023E8  0E6E               	movlw	110
  6973   0023EA                     u4627:
  6974   0023EA  2EE8               	decfsz	wreg,f,c
  6975   0023EC  D7FE               	bra	u4627
  6976   0023EE  2E11               	decfsz	??_clear_log^0,f,c
  6977   0023F0  D7FC               	bra	u4627
  6978   0023F2  2E12               	decfsz	(??_clear_log+1)^0,f,c
  6979   0023F4  D7FA               	bra	u4627
  6980   0023F6  D000               	nop2	
  6981   0023F8                     
  6982                           ;car_black_box.c: 436:     pass_flag = 2;
  6983   0023F8  0E02               	movlw	2
  6984   0023FA  6E5A               	movwf	_pass_flag^0,c
  6985   0023FC                     
  6986                           ;car_black_box.c: 437:     sec = 60;
  6987   0023FC  0E3C               	movlw	60
  6988   0023FE  6E5E               	movwf	_sec^0,c
  6989   002400  0012               	return		;funcret
  6990   002402                     __end_of_clear_log:
  6991                           	callstack 0
  6992                           
  6993 ;; *************** function _store_event *****************
  6994 ;; Defined at:
  6995 ;;		line 46 in file "eeprom.c"
  6996 ;; Parameters:    Size  Location     Type
  6997 ;;  data            2    4[COMRAM] PTR unsigned char 
  6998 ;;		 -> event(16), 
  6999 ;; Auto vars:     Size  Location     Type
  7000 ;;  i               1    7[COMRAM] unsigned char 
  7001 ;;  address         1    6[COMRAM] unsigned char 
  7002 ;; Return value:  Size  Location     Type
  7003 ;;                  1    wreg      void 
  7004 ;; Registers used:
  7005 ;;		wreg, fsr2l, fsr2h, status,2, status,0, prodl, prodh, cstack
  7006 ;; Tracked objects:
  7007 ;;		On entry : 0/0
  7008 ;;		On exit  : 0/0
  7009 ;;		Unchanged: 0/0
  7010 ;; Data sizes:     COMRAM   BANK0   BANK1   BANK2   BANK3   BANK4   BANK5
  7011 ;;      Params:         2       0       0       0       0       0       0
  7012 ;;      Locals:         2       0       0       0       0       0       0
  7013 ;;      Temps:          0       0       0       0       0       0       0
  7014 ;;      Totals:         4       0       0       0       0       0       0
  7015 ;;Total ram usage:        4 bytes
  7016 ;; Hardware stack levels used: 1
  7017 ;; Hardware stack levels required when called: 4
  7018 ;; This function calls:
  7019 ;;		_write_ext_eeprom
  7020 ;; This function is called by:
  7021 ;;		_main
  7022 ;;		_display_event
  7023 ;;		_menu
  7024 ;;		_clear_log
  7025 ;; This function uses a non-reentrant model
  7026 ;;
  7027                           
  7028                           	psect	text37
  7029   0022D2                     __ptext37:
  7030                           	callstack 0
  7031   0022D2                     _store_event:
  7032                           	callstack 26
  7033   0022D2                     
  7034                           ;eeprom.c: 47:     unsigned char address = 0x00 + (14 * count_eve);
  7035   0022D2  5059               	movf	_count_eve^0,w,c
  7036   0022D4  0D0E               	mullw	14
  7037   0022D6  CFF3 F007          	movff	prodl,store_event@address
  7038   0022DA                     
  7039                           ;eeprom.c: 48:     for (unsigned char i = 0; i < 14; i++) {
  7040   0022DA  0E00               	movlw	0
  7041   0022DC  6E08               	movwf	store_event@i^0,c
  7042   0022DE                     l3264:
  7043                           
  7044                           ;eeprom.c: 49:         write_ext_eeprom(address + i, data[i]);
  7045   0022DE  5008               	movf	store_event@i^0,w,c
  7046   0022E0  2405               	addwf	store_event@data^0,w,c
  7047   0022E2  6ED9               	movwf	fsr2l,c
  7048   0022E4  0E00               	movlw	0
  7049   0022E6  2006               	addwfc	(store_event@data+1)^0,w,c
  7050   0022E8  6EDA               	movwf	fsr2h,c
  7051   0022EA  50DF               	movf	indf2,w,c
  7052   0022EC  6E02               	movwf	write_ext_eeprom@data^0,c
  7053   0022EE  5007               	movf	store_event@address^0,w,c
  7054   0022F0  2408               	addwf	store_event@i^0,w,c
  7055   0022F2  EC3D  F014         	call	_write_ext_eeprom
  7056   0022F6                     
  7057                           ;eeprom.c: 50:     }
  7058   0022F6  2A08               	incf	store_event@i^0,f,c
  7059   0022F8  0E0D               	movlw	13
  7060   0022FA  6408               	cpfsgt	store_event@i^0,c
  7061   0022FC  EF82  F011         	goto	u2341
  7062   002300  EF84  F011         	goto	u2340
  7063   002304                     u2341:
  7064   002304  EF6F  F011         	goto	l3264
  7065   002308                     u2340:
  7066   002308                     
  7067                           ;eeprom.c: 52:     if (count_eve++ == 9) {
  7068   002308  2A59               	incf	_count_eve^0,f,c
  7069   00230A  0E0A               	movlw	10
  7070   00230C  1859               	xorwf	_count_eve^0,w,c
  7071   00230E  A4D8               	btfss	status,2,c
  7072   002310  EF8C  F011         	goto	u2351
  7073   002314  EF8E  F011         	goto	u2350
  7074   002318                     u2351:
  7075   002318  EF94  F011         	goto	l3274
  7076   00231C                     u2350:
  7077   00231C                     
  7078                           ;eeprom.c: 53:         count_eve = 0;
  7079   00231C  0E00               	movlw	0
  7080   00231E  6E59               	movwf	_count_eve^0,c
  7081                           
  7082                           ;eeprom.c: 54:         total_events = 10;
  7083   002320  0E0A               	movlw	10
  7084   002322  6E57               	movwf	_total_events^0,c
  7085                           
  7086                           ;eeprom.c: 55:     } else if (total_events < 10)
  7087   002324  EF9D  F011         	goto	l3278
  7088   002328                     l3274:
  7089   002328  0E0A               	movlw	10
  7090   00232A  6057               	cpfslt	_total_events^0,c
  7091   00232C  EF9A  F011         	goto	u2361
  7092   002330  EF9C  F011         	goto	u2360
  7093   002334                     u2361:
  7094   002334  EF9D  F011         	goto	l3278
  7095   002338                     u2360:
  7096   002338                     
  7097                           ;eeprom.c: 56:     {;eeprom.c: 57:         total_events++;
  7098   002338  2A57               	incf	_total_events^0,f,c
  7099   00233A                     l3278:
  7100                           
  7101                           ;eeprom.c: 60:     if (total_events == 10 && count_eve > 0)
  7102   00233A  0E0A               	movlw	10
  7103   00233C  1857               	xorwf	_total_events^0,w,c
  7104   00233E  A4D8               	btfss	status,2,c
  7105   002340  EFA4  F011         	goto	u2371
  7106   002344  EFA6  F011         	goto	u2370
  7107   002348                     u2371:
  7108   002348  EFBA  F011         	goto	l656
  7109   00234C                     u2370:
  7110   00234C  5059               	movf	_count_eve^0,w,c
  7111   00234E  B4D8               	btfsc	status,2,c
  7112   002350  EFAC  F011         	goto	u2381
  7113   002354  EFAE  F011         	goto	u2380
  7114   002358                     u2381:
  7115   002358  EFBA  F011         	goto	l656
  7116   00235C                     u2380:
  7117   00235C                     
  7118                           ;eeprom.c: 61:     {;eeprom.c: 62:         if (++index == 11)
  7119   00235C  2A46               	incf	_index^0,f,c
  7120   00235E  0E0B               	movlw	11
  7121   002360  1846               	xorwf	_index^0,w,c
  7122   002362  A4D8               	btfss	status,2,c
  7123   002364  EFB6  F011         	goto	u2391
  7124   002368  EFB8  F011         	goto	u2390
  7125   00236C                     u2391:
  7126   00236C  EFBA  F011         	goto	l656
  7127   002370                     u2390:
  7128   002370                     
  7129                           ;eeprom.c: 63:             index = 1;
  7130   002370  0E01               	movlw	1
  7131   002372  6E46               	movwf	_index^0,c
  7132   002374                     l656:
  7133   002374  0012               	return		;funcret
  7134   002376                     __end_of_store_event:
  7135                           	callstack 0
  7136                           
  7137 ;; *************** function _change_password *****************
  7138 ;; Defined at:
  7139 ;;		line 440 in file "car_black_box.c"
  7140 ;; Parameters:    Size  Location     Type
  7141 ;;  key             1    wreg     unsigned char 
  7142 ;; Auto vars:     Size  Location     Type
  7143 ;;  key             1   23[COMRAM] unsigned char 
  7144 ;;  i               1   28[COMRAM] unsigned char 
  7145 ;;  j               2   26[COMRAM] int 
  7146 ;;  j               2   24[COMRAM] int 
  7147 ;; Return value:  Size  Location     Type
  7148 ;;                  1    wreg      void 
  7149 ;; Registers used:
  7150 ;;		wreg, fsr0l, fsr0h, fsr1l, fsr1h, fsr2l, fsr2h, status,2, status,0, tblptrl, tblptrh, tblptru, cstack
  7151 ;; Tracked objects:
  7152 ;;		On entry : 0/0
  7153 ;;		On exit  : 0/0
  7154 ;;		Unchanged: 0/0
  7155 ;; Data sizes:     COMRAM   BANK0   BANK1   BANK2   BANK3   BANK4   BANK5
  7156 ;;      Params:         0       0       0       0       0       0       0
  7157 ;;      Locals:         6       0       0       0       0       0       0
  7158 ;;      Temps:          2       0       0       0       0       0       0
  7159 ;;      Totals:         8       0       0       0       0       0       0
  7160 ;;Total ram usage:        8 bytes
  7161 ;; Hardware stack levels used: 1
  7162 ;; Hardware stack levels required when called: 4
  7163 ;; This function calls:
  7164 ;;		_clcd_print
  7165 ;;		_clcd_putch
  7166 ;;		_store_password
  7167 ;;		_write_ext_eeprom
  7168 ;; This function is called by:
  7169 ;;		_main
  7170 ;; This function uses a non-reentrant model
  7171 ;;
  7172                           
  7173                           	psect	text38
  7174   000012                     __ptext38:
  7175                           	callstack 0
  7176   000012                     _change_password:
  7177                           	callstack 26
  7178                           
  7179                           ;incstack = 0
  7180                           ;change_password@key stored from wreg
  7181   000012  6E18               	movwf	change_password@key^0,c
  7182   000014                     
  7183                           ;car_black_box.c: 441:     if (sec == 55) {
  7184   000014  0E37               	movlw	55
  7185   000016  185E               	xorwf	_sec^0,w,c
  7186   000018  A4D8               	btfss	status,2,c
  7187   00001A  EF11  F000         	goto	u3761
  7188   00001E  EF13  F000         	goto	u3760
  7189   000022                     u3761:
  7190   000022  EF33  F000         	goto	l4142
  7191   000026                     u3760:
  7192   000026                     
  7193                           ;car_black_box.c: 442:         clcd_print("                ", (0x80 + (0)));
  7194   000026  0E58               	movlw	low STR_19
  7195   000028  6E03               	movwf	clcd_print@data^0,c
  7196   00002A  0E2F               	movlw	high STR_19
  7197   00002C  6E04               	movwf	(clcd_print@data+1)^0,c
  7198   00002E  0E80               	movlw	128
  7199   000030  6E05               	movwf	clcd_print@addr^0,c
  7200   000032  ECB4  F012         	call	_clcd_print	;wreg free
  7201                           
  7202                           ;car_black_box.c: 443:         clcd_print("                ", (0xC0 + (0)));
  7203   000036  0E58               	movlw	low STR_19
  7204   000038  6E03               	movwf	clcd_print@data^0,c
  7205   00003A  0E2F               	movlw	high STR_19
  7206   00003C  6E04               	movwf	(clcd_print@data+1)^0,c
  7207   00003E  0EC0               	movlw	192
  7208   000040  6E05               	movwf	clcd_print@addr^0,c
  7209   000042  ECB4  F012         	call	_clcd_print	;wreg free
  7210   000046                     l4134:
  7211                           
  7212                           ;car_black_box.c: 444:         ind = mode = wait = 0;
  7213   000046  0E00               	movlw	0
  7214   000048  6E44               	movwf	(_wait+1)^0,c
  7215   00004A  0E00               	movlw	0
  7216   00004C  6E43               	movwf	_wait^0,c
  7217   00004E  C043  F049         	movff	_wait,_mode
  7218   000052  C049  F052         	movff	_mode,_ind
  7219   000056                     l4136:
  7220                           
  7221                           ;car_black_box.c: 445:         pass_flag = 2;
  7222   000056  0E02               	movlw	2
  7223   000058  6E5A               	movwf	_pass_flag^0,c
  7224   00005A                     
  7225                           ;car_black_box.c: 446:         sec = 60;
  7226   00005A  0E3C               	movlw	60
  7227   00005C  6E5E               	movwf	_sec^0,c
  7228   00005E  EF9C  F002         	goto	l428
  7229   000062                     l4140:
  7230                           
  7231                           ;car_black_box.c: 447:         return;
  7232   000062  EF9C  F002         	goto	l428
  7233   000066                     l4142:
  7234                           
  7235                           ;car_black_box.c: 450:     if (ind < 4 && new_password == 0 && confirm_password == 0) {
  7236   000066  0E04               	movlw	4
  7237   000068  6052               	cpfslt	_ind^0,c
  7238   00006A  EF39  F000         	goto	u3771
  7239   00006E  EF3B  F000         	goto	u3770
  7240   000072                     u3771:
  7241   000072  EF5A  F000         	goto	l4152
  7242   000076                     u3770:
  7243   000076  5050               	movf	_new_password^0,w,c
  7244   000078  A4D8               	btfss	status,2,c
  7245   00007A  EF41  F000         	goto	u3781
  7246   00007E  EF43  F000         	goto	u3780
  7247   000082                     u3781:
  7248   000082  EF5A  F000         	goto	l4152
  7249   000086                     u3780:
  7250   000086  504F               	movf	_confirm_password^0,w,c
  7251   000088  A4D8               	btfss	status,2,c
  7252   00008A  EF49  F000         	goto	u3791
  7253   00008E  EF4B  F000         	goto	u3790
  7254   000092                     u3791:
  7255   000092  EF5A  F000         	goto	l4152
  7256   000096                     u3790:
  7257   000096                     
  7258                           ;car_black_box.c: 451:         store_password(key, input_pass);
  7259   000096  0E8B               	movlw	low _input_pass
  7260   000098  6E11               	movwf	store_password@pass^0,c
  7261   00009A  0E00               	movlw	high _input_pass
  7262   00009C  6E12               	movwf	(store_password@pass+1)^0,c
  7263   00009E  5018               	movf	change_password@key^0,w,c
  7264   0000A0  EC8C  F00F         	call	_store_password
  7265   0000A4                     
  7266                           ;car_black_box.c: 452:         clcd_print("Current Password", (0x80 + (0)));
  7267   0000A4  0E36               	movlw	low STR_76
  7268   0000A6  6E03               	movwf	clcd_print@data^0,c
  7269   0000A8  0E2F               	movlw	high STR_76
  7270   0000AA  6E04               	movwf	(clcd_print@data+1)^0,c
  7271   0000AC  0E80               	movlw	128
  7272   0000AE  6E05               	movwf	clcd_print@addr^0,c
  7273   0000B0  ECB4  F012         	call	_clcd_print	;wreg free
  7274   0000B4                     l4152:
  7275                           
  7276                           ;car_black_box.c: 456:     if (ind == 4 && new_password == 0 && confirm_password == 0) {
  7277   0000B4  0E04               	movlw	4
  7278   0000B6  1852               	xorwf	_ind^0,w,c
  7279   0000B8  A4D8               	btfss	status,2,c
  7280   0000BA  EF61  F000         	goto	u3801
  7281   0000BE  EF63  F000         	goto	u3800
  7282   0000C2                     u3801:
  7283   0000C2  EF19  F001         	goto	l4202
  7284   0000C6                     u3800:
  7285   0000C6  5050               	movf	_new_password^0,w,c
  7286   0000C8  A4D8               	btfss	status,2,c
  7287   0000CA  EF69  F000         	goto	u3811
  7288   0000CE  EF6B  F000         	goto	u3810
  7289   0000D2                     u3811:
  7290   0000D2  EF19  F001         	goto	l4202
  7291   0000D6                     u3810:
  7292   0000D6  504F               	movf	_confirm_password^0,w,c
  7293   0000D8  A4D8               	btfss	status,2,c
  7294   0000DA  EF71  F000         	goto	u3821
  7295   0000DE  EF73  F000         	goto	u3820
  7296   0000E2                     u3821:
  7297   0000E2  EF19  F001         	goto	l4202
  7298   0000E6                     u3820:
  7299   0000E6                     
  7300                           ;car_black_box.c: 457:         _delay((unsigned long)((100)*(20000000/4000.0)));
  7301   0000E6  0E03               	movlw	3
  7302   0000E8  6E17               	movwf	(??_change_password+1)^0,c
  7303   0000EA  0E8A               	movlw	138
  7304   0000EC  6E16               	movwf	??_change_password^0,c
  7305   0000EE  0E56               	movlw	86
  7306   0000F0                     u4637:
  7307   0000F0  2EE8               	decfsz	wreg,f,c
  7308   0000F2  D7FE               	bra	u4637
  7309   0000F4  2E16               	decfsz	??_change_password^0,f,c
  7310   0000F6  D7FC               	bra	u4637
  7311   0000F8  2E17               	decfsz	(??_change_password+1)^0,f,c
  7312   0000FA  D7FA               	bra	u4637
  7313   0000FC                     
  7314                           ;car_black_box.c: 458:         for (int j = 0; j < 4; j++) {
  7315   0000FC  0E00               	movlw	0
  7316   0000FE  6E1A               	movwf	(change_password@j+1)^0,c
  7317   000100  0E00               	movlw	0
  7318   000102  6E19               	movwf	change_password@j^0,c
  7319   000104                     l4166:
  7320                           
  7321                           ;car_black_box.c: 459:             if (password[j] == input_pass[j]) {
  7322   000104  0E8B               	movlw	low _input_pass
  7323   000106  2419               	addwf	change_password@j^0,w,c
  7324   000108  6ED9               	movwf	fsr2l,c
  7325   00010A  0E00               	movlw	high _input_pass
  7326   00010C  201A               	addwfc	(change_password@j+1)^0,w,c
  7327   00010E  6EDA               	movwf	fsr2h,c
  7328   000110  0EB3               	movlw	low _password
  7329   000112  2419               	addwf	change_password@j^0,w,c
  7330   000114  6EE1               	movwf	fsr1l,c
  7331   000116  0E00               	movlw	high _password
  7332   000118  201A               	addwfc	(change_password@j+1)^0,w,c
  7333   00011A  6EE2               	movwf	fsr1h,c
  7334   00011C  50DE               	movf	postinc2,w,c
  7335   00011E  18E6               	xorwf	postinc1,w,c
  7336   000120  A4D8               	btfss	status,2,c
  7337   000122  EF95  F000         	goto	u3831
  7338   000126  EF97  F000         	goto	u3830
  7339   00012A                     u3831:
  7340   00012A  EF98  F000         	goto	l433
  7341   00012E                     u3830:
  7342   00012E                     
  7343                           ;car_black_box.c: 460:                 count++;
  7344   00012E  2A51               	incf	_count^0,f,c
  7345   000130                     l433:
  7346                           
  7347                           ;car_black_box.c: 462:         }
  7348   000130  4A19               	infsnz	change_password@j^0,f,c
  7349   000132  2A1A               	incf	(change_password@j+1)^0,f,c
  7350   000134  BE1A               	btfsc	(change_password@j+1)^0,7,c
  7351   000136  EFA6  F000         	goto	u3841
  7352   00013A  501A               	movf	(change_password@j+1)^0,w,c
  7353   00013C  E109               	bnz	u3840
  7354   00013E  0E04               	movlw	4
  7355   000140  5C19               	subwf	change_password@j^0,w,c
  7356   000142  A0D8               	btfss	status,0,c
  7357   000144  EFA6  F000         	goto	u3841
  7358   000148  EFA8  F000         	goto	u3840
  7359   00014C                     u3841:
  7360   00014C  EF82  F000         	goto	l4166
  7361   000150                     u3840:
  7362   000150                     
  7363                           ;car_black_box.c: 464:         if (count == 4) {
  7364   000150  0E04               	movlw	4
  7365   000152  1851               	xorwf	_count^0,w,c
  7366   000154  A4D8               	btfss	status,2,c
  7367   000156  EFAF  F000         	goto	u3851
  7368   00015A  EFB1  F000         	goto	u3850
  7369   00015E                     u3851:
  7370   00015E  EFDE  F000         	goto	l4186
  7371   000162                     u3850:
  7372   000162                     
  7373                           ;car_black_box.c: 465:             clcd_print("Password Matched", (0x80 + (0)));
  7374   000162  0E14               	movlw	low STR_77
  7375   000164  6E03               	movwf	clcd_print@data^0,c
  7376   000166  0E2F               	movlw	high STR_77
  7377   000168  6E04               	movwf	(clcd_print@data+1)^0,c
  7378   00016A  0E80               	movlw	128
  7379   00016C  6E05               	movwf	clcd_print@addr^0,c
  7380   00016E  ECB4  F012         	call	_clcd_print	;wreg free
  7381                           
  7382                           ;car_black_box.c: 466:             clcd_print("                ", (0xC0 + (0)));
  7383   000172  0E58               	movlw	low STR_19
  7384   000174  6E03               	movwf	clcd_print@data^0,c
  7385   000176  0E2F               	movlw	high STR_19
  7386   000178  6E04               	movwf	(clcd_print@data+1)^0,c
  7387   00017A  0EC0               	movlw	192
  7388   00017C  6E05               	movwf	clcd_print@addr^0,c
  7389   00017E  ECB4  F012         	call	_clcd_print	;wreg free
  7390   000182                     
  7391                           ;car_black_box.c: 467:             _delay((unsigned long)((1000)*(20000000/4000.0)));
  7392   000182  0E1A               	movlw	26
  7393   000184  6E17               	movwf	(??_change_password+1)^0,c
  7394   000186  0E5E               	movlw	94
  7395   000188  6E16               	movwf	??_change_password^0,c
  7396   00018A  0E6E               	movlw	110
  7397   00018C                     u4647:
  7398   00018C  2EE8               	decfsz	wreg,f,c
  7399   00018E  D7FE               	bra	u4647
  7400   000190  2E16               	decfsz	??_change_password^0,f,c
  7401   000192  D7FC               	bra	u4647
  7402   000194  2E17               	decfsz	(??_change_password+1)^0,f,c
  7403   000196  D7FA               	bra	u4647
  7404   000198  D000               	nop2	
  7405   00019A                     
  7406                           ;car_black_box.c: 468:             count = ind = wait = key = 0;
  7407   00019A  0E00               	movlw	0
  7408   00019C  6E18               	movwf	change_password@key^0,c
  7409   00019E  C018  F043         	movff	change_password@key,_wait
  7410   0001A2  6A44               	clrf	(_wait+1)^0,c
  7411   0001A4  C043  F052         	movff	_wait,_ind
  7412   0001A8  C052  F051         	movff	_ind,_count
  7413   0001AC                     
  7414                           ;car_black_box.c: 469:             sec = 60;
  7415   0001AC  0E3C               	movlw	60
  7416   0001AE  6E5E               	movwf	_sec^0,c
  7417   0001B0                     
  7418                           ;car_black_box.c: 470:             new_password = 1;
  7419   0001B0  0E01               	movlw	1
  7420   0001B2  6E50               	movwf	_new_password^0,c
  7421   0001B4                     
  7422                           ;car_black_box.c: 471:             attempt = 3;
  7423   0001B4  0E03               	movlw	3
  7424   0001B6  6E5C               	movwf	_attempt^0,c
  7425                           
  7426                           ;car_black_box.c: 472:         } else if (count < 4) {
  7427   0001B8  EF19  F001         	goto	l4202
  7428   0001BC                     l4186:
  7429   0001BC  0E04               	movlw	4
  7430   0001BE  6051               	cpfslt	_count^0,c
  7431   0001C0  EFE4  F000         	goto	u3861
  7432   0001C4  EFE6  F000         	goto	u3860
  7433   0001C8                     u3861:
  7434   0001C8  EF19  F001         	goto	l4202
  7435   0001CC                     u3860:
  7436   0001CC                     
  7437                           ;car_black_box.c: 473:             count = ind = wait = 0;
  7438   0001CC  0E00               	movlw	0
  7439   0001CE  6E44               	movwf	(_wait+1)^0,c
  7440   0001D0  0E00               	movlw	0
  7441   0001D2  6E43               	movwf	_wait^0,c
  7442   0001D4  C043  F052         	movff	_wait,_ind
  7443   0001D8  C052  F051         	movff	_ind,_count
  7444   0001DC                     
  7445                           ;car_black_box.c: 474:             attempt--;
  7446   0001DC  065C               	decf	_attempt^0,f,c
  7447   0001DE                     
  7448                           ;car_black_box.c: 476:             clcd_print(" Wrong Password ", (0x80 + (0)));
  7449   0001DE  0EE1               	movlw	low STR_47
  7450   0001E0  6E03               	movwf	clcd_print@data^0,c
  7451   0001E2  0E2E               	movlw	high STR_47
  7452   0001E4  6E04               	movwf	(clcd_print@data+1)^0,c
  7453   0001E6  0E80               	movlw	128
  7454   0001E8  6E05               	movwf	clcd_print@addr^0,c
  7455   0001EA  ECB4  F012         	call	_clcd_print	;wreg free
  7456   0001EE                     
  7457                           ;car_black_box.c: 477:             clcd_putch(attempt + 48, (0xC0 + (1)));
  7458   0001EE  0EC1               	movlw	193
  7459   0001F0  6E0F               	movwf	clcd_putch@addr^0,c
  7460   0001F2  505C               	movf	_attempt^0,w,c
  7461   0001F4  0F30               	addlw	48
  7462   0001F6  ECE9  F014         	call	_clcd_putch
  7463   0001FA                     
  7464                           ;car_black_box.c: 478:             clcd_print(" -> attempts  ", (0xC0 + (2)));
  7465   0001FA  0E69               	movlw	low STR_48
  7466   0001FC  6E03               	movwf	clcd_print@data^0,c
  7467   0001FE  0E2F               	movlw	high STR_48
  7468   000200  6E04               	movwf	(clcd_print@data+1)^0,c
  7469   000202  0EC2               	movlw	194
  7470   000204  6E05               	movwf	clcd_print@addr^0,c
  7471   000206  ECB4  F012         	call	_clcd_print	;wreg free
  7472   00020A                     
  7473                           ;car_black_box.c: 479:             _delay((unsigned long)((1000)*(20000000/4000.0)));
  7474   00020A  0E1A               	movlw	26
  7475   00020C  6E17               	movwf	(??_change_password+1)^0,c
  7476   00020E  0E5E               	movlw	94
  7477   000210  6E16               	movwf	??_change_password^0,c
  7478   000212  0E6E               	movlw	110
  7479   000214                     u4657:
  7480   000214  2EE8               	decfsz	wreg,f,c
  7481   000216  D7FE               	bra	u4657
  7482   000218  2E16               	decfsz	??_change_password^0,f,c
  7483   00021A  D7FC               	bra	u4657
  7484   00021C  2E17               	decfsz	(??_change_password+1)^0,f,c
  7485   00021E  D7FA               	bra	u4657
  7486   000220  D000               	nop2	
  7487   000222                     
  7488                           ;car_black_box.c: 480:             clcd_print("                ", (0xC0 + (0)));
  7489   000222  0E58               	movlw	low STR_19
  7490   000224  6E03               	movwf	clcd_print@data^0,c
  7491   000226  0E2F               	movlw	high STR_19
  7492   000228  6E04               	movwf	(clcd_print@data+1)^0,c
  7493   00022A  0EC0               	movlw	192
  7494   00022C  6E05               	movwf	clcd_print@addr^0,c
  7495   00022E  ECB4  F012         	call	_clcd_print	;wreg free
  7496   000232                     l4202:
  7497                           
  7498                           ;car_black_box.c: 483:     if (attempt == 0) {
  7499   000232  505C               	movf	_attempt^0,w,c
  7500   000234  A4D8               	btfss	status,2,c
  7501   000236  EF1F  F001         	goto	u3871
  7502   00023A  EF21  F001         	goto	u3870
  7503   00023E                     u3871:
  7504   00023E  EF37  F001         	goto	l4216
  7505   000242                     u3870:
  7506   000242                     
  7507                           ;car_black_box.c: 484:         clcd_print(" Attempts over  ", (0xC0 + (0)));
  7508   000242  0E9D               	movlw	low STR_50
  7509   000244  6E03               	movwf	clcd_print@data^0,c
  7510   000246  0E2E               	movlw	high STR_50
  7511   000248  6E04               	movwf	(clcd_print@data+1)^0,c
  7512   00024A  0EC0               	movlw	192
  7513   00024C  6E05               	movwf	clcd_print@addr^0,c
  7514   00024E  ECB4  F012         	call	_clcd_print	;wreg free
  7515   000252                     
  7516                           ;car_black_box.c: 485:         _delay((unsigned long)((1000)*(20000000/4000.0)));
  7517   000252  0E1A               	movlw	26
  7518   000254  6E17               	movwf	(??_change_password+1)^0,c
  7519   000256  0E5E               	movlw	94
  7520   000258  6E16               	movwf	??_change_password^0,c
  7521   00025A  0E6E               	movlw	110
  7522   00025C                     u4667:
  7523   00025C  2EE8               	decfsz	wreg,f,c
  7524   00025E  D7FE               	bra	u4667
  7525   000260  2E16               	decfsz	??_change_password^0,f,c
  7526   000262  D7FC               	bra	u4667
  7527   000264  2E17               	decfsz	(??_change_password+1)^0,f,c
  7528   000266  D7FA               	bra	u4667
  7529   000268  D000               	nop2	
  7530   00026A  EF23  F000         	goto	l4134
  7531   00026E                     l4216:
  7532                           
  7533                           ;car_black_box.c: 492:     if (new_password == 1) {
  7534   00026E  0450               	decf	_new_password^0,w,c
  7535   000270  A4D8               	btfss	status,2,c
  7536   000272  EF3D  F001         	goto	u3881
  7537   000276  EF3F  F001         	goto	u3880
  7538   00027A                     u3881:
  7539   00027A  EF73  F001         	goto	l4232
  7540   00027E                     u3880:
  7541   00027E                     
  7542                           ;car_black_box.c: 493:         clcd_print("  New Password  ", (0x80 + (0)));
  7543   00027E  0E8C               	movlw	low STR_83
  7544   000280  6E03               	movwf	clcd_print@data^0,c
  7545   000282  0E2E               	movlw	high STR_83
  7546   000284  6E04               	movwf	(clcd_print@data+1)^0,c
  7547   000286  0E80               	movlw	128
  7548   000288  6E05               	movwf	clcd_print@addr^0,c
  7549   00028A  ECB4  F012         	call	_clcd_print	;wreg free
  7550   00028E                     
  7551                           ;car_black_box.c: 494:         if (ind < 4) {
  7552   00028E  0E04               	movlw	4
  7553   000290  6052               	cpfslt	_ind^0,c
  7554   000292  EF4D  F001         	goto	u3891
  7555   000296  EF4F  F001         	goto	u3890
  7556   00029A                     u3891:
  7557   00029A  EF58  F001         	goto	l4224
  7558   00029E                     u3890:
  7559   00029E                     
  7560                           ;car_black_box.c: 495:             store_password(key, password);
  7561   00029E  0EB3               	movlw	low _password
  7562   0002A0  6E11               	movwf	store_password@pass^0,c
  7563   0002A2  0E00               	movlw	high _password
  7564   0002A4  6E12               	movwf	(store_password@pass+1)^0,c
  7565   0002A6  5018               	movf	change_password@key^0,w,c
  7566   0002A8  EC8C  F00F         	call	_store_password
  7567                           
  7568                           ;car_black_box.c: 496:         } else {
  7569   0002AC  EF73  F001         	goto	l4232
  7570   0002B0                     l4224:
  7571                           
  7572                           ;car_black_box.c: 497:             _delay((unsigned long)((100)*(20000000/4000.0)));
  7573   0002B0  0E03               	movlw	3
  7574   0002B2  6E17               	movwf	(??_change_password+1)^0,c
  7575   0002B4  0E8A               	movlw	138
  7576   0002B6  6E16               	movwf	??_change_password^0,c
  7577   0002B8  0E56               	movlw	86
  7578   0002BA                     u4677:
  7579   0002BA  2EE8               	decfsz	wreg,f,c
  7580   0002BC  D7FE               	bra	u4677
  7581   0002BE  2E16               	decfsz	??_change_password^0,f,c
  7582   0002C0  D7FC               	bra	u4677
  7583   0002C2  2E17               	decfsz	(??_change_password+1)^0,f,c
  7584   0002C4  D7FA               	bra	u4677
  7585   0002C6                     
  7586                           ;car_black_box.c: 498:             new_password = ind = key = 0;
  7587   0002C6  0E00               	movlw	0
  7588   0002C8  6E18               	movwf	change_password@key^0,c
  7589   0002CA  C018  F052         	movff	change_password@key,_ind
  7590   0002CE  C052  F050         	movff	_ind,_new_password
  7591   0002D2                     
  7592                           ;car_black_box.c: 499:             confirm_password = 1;
  7593   0002D2  0E01               	movlw	1
  7594   0002D4  6E4F               	movwf	_confirm_password^0,c
  7595   0002D6                     
  7596                           ;car_black_box.c: 500:             clcd_print("                ", (0xC0 + (0)));
  7597   0002D6  0E58               	movlw	low STR_19
  7598   0002D8  6E03               	movwf	clcd_print@data^0,c
  7599   0002DA  0E2F               	movlw	high STR_19
  7600   0002DC  6E04               	movwf	(clcd_print@data+1)^0,c
  7601   0002DE  0EC0               	movlw	192
  7602   0002E0  6E05               	movwf	clcd_print@addr^0,c
  7603   0002E2  ECB4  F012         	call	_clcd_print	;wreg free
  7604   0002E6                     l4232:
  7605                           
  7606                           ;car_black_box.c: 504:     if (confirm_password == 1) {
  7607   0002E6  044F               	decf	_confirm_password^0,w,c
  7608   0002E8  A4D8               	btfss	status,2,c
  7609   0002EA  EF79  F001         	goto	u3901
  7610   0002EE  EF7B  F001         	goto	u3900
  7611   0002F2                     u3901:
  7612   0002F2  EF9C  F002         	goto	l428
  7613   0002F6                     u3900:
  7614   0002F6                     
  7615                           ;car_black_box.c: 505:         clcd_print("Confirm Password", (0x80 + (0)));
  7616   0002F6  0E25               	movlw	low STR_85
  7617   0002F8  6E03               	movwf	clcd_print@data^0,c
  7618   0002FA  0E2F               	movlw	high STR_85
  7619   0002FC  6E04               	movwf	(clcd_print@data+1)^0,c
  7620   0002FE  0E80               	movlw	128
  7621   000300  6E05               	movwf	clcd_print@addr^0,c
  7622   000302  ECB4  F012         	call	_clcd_print	;wreg free
  7623   000306                     
  7624                           ;car_black_box.c: 506:         if (ind < 4)
  7625   000306  0E04               	movlw	4
  7626   000308  6052               	cpfslt	_ind^0,c
  7627   00030A  EF89  F001         	goto	u3911
  7628   00030E  EF8B  F001         	goto	u3910
  7629   000312                     u3911:
  7630   000312  EF92  F001         	goto	l4240
  7631   000316                     u3910:
  7632   000316                     
  7633                           ;car_black_box.c: 507:             store_password(key, input_pass);
  7634   000316  0E8B               	movlw	low _input_pass
  7635   000318  6E11               	movwf	store_password@pass^0,c
  7636   00031A  0E00               	movlw	high _input_pass
  7637   00031C  6E12               	movwf	(store_password@pass+1)^0,c
  7638   00031E  5018               	movf	change_password@key^0,w,c
  7639   000320  EC8C  F00F         	call	_store_password
  7640   000324                     l4240:
  7641                           
  7642                           ;car_black_box.c: 509:         if (ind == 4) {
  7643   000324  0E04               	movlw	4
  7644   000326  1852               	xorwf	_ind^0,w,c
  7645   000328  A4D8               	btfss	status,2,c
  7646   00032A  EF99  F001         	goto	u3921
  7647   00032E  EF9B  F001         	goto	u3920
  7648   000332                     u3921:
  7649   000332  EF9C  F002         	goto	l428
  7650   000336                     u3920:
  7651   000336                     
  7652                           ;car_black_box.c: 510:             _delay((unsigned long)((100)*(20000000/4000.0)));
  7653   000336  0E03               	movlw	3
  7654   000338  6E17               	movwf	(??_change_password+1)^0,c
  7655   00033A  0E8A               	movlw	138
  7656   00033C  6E16               	movwf	??_change_password^0,c
  7657   00033E  0E56               	movlw	86
  7658   000340                     u4687:
  7659   000340  2EE8               	decfsz	wreg,f,c
  7660   000342  D7FE               	bra	u4687
  7661   000344  2E16               	decfsz	??_change_password^0,f,c
  7662   000346  D7FC               	bra	u4687
  7663   000348  2E17               	decfsz	(??_change_password+1)^0,f,c
  7664   00034A  D7FA               	bra	u4687
  7665   00034C                     
  7666                           ;car_black_box.c: 512:             for (int j = 0; j < 4; j++) {
  7667   00034C  0E00               	movlw	0
  7668   00034E  6E1C               	movwf	(change_password@j_380+1)^0,c
  7669   000350  0E00               	movlw	0
  7670   000352  6E1B               	movwf	change_password@j_380^0,c
  7671   000354                     l4250:
  7672                           
  7673                           ;car_black_box.c: 513:                 if (password[j] == input_pass[j]) {
  7674   000354  0E8B               	movlw	low _input_pass
  7675   000356  241B               	addwf	change_password@j_380^0,w,c
  7676   000358  6ED9               	movwf	fsr2l,c
  7677   00035A  0E00               	movlw	high _input_pass
  7678   00035C  201C               	addwfc	(change_password@j_380+1)^0,w,c
  7679   00035E  6EDA               	movwf	fsr2h,c
  7680   000360  0EB3               	movlw	low _password
  7681   000362  241B               	addwf	change_password@j_380^0,w,c
  7682   000364  6EE1               	movwf	fsr1l,c
  7683   000366  0E00               	movlw	high _password
  7684   000368  201C               	addwfc	(change_password@j_380+1)^0,w,c
  7685   00036A  6EE2               	movwf	fsr1h,c
  7686   00036C  50DE               	movf	postinc2,w,c
  7687   00036E  18E6               	xorwf	postinc1,w,c
  7688   000370  A4D8               	btfss	status,2,c
  7689   000372  EFBD  F001         	goto	u3931
  7690   000376  EFBF  F001         	goto	u3930
  7691   00037A                     u3931:
  7692   00037A  EFC0  F001         	goto	l446
  7693   00037E                     u3930:
  7694   00037E                     
  7695                           ;car_black_box.c: 514:                     count++;
  7696   00037E  2A51               	incf	_count^0,f,c
  7697   000380                     l446:
  7698                           
  7699                           ;car_black_box.c: 516:             }
  7700   000380  4A1B               	infsnz	change_password@j_380^0,f,c
  7701   000382  2A1C               	incf	(change_password@j_380+1)^0,f,c
  7702   000384  BE1C               	btfsc	(change_password@j_380+1)^0,7,c
  7703   000386  EFCE  F001         	goto	u3941
  7704   00038A  501C               	movf	(change_password@j_380+1)^0,w,c
  7705   00038C  E109               	bnz	u3940
  7706   00038E  0E04               	movlw	4
  7707   000390  5C1B               	subwf	change_password@j_380^0,w,c
  7708   000392  A0D8               	btfss	status,0,c
  7709   000394  EFCE  F001         	goto	u3941
  7710   000398  EFD0  F001         	goto	u3940
  7711   00039C                     u3941:
  7712   00039C  EFAA  F001         	goto	l4250
  7713   0003A0                     u3940:
  7714   0003A0                     
  7715                           ;car_black_box.c: 518:             if (count == 4) {
  7716   0003A0  0E04               	movlw	4
  7717   0003A2  1851               	xorwf	_count^0,w,c
  7718   0003A4  A4D8               	btfss	status,2,c
  7719   0003A6  EFD7  F001         	goto	u3951
  7720   0003AA  EFD9  F001         	goto	u3950
  7721   0003AE                     u3951:
  7722   0003AE  EF4A  F002         	goto	l4296
  7723   0003B2                     u3950:
  7724   0003B2                     
  7725                           ;car_black_box.c: 519:                 clcd_print("Password Matched", (0x80 + (0)));
  7726   0003B2  0E14               	movlw	low STR_77
  7727   0003B4  6E03               	movwf	clcd_print@data^0,c
  7728   0003B6  0E2F               	movlw	high STR_77
  7729   0003B8  6E04               	movwf	(clcd_print@data+1)^0,c
  7730   0003BA  0E80               	movlw	128
  7731   0003BC  6E05               	movwf	clcd_print@addr^0,c
  7732   0003BE  ECB4  F012         	call	_clcd_print	;wreg free
  7733                           
  7734                           ;car_black_box.c: 520:                 clcd_print("                ", (0xC0 + (0)));
  7735   0003C2  0E58               	movlw	low STR_19
  7736   0003C4  6E03               	movwf	clcd_print@data^0,c
  7737   0003C6  0E2F               	movlw	high STR_19
  7738   0003C8  6E04               	movwf	(clcd_print@data+1)^0,c
  7739   0003CA  0EC0               	movlw	192
  7740   0003CC  6E05               	movwf	clcd_print@addr^0,c
  7741   0003CE  ECB4  F012         	call	_clcd_print	;wreg free
  7742   0003D2                     
  7743                           ;car_black_box.c: 521:                 _delay((unsigned long)((1000)*(20000000/4000.0)))
      +                          ;
  7744   0003D2  0E1A               	movlw	26
  7745   0003D4  6E17               	movwf	(??_change_password+1)^0,c
  7746   0003D6  0E5E               	movlw	94
  7747   0003D8  6E16               	movwf	??_change_password^0,c
  7748   0003DA  0E6E               	movlw	110
  7749   0003DC                     u4697:
  7750   0003DC  2EE8               	decfsz	wreg,f,c
  7751   0003DE  D7FE               	bra	u4697
  7752   0003E0  2E16               	decfsz	??_change_password^0,f,c
  7753   0003E2  D7FC               	bra	u4697
  7754   0003E4  2E17               	decfsz	(??_change_password+1)^0,f,c
  7755   0003E6  D7FA               	bra	u4697
  7756   0003E8  D000               	nop2	
  7757   0003EA                     
  7758                           ;car_black_box.c: 522:                 clcd_print("Password changed", (0x80 + (0)));
  7759   0003EA  0E03               	movlw	low STR_88
  7760   0003EC  6E03               	movwf	clcd_print@data^0,c
  7761   0003EE  0E2F               	movlw	high STR_88
  7762   0003F0  6E04               	movwf	(clcd_print@data+1)^0,c
  7763   0003F2  0E80               	movlw	128
  7764   0003F4  6E05               	movwf	clcd_print@addr^0,c
  7765   0003F6  ECB4  F012         	call	_clcd_print	;wreg free
  7766   0003FA                     
  7767                           ;car_black_box.c: 523:                 clcd_print("  Successfully  ", (0xC0 + (0)));
  7768   0003FA  0EBF               	movlw	low STR_89
  7769   0003FC  6E03               	movwf	clcd_print@data^0,c
  7770   0003FE  0E2E               	movlw	high STR_89
  7771   000400  6E04               	movwf	(clcd_print@data+1)^0,c
  7772   000402  0EC0               	movlw	192
  7773   000404  6E05               	movwf	clcd_print@addr^0,c
  7774   000406  ECB4  F012         	call	_clcd_print	;wreg free
  7775   00040A                     
  7776                           ;car_black_box.c: 525:                 for (unsigned char i = 0; i < 4; i++) {
  7777   00040A  0E00               	movlw	0
  7778   00040C  6E1D               	movwf	change_password@i^0,c
  7779   00040E                     l4272:
  7780                           
  7781                           ;car_black_box.c: 526:                     write_ext_eeprom(0xAA + i, password[i]);
  7782   00040E  0EB3               	movlw	low _password
  7783   000410  241D               	addwf	change_password@i^0,w,c
  7784   000412  6ED9               	movwf	fsr2l,c
  7785   000414  6ADA               	clrf	fsr2h,c
  7786   000416  0E00               	movlw	high _password
  7787   000418  22DA               	addwfc	fsr2h,f,c
  7788   00041A  50DF               	movf	indf2,w,c
  7789   00041C  6E02               	movwf	write_ext_eeprom@data^0,c
  7790   00041E  501D               	movf	change_password@i^0,w,c
  7791   000420  0FAA               	addlw	170
  7792   000422  EC3D  F014         	call	_write_ext_eeprom
  7793   000426                     
  7794                           ;car_black_box.c: 527:                 }
  7795   000426  2A1D               	incf	change_password@i^0,f,c
  7796   000428  0E03               	movlw	3
  7797   00042A  641D               	cpfsgt	change_password@i^0,c
  7798   00042C  EF1A  F002         	goto	u3961
  7799   000430  EF1C  F002         	goto	u3960
  7800   000434                     u3961:
  7801   000434  EF07  F002         	goto	l4272
  7802   000438                     u3960:
  7803   000438                     
  7804                           ;car_black_box.c: 529:                 _delay((unsigned long)((1000)*(20000000/4000.0)))
      +                          ;
  7805   000438  0E1A               	movlw	26
  7806   00043A  6E17               	movwf	(??_change_password+1)^0,c
  7807   00043C  0E5E               	movlw	94
  7808   00043E  6E16               	movwf	??_change_password^0,c
  7809   000440  0E6E               	movlw	110
  7810   000442                     u4707:
  7811   000442  2EE8               	decfsz	wreg,f,c
  7812   000444  D7FE               	bra	u4707
  7813   000446  2E16               	decfsz	??_change_password^0,f,c
  7814   000448  D7FC               	bra	u4707
  7815   00044A  2E17               	decfsz	(??_change_password+1)^0,f,c
  7816   00044C  D7FA               	bra	u4707
  7817   00044E  D000               	nop2	
  7818   000450                     
  7819                           ;car_black_box.c: 530:                 clcd_print("                ", (0x80 + (0)));
  7820   000450  0E58               	movlw	low STR_19
  7821   000452  6E03               	movwf	clcd_print@data^0,c
  7822   000454  0E2F               	movlw	high STR_19
  7823   000456  6E04               	movwf	(clcd_print@data+1)^0,c
  7824   000458  0E80               	movlw	128
  7825   00045A  6E05               	movwf	clcd_print@addr^0,c
  7826   00045C  ECB4  F012         	call	_clcd_print	;wreg free
  7827   000460                     
  7828                           ;car_black_box.c: 531:                 clcd_print("                ", (0xC0 + (0)));
  7829   000460  0E58               	movlw	low STR_19
  7830   000462  6E03               	movwf	clcd_print@data^0,c
  7831   000464  0E2F               	movlw	high STR_19
  7832   000466  6E04               	movwf	(clcd_print@data+1)^0,c
  7833   000468  0EC0               	movlw	192
  7834   00046A  6E05               	movwf	clcd_print@addr^0,c
  7835   00046C  ECB4  F012         	call	_clcd_print	;wreg free
  7836   000470                     l4284:
  7837                           
  7838                           ;car_black_box.c: 532:                 count = ind = new_password = confirm_password = m
      +                          ode = wait = 0;
  7839   000470  0E00               	movlw	0
  7840   000472  6E44               	movwf	(_wait+1)^0,c
  7841   000474  0E00               	movlw	0
  7842   000476  6E43               	movwf	_wait^0,c
  7843   000478  C043  F049         	movff	_wait,_mode
  7844   00047C  C049  F04F         	movff	_mode,_confirm_password
  7845   000480  C04F  F050         	movff	_confirm_password,_new_password
  7846   000484  C050  F052         	movff	_new_password,_ind
  7847   000488  C052  F051         	movff	_ind,_count
  7848   00048C                     
  7849                           ;car_black_box.c: 533:                 attempt = 3;
  7850   00048C  0E03               	movlw	3
  7851   00048E  6E5C               	movwf	_attempt^0,c
  7852   000490  EF2B  F000         	goto	l4136
  7853   000494                     l4296:
  7854   000494  0E04               	movlw	4
  7855   000496  6051               	cpfslt	_count^0,c
  7856   000498  EF50  F002         	goto	u3971
  7857   00049C  EF52  F002         	goto	u3970
  7858   0004A0                     u3971:
  7859   0004A0  EF31  F000         	goto	l4140
  7860   0004A4                     u3970:
  7861   0004A4                     
  7862                           ;car_black_box.c: 538:                 clcd_print(" Wrong Password ", (0x80 + (0)));
  7863   0004A4  0EE1               	movlw	low STR_47
  7864   0004A6  6E03               	movwf	clcd_print@data^0,c
  7865   0004A8  0E2E               	movlw	high STR_47
  7866   0004AA  6E04               	movwf	(clcd_print@data+1)^0,c
  7867   0004AC  0E80               	movlw	128
  7868   0004AE  6E05               	movwf	clcd_print@addr^0,c
  7869   0004B0  ECB4  F012         	call	_clcd_print	;wreg free
  7870                           
  7871                           ;car_black_box.c: 539:                 clcd_print("                ", (0xC0 + (0)));
  7872   0004B4  0E58               	movlw	low STR_19
  7873   0004B6  6E03               	movwf	clcd_print@data^0,c
  7874   0004B8  0E2F               	movlw	high STR_19
  7875   0004BA  6E04               	movwf	(clcd_print@data+1)^0,c
  7876   0004BC  0EC0               	movlw	192
  7877   0004BE  6E05               	movwf	clcd_print@addr^0,c
  7878   0004C0  ECB4  F012         	call	_clcd_print	;wreg free
  7879   0004C4                     
  7880                           ;car_black_box.c: 540:                 _delay((unsigned long)((1000)*(20000000/4000.0)))
      +                          ;
  7881   0004C4  0E1A               	movlw	26
  7882   0004C6  6E17               	movwf	(??_change_password+1)^0,c
  7883   0004C8  0E5E               	movlw	94
  7884   0004CA  6E16               	movwf	??_change_password^0,c
  7885   0004CC  0E6E               	movlw	110
  7886   0004CE                     u4717:
  7887   0004CE  2EE8               	decfsz	wreg,f,c
  7888   0004D0  D7FE               	bra	u4717
  7889   0004D2  2E16               	decfsz	??_change_password^0,f,c
  7890   0004D4  D7FC               	bra	u4717
  7891   0004D6  2E17               	decfsz	(??_change_password+1)^0,f,c
  7892   0004D8  D7FA               	bra	u4717
  7893   0004DA  D000               	nop2	
  7894   0004DC                     
  7895                           ;car_black_box.c: 541:                 clcd_print("  Password Not  ", (0x80 + (0)));
  7896   0004DC  0EAE               	movlw	low STR_94
  7897   0004DE  6E03               	movwf	clcd_print@data^0,c
  7898   0004E0  0E2E               	movlw	high STR_94
  7899   0004E2  6E04               	movwf	(clcd_print@data+1)^0,c
  7900   0004E4  0E80               	movlw	128
  7901   0004E6  6E05               	movwf	clcd_print@addr^0,c
  7902   0004E8  ECB4  F012         	call	_clcd_print	;wreg free
  7903   0004EC                     
  7904                           ;car_black_box.c: 542:                 clcd_print("     Changed    ", (0xC0 + (0)));
  7905   0004EC  0E37               	movlw	low STR_95
  7906   0004EE  6E03               	movwf	clcd_print@data^0,c
  7907   0004F0  0E2E               	movlw	high STR_95
  7908   0004F2  6E04               	movwf	(clcd_print@data+1)^0,c
  7909   0004F4  0EC0               	movlw	192
  7910   0004F6  6E05               	movwf	clcd_print@addr^0,c
  7911   0004F8  ECB4  F012         	call	_clcd_print	;wreg free
  7912   0004FC                     
  7913                           ;car_black_box.c: 543:                 _delay((unsigned long)((1000)*(20000000/4000.0)))
      +                          ;
  7914   0004FC  0E1A               	movlw	26
  7915   0004FE  6E17               	movwf	(??_change_password+1)^0,c
  7916   000500  0E5E               	movlw	94
  7917   000502  6E16               	movwf	??_change_password^0,c
  7918   000504  0E6E               	movlw	110
  7919   000506                     u4727:
  7920   000506  2EE8               	decfsz	wreg,f,c
  7921   000508  D7FE               	bra	u4727
  7922   00050A  2E16               	decfsz	??_change_password^0,f,c
  7923   00050C  D7FC               	bra	u4727
  7924   00050E  2E17               	decfsz	(??_change_password+1)^0,f,c
  7925   000510  D7FA               	bra	u4727
  7926   000512  D000               	nop2	
  7927                           
  7928                           ;car_black_box.c: 544:                 clcd_print("                ", (0x80 + (0)));
  7929   000514  0E58               	movlw	low STR_19
  7930   000516  6E03               	movwf	clcd_print@data^0,c
  7931   000518  0E2F               	movlw	high STR_19
  7932   00051A  6E04               	movwf	(clcd_print@data+1)^0,c
  7933   00051C  0E80               	movlw	128
  7934   00051E  6E05               	movwf	clcd_print@addr^0,c
  7935   000520  ECB4  F012         	call	_clcd_print	;wreg free
  7936                           
  7937                           ;car_black_box.c: 545:                 clcd_print("                ", (0xC0 + (0)));
  7938   000524  0E58               	movlw	low STR_19
  7939   000526  6E03               	movwf	clcd_print@data^0,c
  7940   000528  0E2F               	movlw	high STR_19
  7941   00052A  6E04               	movwf	(clcd_print@data+1)^0,c
  7942   00052C  0EC0               	movlw	192
  7943   00052E  6E05               	movwf	clcd_print@addr^0,c
  7944   000530  ECB4  F012         	call	_clcd_print	;wreg free
  7945   000534  EF38  F002         	goto	l4284
  7946   000538                     l428:
  7947   000538  0012               	return		;funcret
  7948   00053A                     __end_of_change_password:
  7949                           	callstack 0
  7950                           
  7951 ;; *************** function _write_ext_eeprom *****************
  7952 ;; Defined at:
  7953 ;;		line 22 in file "eeprom.c"
  7954 ;; Parameters:    Size  Location     Type
  7955 ;;  address         1    wreg     unsigned char 
  7956 ;;  data            1    1[COMRAM] unsigned char 
  7957 ;; Auto vars:     Size  Location     Type
  7958 ;;  address         1    3[COMRAM] unsigned char 
  7959 ;; Return value:  Size  Location     Type
  7960 ;;                  1    wreg      void 
  7961 ;; Registers used:
  7962 ;;		wreg, status,2, cstack
  7963 ;; Tracked objects:
  7964 ;;		On entry : 0/0
  7965 ;;		On exit  : 0/0
  7966 ;;		Unchanged: 0/0
  7967 ;; Data sizes:     COMRAM   BANK0   BANK1   BANK2   BANK3   BANK4   BANK5
  7968 ;;      Params:         1       0       0       0       0       0       0
  7969 ;;      Locals:         1       0       0       0       0       0       0
  7970 ;;      Temps:          1       0       0       0       0       0       0
  7971 ;;      Totals:         3       0       0       0       0       0       0
  7972 ;;Total ram usage:        3 bytes
  7973 ;; Hardware stack levels used: 1
  7974 ;; Hardware stack levels required when called: 3
  7975 ;; This function calls:
  7976 ;;		_i2c_start
  7977 ;;		_i2c_stop
  7978 ;;		_i2c_write
  7979 ;; This function is called by:
  7980 ;;		_change_password
  7981 ;;		_store_event
  7982 ;; This function uses a non-reentrant model
  7983 ;;
  7984                           
  7985                           	psect	text39
  7986   00287A                     __ptext39:
  7987                           	callstack 0
  7988   00287A                     _write_ext_eeprom:
  7989                           	callstack 26
  7990                           
  7991                           ;incstack = 0
  7992                           ;write_ext_eeprom@address stored from wreg
  7993   00287A  6E04               	movwf	write_ext_eeprom@address^0,c
  7994   00287C                     
  7995                           ;eeprom.c: 23:     i2c_start();
  7996   00287C  EC30  F015         	call	_i2c_start	;wreg free
  7997   002880                     
  7998                           ;eeprom.c: 24:     i2c_write(0xA0);
  7999   002880  0EA0               	movlw	160
  8000   002882  EC1A  F015         	call	_i2c_write
  8001   002886                     
  8002                           ;eeprom.c: 25:     i2c_write(address);
  8003   002886  5004               	movf	write_ext_eeprom@address^0,w,c
  8004   002888  EC1A  F015         	call	_i2c_write
  8005   00288C                     
  8006                           ;eeprom.c: 26:     i2c_write(data);
  8007   00288C  5002               	movf	write_ext_eeprom@data^0,w,c
  8008   00288E  EC1A  F015         	call	_i2c_write
  8009   002892                     
  8010                           ;eeprom.c: 27:     i2c_stop();
  8011   002892  EC2C  F015         	call	_i2c_stop	;wreg free
  8012   002896                     
  8013                           ;eeprom.c: 29:     _delay((unsigned long)((10)*(20000000/4000.0)));
  8014   002896  0E41               	movlw	65
  8015   002898  6E03               	movwf	??_write_ext_eeprom^0,c
  8016   00289A  0EEE               	movlw	238
  8017   00289C                     u4737:
  8018   00289C  2EE8               	decfsz	wreg,f,c
  8019   00289E  D7FE               	bra	u4737
  8020   0028A0  2E03               	decfsz	??_write_ext_eeprom^0,f,c
  8021   0028A2  D7FC               	bra	u4737
  8022   0028A4  D000               	nop2	
  8023   0028A6  0012               	return		;funcret
  8024   0028A8                     __end_of_write_ext_eeprom:
  8025                           	callstack 0
  8026                           
  8027 ;; *************** function _i2c_write *****************
  8028 ;; Defined at:
  8029 ;;		line 63 in file "i2c.c"
  8030 ;; Parameters:    Size  Location     Type
  8031 ;;  data            1    wreg     unsigned char 
  8032 ;; Auto vars:     Size  Location     Type
  8033 ;;  data            1    0[COMRAM] unsigned char 
  8034 ;; Return value:  Size  Location     Type
  8035 ;;                  1    wreg      void 
  8036 ;; Registers used:
  8037 ;;		wreg, cstack
  8038 ;; Tracked objects:
  8039 ;;		On entry : 0/0
  8040 ;;		On exit  : 0/0
  8041 ;;		Unchanged: 0/0
  8042 ;; Data sizes:     COMRAM   BANK0   BANK1   BANK2   BANK3   BANK4   BANK5
  8043 ;;      Params:         0       0       0       0       0       0       0
  8044 ;;      Locals:         1       0       0       0       0       0       0
  8045 ;;      Temps:          0       0       0       0       0       0       0
  8046 ;;      Totals:         1       0       0       0       0       0       0
  8047 ;;Total ram usage:        1 bytes
  8048 ;; Hardware stack levels used: 1
  8049 ;; Hardware stack levels required when called: 2
  8050 ;; This function calls:
  8051 ;;		_i2c_idle
  8052 ;; This function is called by:
  8053 ;;		_write_ds1307
  8054 ;;		_read_ds1307
  8055 ;;		_write_ext_eeprom
  8056 ;;		_read_ext_eeprom
  8057 ;; This function uses a non-reentrant model
  8058 ;;
  8059                           
  8060                           	psect	text40
  8061   002A34                     __ptext40:
  8062                           	callstack 0
  8063   002A34                     _i2c_write:
  8064                           	callstack 25
  8065                           
  8066                           ;incstack = 0
  8067                           ;i2c_write@data stored from wreg
  8068   002A34  6E01               	movwf	i2c_write@data^0,c
  8069   002A36                     
  8070                           ;i2c.c: 63: void i2c_write(unsigned char data);i2c.c: 64: {;i2c.c: 65:  SSPBUF = data;
  8071   002A36  C001  FFC9         	movff	i2c_write@data,4041	;volatile
  8072   002A3A                     
  8073                           ;i2c.c: 66:  i2c_idle();
  8074   002A3A  EC0B  F015         	call	_i2c_idle	;wreg free
  8075   002A3E  0012               	return		;funcret
  8076   002A40                     __end_of_i2c_write:
  8077                           	callstack 0
  8078                           
  8079 ;; *************** function _i2c_stop *****************
  8080 ;; Defined at:
  8081 ;;		line 51 in file "i2c.c"
  8082 ;; Parameters:    Size  Location     Type
  8083 ;;		None
  8084 ;; Auto vars:     Size  Location     Type
  8085 ;;		None
  8086 ;; Return value:  Size  Location     Type
  8087 ;;                  1    wreg      void 
  8088 ;; Registers used:
  8089 ;;		cstack
  8090 ;; Tracked objects:
  8091 ;;		On entry : 0/0
  8092 ;;		On exit  : 0/0
  8093 ;;		Unchanged: 0/0
  8094 ;; Data sizes:     COMRAM   BANK0   BANK1   BANK2   BANK3   BANK4   BANK5
  8095 ;;      Params:         0       0       0       0       0       0       0
  8096 ;;      Locals:         0       0       0       0       0       0       0
  8097 ;;      Temps:          0       0       0       0       0       0       0
  8098 ;;      Totals:         0       0       0       0       0       0       0
  8099 ;;Total ram usage:        0 bytes
  8100 ;; Hardware stack levels used: 1
  8101 ;; Hardware stack levels required when called: 2
  8102 ;; This function calls:
  8103 ;;		_i2c_idle
  8104 ;; This function is called by:
  8105 ;;		_write_ds1307
  8106 ;;		_read_ds1307
  8107 ;;		_write_ext_eeprom
  8108 ;;		_read_ext_eeprom
  8109 ;; This function uses a non-reentrant model
  8110 ;;
  8111                           
  8112                           	psect	text41
  8113   002A58                     __ptext41:
  8114                           	callstack 0
  8115   002A58                     _i2c_stop:
  8116                           	callstack 25
  8117   002A58                     
  8118                           ;i2c.c: 53:  PEN = 1;
  8119   002A58  84C5               	bsf	4037,2,c	;volatile
  8120   002A5A                     
  8121                           ;i2c.c: 54:  i2c_idle();
  8122   002A5A  EC0B  F015         	call	_i2c_idle	;wreg free
  8123   002A5E  0012               	return		;funcret
  8124   002A60                     __end_of_i2c_stop:
  8125                           	callstack 0
  8126                           
  8127 ;; *************** function _i2c_start *****************
  8128 ;; Defined at:
  8129 ;;		line 45 in file "i2c.c"
  8130 ;; Parameters:    Size  Location     Type
  8131 ;;		None
  8132 ;; Auto vars:     Size  Location     Type
  8133 ;;		None
  8134 ;; Return value:  Size  Location     Type
  8135 ;;                  1    wreg      void 
  8136 ;; Registers used:
  8137 ;;		cstack
  8138 ;; Tracked objects:
  8139 ;;		On entry : 0/0
  8140 ;;		On exit  : 0/0
  8141 ;;		Unchanged: 0/0
  8142 ;; Data sizes:     COMRAM   BANK0   BANK1   BANK2   BANK3   BANK4   BANK5
  8143 ;;      Params:         0       0       0       0       0       0       0
  8144 ;;      Locals:         0       0       0       0       0       0       0
  8145 ;;      Temps:          0       0       0       0       0       0       0
  8146 ;;      Totals:         0       0       0       0       0       0       0
  8147 ;;Total ram usage:        0 bytes
  8148 ;; Hardware stack levels used: 1
  8149 ;; Hardware stack levels required when called: 2
  8150 ;; This function calls:
  8151 ;;		_i2c_idle
  8152 ;; This function is called by:
  8153 ;;		_write_ds1307
  8154 ;;		_read_ds1307
  8155 ;;		_write_ext_eeprom
  8156 ;;		_read_ext_eeprom
  8157 ;; This function uses a non-reentrant model
  8158 ;;
  8159                           
  8160                           	psect	text42
  8161   002A60                     __ptext42:
  8162                           	callstack 0
  8163   002A60                     _i2c_start:
  8164                           	callstack 25
  8165   002A60                     
  8166                           ;i2c.c: 47:  SEN = 1;
  8167   002A60  80C5               	bsf	4037,0,c	;volatile
  8168   002A62                     
  8169                           ;i2c.c: 48:  i2c_idle();
  8170   002A62  EC0B  F015         	call	_i2c_idle	;wreg free
  8171   002A66  0012               	return		;funcret
  8172   002A68                     __end_of_i2c_start:
  8173                           	callstack 0
  8174                           
  8175 ;; *************** function _i2c_idle *****************
  8176 ;; Defined at:
  8177 ;;		line 31 in file "i2c.c"
  8178 ;; Parameters:    Size  Location     Type
  8179 ;;		None
  8180 ;; Auto vars:     Size  Location     Type
  8181 ;;		None
  8182 ;; Return value:  Size  Location     Type
  8183 ;;                  1    wreg      void 
  8184 ;; Registers used:
  8185 ;;		None
  8186 ;; Tracked objects:
  8187 ;;		On entry : 0/0
  8188 ;;		On exit  : 0/0
  8189 ;;		Unchanged: 0/0
  8190 ;; Data sizes:     COMRAM   BANK0   BANK1   BANK2   BANK3   BANK4   BANK5
  8191 ;;      Params:         0       0       0       0       0       0       0
  8192 ;;      Locals:         0       0       0       0       0       0       0
  8193 ;;      Temps:          0       0       0       0       0       0       0
  8194 ;;      Totals:         0       0       0       0       0       0       0
  8195 ;;Total ram usage:        0 bytes
  8196 ;; Hardware stack levels used: 1
  8197 ;; Hardware stack levels required when called: 1
  8198 ;; This function calls:
  8199 ;;		Nothing
  8200 ;; This function is called by:
  8201 ;;		_i2c_start
  8202 ;;		_i2c_stop
  8203 ;;		_i2c_rep_start
  8204 ;;		_i2c_write
  8205 ;;		_i2c_rx_mode
  8206 ;; This function uses a non-reentrant model
  8207 ;;
  8208                           
  8209                           	psect	text43
  8210   002A16                     __ptext43:
  8211                           	callstack 0
  8212   002A16                     _i2c_idle:
  8213                           	callstack 25
  8214   002A16                     l571:
  8215   002A16  A69E               	btfss	3998,3,c	;volatile
  8216   002A18  EF10  F015         	goto	u2251
  8217   002A1C  EF12  F015         	goto	u2250
  8218   002A20                     u2251:
  8219   002A20  EF0B  F015         	goto	l571
  8220   002A24                     u2250:
  8221   002A24                     
  8222                           ;i2c.c: 34:  SSPIF = 0;
  8223   002A24  969E               	bcf	3998,3,c	;volatile
  8224   002A26  0012               	return		;funcret
  8225   002A28                     __end_of_i2c_idle:
  8226                           	callstack 0
  8227                           
  8228 ;; *************** function _store_password *****************
  8229 ;; Defined at:
  8230 ;;		line 95 in file "car_black_box.c"
  8231 ;; Parameters:    Size  Location     Type
  8232 ;;  key             1    wreg     unsigned char 
  8233 ;;  pass            2   16[COMRAM] PTR unsigned char 
  8234 ;;		 -> input_pass(4), password(4), 
  8235 ;; Auto vars:     Size  Location     Type
  8236 ;;  key             1   20[COMRAM] unsigned char 
  8237 ;; Return value:  Size  Location     Type
  8238 ;;                  1    wreg      void 
  8239 ;; Registers used:
  8240 ;;		wreg, fsr2l, fsr2h, status,2, status,0, cstack
  8241 ;; Tracked objects:
  8242 ;;		On entry : 0/0
  8243 ;;		On exit  : 0/0
  8244 ;;		Unchanged: 0/0
  8245 ;; Data sizes:     COMRAM   BANK0   BANK1   BANK2   BANK3   BANK4   BANK5
  8246 ;;      Params:         2       0       0       0       0       0       0
  8247 ;;      Locals:         1       0       0       0       0       0       0
  8248 ;;      Temps:          2       0       0       0       0       0       0
  8249 ;;      Totals:         5       0       0       0       0       0       0
  8250 ;;Total ram usage:        5 bytes
  8251 ;; Hardware stack levels used: 1
  8252 ;; Hardware stack levels required when called: 3
  8253 ;; This function calls:
  8254 ;;		_clcd_putch
  8255 ;; This function is called by:
  8256 ;;		_enter_password
  8257 ;;		_change_password
  8258 ;; This function uses a non-reentrant model
  8259 ;;
  8260                           
  8261                           	psect	text44
  8262   001F18                     __ptext44:
  8263                           	callstack 0
  8264   001F18                     _store_password:
  8265                           	callstack 26
  8266                           
  8267                           ;incstack = 0
  8268                           ;store_password@key stored from wreg
  8269   001F18  6E15               	movwf	store_password@key^0,c
  8270   001F1A                     
  8271                           ;car_black_box.c: 97:     if (key == 11) {
  8272   001F1A  0E0B               	movlw	11
  8273   001F1C  1815               	xorwf	store_password@key^0,w,c
  8274   001F1E  A4D8               	btfss	status,2,c
  8275   001F20  EF94  F00F         	goto	u2521
  8276   001F24  EF96  F00F         	goto	u2520
  8277   001F28                     u2521:
  8278   001F28  EFA9  F00F         	goto	l3370
  8279   001F2C                     u2520:
  8280   001F2C                     
  8281                           ;car_black_box.c: 98:         sec = 60;
  8282   001F2C  0E3C               	movlw	60
  8283   001F2E  6E5E               	movwf	_sec^0,c
  8284   001F30                     
  8285                           ;car_black_box.c: 99:         pass[ind] = '1';
  8286   001F30  5052               	movf	_ind^0,w,c
  8287   001F32  2411               	addwf	store_password@pass^0,w,c
  8288   001F34  6ED9               	movwf	fsr2l,c
  8289   001F36  0E00               	movlw	0
  8290   001F38  2012               	addwfc	(store_password@pass+1)^0,w,c
  8291   001F3A  6EDA               	movwf	fsr2h,c
  8292   001F3C  0E31               	movlw	49
  8293   001F3E  6EDF               	movwf	indf2,c
  8294   001F40                     
  8295                           ;car_black_box.c: 100:         clcd_putch('*', (0xC0 + (ind + 5)));
  8296   001F40  5052               	movf	_ind^0,w,c
  8297   001F42  0FC5               	addlw	197
  8298   001F44  6E0F               	movwf	clcd_putch@addr^0,c
  8299   001F46  0E2A               	movlw	42
  8300   001F48  ECE9  F014         	call	_clcd_putch
  8301   001F4C                     l3368:
  8302                           
  8303                           ;car_black_box.c: 101:         ind++;
  8304   001F4C  2A52               	incf	_ind^0,f,c
  8305                           
  8306                           ;car_black_box.c: 102:     } else if (key == 12) {
  8307   001F4E  EFC4  F00F         	goto	l3380
  8308   001F52                     l3370:
  8309   001F52  0E0C               	movlw	12
  8310   001F54  1815               	xorwf	store_password@key^0,w,c
  8311   001F56  A4D8               	btfss	status,2,c
  8312   001F58  EFB0  F00F         	goto	u2531
  8313   001F5C  EFB2  F00F         	goto	u2530
  8314   001F60                     u2531:
  8315   001F60  EFC4  F00F         	goto	l3380
  8316   001F64                     u2530:
  8317   001F64                     
  8318                           ;car_black_box.c: 103:         sec = 60;
  8319   001F64  0E3C               	movlw	60
  8320   001F66  6E5E               	movwf	_sec^0,c
  8321   001F68                     
  8322                           ;car_black_box.c: 104:         pass[ind] = '0';
  8323   001F68  5052               	movf	_ind^0,w,c
  8324   001F6A  2411               	addwf	store_password@pass^0,w,c
  8325   001F6C  6ED9               	movwf	fsr2l,c
  8326   001F6E  0E00               	movlw	0
  8327   001F70  2012               	addwfc	(store_password@pass+1)^0,w,c
  8328   001F72  6EDA               	movwf	fsr2h,c
  8329   001F74  0E30               	movlw	48
  8330   001F76  6EDF               	movwf	indf2,c
  8331   001F78                     
  8332                           ;car_black_box.c: 105:         clcd_putch('*', (0xC0 + (ind + 5)));
  8333   001F78  5052               	movf	_ind^0,w,c
  8334   001F7A  0FC5               	addlw	197
  8335   001F7C  6E0F               	movwf	clcd_putch@addr^0,c
  8336   001F7E  0E2A               	movlw	42
  8337   001F80  ECE9  F014         	call	_clcd_putch
  8338   001F84  EFA6  F00F         	goto	l3368
  8339   001F88                     l3380:
  8340                           
  8341                           ;car_black_box.c: 109:     if (wait++ < 500)
  8342   001F88  5043               	movf	_wait^0,w,c
  8343   001F8A  6E13               	movwf	??_store_password^0,c
  8344   001F8C  5044               	movf	(_wait+1)^0,w,c
  8345   001F8E  6E14               	movwf	(??_store_password+1)^0,c
  8346   001F90  4A43               	infsnz	_wait^0,f,c
  8347   001F92  2A44               	incf	(_wait+1)^0,f,c
  8348   001F94  0EF4               	movlw	244
  8349   001F96  5C13               	subwf	??_store_password^0,w,c
  8350   001F98  0E01               	movlw	1
  8351   001F9A  5814               	subwfb	(??_store_password+1)^0,w,c
  8352   001F9C  B0D8               	btfsc	status,0,c
  8353   001F9E  EFD3  F00F         	goto	u2541
  8354   001FA2  EFD5  F00F         	goto	u2540
  8355   001FA6                     u2541:
  8356   001FA6  EFDD  F00F         	goto	l3384
  8357   001FAA                     u2540:
  8358   001FAA                     
  8359                           ;car_black_box.c: 110:         clcd_putch('_', (0xC0 + (ind + 5)));
  8360   001FAA  5052               	movf	_ind^0,w,c
  8361   001FAC  0FC5               	addlw	197
  8362   001FAE  6E0F               	movwf	clcd_putch@addr^0,c
  8363   001FB0  0E5F               	movlw	95
  8364   001FB2  ECE9  F014         	call	_clcd_putch
  8365   001FB6  EFEE  F00F         	goto	l3388
  8366   001FBA                     l3384:
  8367   001FBA  0EF5               	movlw	245
  8368   001FBC  5C43               	subwf	_wait^0,w,c
  8369   001FBE  0E01               	movlw	1
  8370   001FC0  5844               	subwfb	(_wait+1)^0,w,c
  8371   001FC2  A0D8               	btfss	status,0,c
  8372   001FC4  EFE6  F00F         	goto	u2551
  8373   001FC8  EFE8  F00F         	goto	u2550
  8374   001FCC                     u2551:
  8375   001FCC  EFEE  F00F         	goto	l3388
  8376   001FD0                     u2550:
  8377   001FD0                     
  8378                           ;car_black_box.c: 112:         clcd_putch(' ', (0xC0 + (ind + 5)));
  8379   001FD0  5052               	movf	_ind^0,w,c
  8380   001FD2  0FC5               	addlw	197
  8381   001FD4  6E0F               	movwf	clcd_putch@addr^0,c
  8382   001FD6  0E20               	movlw	32
  8383   001FD8  ECE9  F014         	call	_clcd_putch
  8384   001FDC                     l3388:
  8385                           
  8386                           ;car_black_box.c: 114:     if (wait == 1000)
  8387   001FDC  0EE8               	movlw	232
  8388   001FDE  1843               	xorwf	_wait^0,w,c
  8389   001FE0  E107               	bnz	u2561
  8390   001FE2  0E03               	movlw	3
  8391   001FE4  1844               	xorwf	(_wait+1)^0,w,c
  8392   001FE6  A4D8               	btfss	status,2,c
  8393   001FE8  EFF8  F00F         	goto	u2561
  8394   001FEC  EFFA  F00F         	goto	u2560
  8395   001FF0                     u2561:
  8396   001FF0  EFFE  F00F         	goto	l329
  8397   001FF4                     u2560:
  8398   001FF4                     
  8399                           ;car_black_box.c: 115:         wait = 0;
  8400   001FF4  0E00               	movlw	0
  8401   001FF6  6E44               	movwf	(_wait+1)^0,c
  8402   001FF8  0E00               	movlw	0
  8403   001FFA  6E43               	movwf	_wait^0,c
  8404   001FFC                     l329:
  8405   001FFC  0012               	return		;funcret
  8406   001FFE                     __end_of_store_password:
  8407                           	callstack 0
  8408                           
  8409 ;; *************** function _clcd_putch *****************
  8410 ;; Defined at:
  8411 ;;		line 75 in file "clcd.c"
  8412 ;; Parameters:    Size  Location     Type
  8413 ;;  data            1    wreg     const unsigned char 
  8414 ;;  addr            1   14[COMRAM] unsigned char 
  8415 ;; Auto vars:     Size  Location     Type
  8416 ;;  data            1   15[COMRAM] const unsigned char 
  8417 ;; Return value:  Size  Location     Type
  8418 ;;                  1    wreg      void 
  8419 ;; Registers used:
  8420 ;;		wreg, status,2, cstack
  8421 ;; Tracked objects:
  8422 ;;		On entry : 0/0
  8423 ;;		On exit  : 0/0
  8424 ;;		Unchanged: 0/0
  8425 ;; Data sizes:     COMRAM   BANK0   BANK1   BANK2   BANK3   BANK4   BANK5
  8426 ;;      Params:         1       0       0       0       0       0       0
  8427 ;;      Locals:         1       0       0       0       0       0       0
  8428 ;;      Temps:          0       0       0       0       0       0       0
  8429 ;;      Totals:         2       0       0       0       0       0       0
  8430 ;;Total ram usage:        2 bytes
  8431 ;; Hardware stack levels used: 1
  8432 ;; Hardware stack levels required when called: 2
  8433 ;; This function calls:
  8434 ;;		_clcd_write
  8435 ;; This function is called by:
  8436 ;;		_display_speed
  8437 ;;		_store_password
  8438 ;;		_enter_password
  8439 ;;		_menu
  8440 ;;		_view_log
  8441 ;;		_download_log
  8442 ;;		_clear_log
  8443 ;;		_change_password
  8444 ;; This function uses a non-reentrant model
  8445 ;;
  8446                           
  8447                           	psect	text45
  8448   0029D2                     __ptext45:
  8449                           	callstack 0
  8450   0029D2                     _clcd_putch:
  8451                           	callstack 27
  8452                           
  8453                           ;incstack = 0
  8454                           ;clcd_putch@data stored from wreg
  8455   0029D2  6E10               	movwf	clcd_putch@data^0,c
  8456   0029D4                     
  8457                           ;clcd.c: 75: void clcd_putch(const unsigned char data, unsigned char addr);clcd.c: 76: {
      +                          ;clcd.c: 77:  clcd_write(addr, 0);
  8458   0029D4  0E00               	movlw	0
  8459   0029D6  6E01               	movwf	clcd_write@control_bit^0,c
  8460   0029D8  500F               	movf	clcd_putch@addr^0,w,c
  8461   0029DA  EC05  F014         	call	_clcd_write
  8462                           
  8463                           ;clcd.c: 78:  clcd_write(data, 1);
  8464   0029DE  0E01               	movlw	1
  8465   0029E0  6E01               	movwf	clcd_write@control_bit^0,c
  8466   0029E2  5010               	movf	clcd_putch@data^0,w,c
  8467   0029E4  EC05  F014         	call	_clcd_write
  8468   0029E8  0012               	return		;funcret
  8469   0029EA                     __end_of_clcd_putch:
  8470                           	callstack 0
  8471                           
  8472 ;; *************** function _clcd_print *****************
  8473 ;; Defined at:
  8474 ;;		line 66 in file "clcd.c"
  8475 ;; Parameters:    Size  Location     Type
  8476 ;;  data            2    2[COMRAM] PTR const unsigned char 
  8477 ;;		 -> STR_97(17), STR_96(17), STR_95(17), STR_94(17), 
  8478 ;;		 -> STR_93(17), STR_92(17), STR_91(17), STR_90(17), 
  8479 ;;		 -> STR_89(17), STR_88(17), STR_87(17), STR_86(17), 
  8480 ;;		 -> STR_85(17), STR_84(17), STR_83(17), STR_82(17), 
  8481 ;;		 -> STR_81(17), STR_80(15), STR_79(17), STR_78(17), 
  8482 ;;		 -> STR_77(17), STR_76(17), STR_75(17), STR_74(17), 
  8483 ;;		 -> STR_73(17), STR_70(17), STR_69(17), STR_68(3), 
  8484 ;;		 -> STR_67(3), STR_66(3), STR_65(17), STR_64(17), 
  8485 ;;		 -> STR_63(17), STR_62(17), STR_61(17), STR_60(17), 
  8486 ;;		 -> STR_59(17), STR_58(17), STR_57(17), STR_56(17), 
  8487 ;;		 -> data(15), STR_55(17), STR_54(17), STR_53(17), 
  8488 ;;		 -> STR_52(4), STR_51(11), STR_50(17), STR_49(17), 
  8489 ;;		 -> STR_48(15), STR_47(17), STR_46(17), STR_45(17), 
  8490 ;;		 -> STR_44(17), STR_43(17), STR_42(17), STR_41(17), 
  8491 ;;		 -> STR_40(3), STR_39(3), STR_38(3), STR_37(3), 
  8492 ;;		 -> STR_36(3), STR_35(14), STR_34(14), STR_33(14), 
  8493 ;;		 -> STR_32(14), STR_31(14), STR_30(3), STR_29(3), 
  8494 ;;		 -> STR_28(3), STR_27(3), STR_26(3), STR_25(3), 
  8495 ;;		 -> STR_24(3), STR_23(3), STR_22(3), STR_21(3), 
  8496 ;;		 -> STR_20(5), STR_19(17), time(9), STR_18(3), 
  8497 ;;		 -> STR_17(3), STR_16(3), STR_15(3), STR_14(3), 
  8498 ;;		 -> STR_13(14), STR_12(14), STR_11(14), STR_10(14), 
  8499 ;;		 -> STR_9(14), STR_8(3), STR_7(3), STR_6(3), 
  8500 ;;		 -> STR_5(3), STR_4(3), STR_3(3), STR_2(3), 
  8501 ;;		 -> STR_1(3), 
  8502 ;;  addr            1    4[COMRAM] unsigned char 
  8503 ;; Auto vars:     Size  Location     Type
  8504 ;;		None
  8505 ;; Return value:  Size  Location     Type
  8506 ;;                  1    wreg      void 
  8507 ;; Registers used:
  8508 ;;		wreg, fsr0l, fsr0h, status,2, status,0, tblptrl, tblptrh, tblptru, cstack
  8509 ;; Tracked objects:
  8510 ;;		On entry : 0/0
  8511 ;;		On exit  : 0/0
  8512 ;;		Unchanged: 0/0
  8513 ;; Data sizes:     COMRAM   BANK0   BANK1   BANK2   BANK3   BANK4   BANK5
  8514 ;;      Params:         3       0       0       0       0       0       0
  8515 ;;      Locals:         0       0       0       0       0       0       0
  8516 ;;      Temps:          0       0       0       0       0       0       0
  8517 ;;      Totals:         3       0       0       0       0       0       0
  8518 ;;Total ram usage:        3 bytes
  8519 ;; Hardware stack levels used: 1
  8520 ;; Hardware stack levels required when called: 2
  8521 ;; This function calls:
  8522 ;;		_clcd_write
  8523 ;; This function is called by:
  8524 ;;		_display_time
  8525 ;;		_main
  8526 ;;		_display_event
  8527 ;;		_enter_password
  8528 ;;		_menu
  8529 ;;		_view_log
  8530 ;;		_set_time
  8531 ;;		_download_log
  8532 ;;		_clear_log
  8533 ;;		_change_password
  8534 ;; This function uses a non-reentrant model
  8535 ;;
  8536                           
  8537                           	psect	text46
  8538   002568                     __ptext46:
  8539                           	callstack 0
  8540   002568                     _clcd_print:
  8541                           	callstack 27
  8542   002568                     
  8543                           ;clcd.c: 66: void clcd_print(const unsigned char *data, unsigned char addr);clcd.c: 67: 
      +                          {;clcd.c: 68:  clcd_write(addr, 0);
  8544   002568  0E00               	movlw	0
  8545   00256A  6E01               	movwf	clcd_write@control_bit^0,c
  8546   00256C  5005               	movf	clcd_print@addr^0,w,c
  8547   00256E  EC05  F014         	call	_clcd_write
  8548                           
  8549                           ;clcd.c: 69:  while (*data != '\0')
  8550   002572  EFD1  F012         	goto	l3178
  8551   002576                     l3174:
  8552                           
  8553                           ;clcd.c: 70:  {;clcd.c: 71:   clcd_write(*data++, 1);
  8554   002576  0E01               	movlw	1
  8555   002578  6E01               	movwf	clcd_write@control_bit^0,c
  8556   00257A  C003  FFF6         	movff	clcd_print@data,tblptrl
  8557   00257E  C004  FFF7         	movff	clcd_print@data+1,tblptrh
  8558   002582  6AF8               	clrf	tblptru,c
  8559   002584  0E05               	movlw	(high __ramtop+-1)
  8560   002586  64F7               	cpfsgt	tblptrh,c
  8561   002588  D003               	bra	u2317
  8562   00258A  0008               	tblrd		*
  8563   00258C  50F5               	movf	tablat,w,c
  8564   00258E  D005               	bra	u2310
  8565   002590                     u2317:
  8566   002590  CFF6 FFE9          	movff	tblptrl,fsr0l
  8567   002594  CFF7 FFEA          	movff	tblptrh,fsr0h
  8568   002598  50EF               	movf	indf0,w,c
  8569   00259A                     u2310:
  8570   00259A  EC05  F014         	call	_clcd_write
  8571   00259E  4A03               	infsnz	clcd_print@data^0,f,c
  8572   0025A0  2A04               	incf	(clcd_print@data+1)^0,f,c
  8573   0025A2                     l3178:
  8574                           
  8575                           ;clcd.c: 69:  while (*data != '\0')
  8576   0025A2  C003  FFF6         	movff	clcd_print@data,tblptrl
  8577   0025A6  C004  FFF7         	movff	clcd_print@data+1,tblptrh
  8578   0025AA  6AF8               	clrf	tblptru,c
  8579   0025AC  0E05               	movlw	(high __ramtop+-1)
  8580   0025AE  64F7               	cpfsgt	tblptrh,c
  8581   0025B0  D003               	bra	u2327
  8582   0025B2  0008               	tblrd		*
  8583   0025B4  50F5               	movf	tablat,w,c
  8584   0025B6  D005               	bra	u2320
  8585   0025B8                     u2327:
  8586   0025B8  CFF6 FFE9          	movff	tblptrl,fsr0l
  8587   0025BC  CFF7 FFEA          	movff	tblptrh,fsr0h
  8588   0025C0  50EF               	movf	indf0,w,c
  8589   0025C2                     u2320:
  8590   0025C2  0900               	iorlw	0
  8591   0025C4  A4D8               	btfss	status,2,c
  8592   0025C6  EFE7  F012         	goto	u2331
  8593   0025CA  EFE9  F012         	goto	u2330
  8594   0025CE                     u2331:
  8595   0025CE  EFBB  F012         	goto	l3174
  8596   0025D2                     u2330:
  8597   0025D2  0012               	return		;funcret
  8598   0025D4                     __end_of_clcd_print:
  8599                           	callstack 0
  8600                           
  8601 ;; *************** function _clcd_write *****************
  8602 ;; Defined at:
  8603 ;;		line 11 in file "clcd.c"
  8604 ;; Parameters:    Size  Location     Type
  8605 ;;  byte            1    wreg     unsigned char 
  8606 ;;  control_bit     1    0[COMRAM] unsigned char 
  8607 ;; Auto vars:     Size  Location     Type
  8608 ;;  byte            1    1[COMRAM] unsigned char 
  8609 ;; Return value:  Size  Location     Type
  8610 ;;                  1    wreg      void 
  8611 ;; Registers used:
  8612 ;;		wreg
  8613 ;; Tracked objects:
  8614 ;;		On entry : 0/0
  8615 ;;		On exit  : 0/0
  8616 ;;		Unchanged: 0/0
  8617 ;; Data sizes:     COMRAM   BANK0   BANK1   BANK2   BANK3   BANK4   BANK5
  8618 ;;      Params:         1       0       0       0       0       0       0
  8619 ;;      Locals:         1       0       0       0       0       0       0
  8620 ;;      Temps:          0       0       0       0       0       0       0
  8621 ;;      Totals:         2       0       0       0       0       0       0
  8622 ;;Total ram usage:        2 bytes
  8623 ;; Hardware stack levels used: 1
  8624 ;; Hardware stack levels required when called: 1
  8625 ;; This function calls:
  8626 ;;		Nothing
  8627 ;; This function is called by:
  8628 ;;		_init_clcd
  8629 ;;		_clcd_print
  8630 ;;		_clcd_putch
  8631 ;; This function uses a non-reentrant model
  8632 ;;
  8633                           
  8634                           	psect	text47
  8635   00280A                     __ptext47:
  8636                           	callstack 0
  8637   00280A                     _clcd_write:
  8638                           	callstack 27
  8639                           
  8640                           ;incstack = 0
  8641                           ;clcd_write@byte stored from wreg
  8642   00280A  6E02               	movwf	clcd_write@byte^0,c
  8643   00280C                     
  8644                           ;clcd.c: 11: void clcd_write(unsigned char byte, unsigned char control_bit);clcd.c: 12: 
      +                          {;clcd.c: 13:  RC1 = control_bit;
  8645   00280C  B001               	btfsc	clcd_write@control_bit^0,0,c
  8646   00280E  EF0B  F014         	goto	u2261
  8647   002812  EF0E  F014         	goto	u2260
  8648   002816                     u2261:
  8649   002816  8282               	bsf	3970,1,c	;volatile
  8650   002818  EF0F  F014         	goto	u2275
  8651   00281C                     u2260:
  8652   00281C  9282               	bcf	3970,1,c	;volatile
  8653   00281E                     u2275:
  8654   00281E                     
  8655                           ;clcd.c: 14:  PORTD = byte;
  8656   00281E  C002  FF83         	movff	clcd_write@byte,3971	;volatile
  8657   002822                     
  8658                           ;clcd.c: 17:  RC2 = 1;
  8659   002822  8482               	bsf	3970,2,c	;volatile
  8660   002824                     
  8661                           ;clcd.c: 19:  RC2 = 0;
  8662   002824  9482               	bcf	3970,2,c	;volatile
  8663   002826                     
  8664                           ;clcd.c: 21:  TRISD7 = 0xFF;
  8665   002826  8E95               	bsf	3989,7,c	;volatile
  8666   002828                     
  8667                           ;clcd.c: 22:  RC0 = 1;
  8668   002828  8082               	bsf	3970,0,c	;volatile
  8669   00282A                     
  8670                           ;clcd.c: 23:  RC1 = 0;
  8671   00282A  9282               	bcf	3970,1,c	;volatile
  8672   00282C                     l3066:
  8673                           
  8674                           ;clcd.c: 26:  {;clcd.c: 27:   RC2 = 1;
  8675   00282C  8482               	bsf	3970,2,c	;volatile
  8676   00282E                     
  8677                           ;clcd.c: 28:   RC2 = 0;
  8678   00282E  9482               	bcf	3970,2,c	;volatile
  8679   002830                     
  8680                           ;clcd.c: 29:  } while (RD7);
  8681   002830  BE83               	btfsc	3971,7,c	;volatile
  8682   002832  EF1D  F014         	goto	u2281
  8683   002836  EF1F  F014         	goto	u2280
  8684   00283A                     u2281:
  8685   00283A  EF16  F014         	goto	l3066
  8686   00283E                     u2280:
  8687   00283E                     
  8688                           ;clcd.c: 31:  RC0 = 0;
  8689   00283E  9082               	bcf	3970,0,c	;volatile
  8690                           
  8691                           ;clcd.c: 32:  TRISD7 = 0x00;
  8692   002840  9E95               	bcf	3989,7,c	;volatile
  8693   002842  0012               	return		;funcret
  8694   002844                     __end_of_clcd_write:
  8695                           	callstack 0
  8696                           
  8697 ;; *************** function ___xxtofl *****************
  8698 ;; Defined at:
  8699 ;;		line 10 in file "C:\Program Files\Microchip\xc8\v2.41\pic\sources\c99\common\xxtofl.c"
  8700 ;; Parameters:    Size  Location     Type
  8701 ;;  sign            1    wreg     unsigned char 
  8702 ;;  val             4    8[COMRAM] long 
  8703 ;; Auto vars:     Size  Location     Type
  8704 ;;  sign            1   16[COMRAM] unsigned char 
  8705 ;;  arg             4   18[COMRAM] unsigned long 
  8706 ;;  exp             1   17[COMRAM] unsigned char 
  8707 ;; Return value:  Size  Location     Type
  8708 ;;                  4    8[COMRAM] unsigned char 
  8709 ;; Registers used:
  8710 ;;		wreg, status,2, status,0
  8711 ;; Tracked objects:
  8712 ;;		On entry : 0/0
  8713 ;;		On exit  : 0/0
  8714 ;;		Unchanged: 0/0
  8715 ;; Data sizes:     COMRAM   BANK0   BANK1   BANK2   BANK3   BANK4   BANK5
  8716 ;;      Params:         4       0       0       0       0       0       0
  8717 ;;      Locals:         6       0       0       0       0       0       0
  8718 ;;      Temps:          4       0       0       0       0       0       0
  8719 ;;      Totals:        14       0       0       0       0       0       0
  8720 ;;Total ram usage:       14 bytes
  8721 ;; Hardware stack levels used: 1
  8722 ;; Hardware stack levels required when called: 1
  8723 ;; This function calls:
  8724 ;;		Nothing
  8725 ;; This function is called by:
  8726 ;;		_main
  8727 ;; This function uses a non-reentrant model
  8728 ;;
  8729                           
  8730                           	psect	text48
  8731   001A54                     __ptext48:
  8732                           	callstack 0
  8733   001A54                     ___xxtofl:
  8734                           	callstack 29
  8735                           
  8736                           ;incstack = 0
  8737                           ;___xxtofl@sign stored from wreg
  8738   001A54  6E11               	movwf	___xxtofl@sign^0,c
  8739   001A56  5011               	movf	___xxtofl@sign^0,w,c
  8740   001A58  B4D8               	btfsc	status,2,c
  8741   001A5A  EF31  F00D         	goto	u4281
  8742   001A5E  EF33  F00D         	goto	u4280
  8743   001A62                     u4281:
  8744   001A62  EF55  F00D         	goto	l1404
  8745   001A66                     u4280:
  8746   001A66  BE0C               	btfsc	(___xxtofl@val+3)^0,7,c
  8747   001A68  EF3A  F00D         	goto	u4290
  8748   001A6C  EF38  F00D         	goto	u4291
  8749   001A70                     u4291:
  8750   001A70  EF55  F00D         	goto	l1404
  8751   001A74                     u4290:
  8752   001A74  C009  F00D         	movff	___xxtofl@val,??___xxtofl
  8753   001A78  C00A  F00E         	movff	___xxtofl@val+1,??___xxtofl+1
  8754   001A7C  C00B  F00F         	movff	___xxtofl@val+2,??___xxtofl+2
  8755   001A80  C00C  F010         	movff	___xxtofl@val+3,??___xxtofl+3
  8756   001A84  1E0D               	comf	??___xxtofl^0,f,c
  8757   001A86  1E0E               	comf	(??___xxtofl+1)^0,f,c
  8758   001A88  1E0F               	comf	(??___xxtofl+2)^0,f,c
  8759   001A8A  1E10               	comf	(??___xxtofl+3)^0,f,c
  8760   001A8C  2A0D               	incf	??___xxtofl^0,f,c
  8761   001A8E  0E00               	movlw	0
  8762   001A90  220E               	addwfc	(??___xxtofl+1)^0,f,c
  8763   001A92  220F               	addwfc	(??___xxtofl+2)^0,f,c
  8764   001A94  2210               	addwfc	(??___xxtofl+3)^0,f,c
  8765   001A96  C00D  F013         	movff	??___xxtofl,___xxtofl@arg
  8766   001A9A  C00E  F014         	movff	??___xxtofl+1,___xxtofl@arg+1
  8767   001A9E  C00F  F015         	movff	??___xxtofl+2,___xxtofl@arg+2
  8768   001AA2  C010  F016         	movff	??___xxtofl+3,___xxtofl@arg+3
  8769   001AA6  EF5D  F00D         	goto	l4506
  8770   001AAA                     l1404:
  8771   001AAA  C009  F013         	movff	___xxtofl@val,___xxtofl@arg
  8772   001AAE  C00A  F014         	movff	___xxtofl@val+1,___xxtofl@arg+1
  8773   001AB2  C00B  F015         	movff	___xxtofl@val+2,___xxtofl@arg+2
  8774   001AB6  C00C  F016         	movff	___xxtofl@val+3,___xxtofl@arg+3
  8775   001ABA                     l4506:
  8776   001ABA  5009               	movf	___xxtofl@val^0,w,c
  8777   001ABC  100A               	iorwf	(___xxtofl@val+1)^0,w,c
  8778   001ABE  100B               	iorwf	(___xxtofl@val+2)^0,w,c
  8779   001AC0  100C               	iorwf	(___xxtofl@val+3)^0,w,c
  8780   001AC2  A4D8               	btfss	status,2,c
  8781   001AC4  EF66  F00D         	goto	u4301
  8782   001AC8  EF68  F00D         	goto	u4300
  8783   001ACC                     u4301:
  8784   001ACC  EF72  F00D         	goto	l4512
  8785   001AD0                     u4300:
  8786   001AD0  0E00               	movlw	0
  8787   001AD2  6E09               	movwf	?___xxtofl^0,c
  8788   001AD4  0E00               	movlw	0
  8789   001AD6  6E0A               	movwf	(?___xxtofl+1)^0,c
  8790   001AD8  0E00               	movlw	0
  8791   001ADA  6E0B               	movwf	(?___xxtofl+2)^0,c
  8792   001ADC  0E00               	movlw	0
  8793   001ADE  6E0C               	movwf	(?___xxtofl+3)^0,c
  8794   001AE0  EF03  F00E         	goto	l1407
  8795   001AE4                     l4512:
  8796   001AE4  0E96               	movlw	150
  8797   001AE6  6E12               	movwf	___xxtofl@exp^0,c
  8798   001AE8  EF7C  F00D         	goto	l4516
  8799   001AEC                     l4514:
  8800   001AEC  2A12               	incf	___xxtofl@exp^0,f,c
  8801   001AEE  90D8               	bcf	status,0,c
  8802   001AF0  3216               	rrcf	(___xxtofl@arg+3)^0,f,c
  8803   001AF2  3215               	rrcf	(___xxtofl@arg+2)^0,f,c
  8804   001AF4  3214               	rrcf	(___xxtofl@arg+1)^0,f,c
  8805   001AF6  3213               	rrcf	___xxtofl@arg^0,f,c
  8806   001AF8                     l4516:
  8807   001AF8  0E00               	movlw	0
  8808   001AFA  1413               	andwf	___xxtofl@arg^0,w,c
  8809   001AFC  6E0D               	movwf	??___xxtofl^0,c
  8810   001AFE  0E00               	movlw	0
  8811   001B00  1414               	andwf	(___xxtofl@arg+1)^0,w,c
  8812   001B02  6E0E               	movwf	(??___xxtofl+1)^0,c
  8813   001B04  0E00               	movlw	0
  8814   001B06  1415               	andwf	(___xxtofl@arg+2)^0,w,c
  8815   001B08  6E0F               	movwf	(??___xxtofl+2)^0,c
  8816   001B0A  0EFE               	movlw	254
  8817   001B0C  1416               	andwf	(___xxtofl@arg+3)^0,w,c
  8818   001B0E  6E10               	movwf	(??___xxtofl+3)^0,c
  8819   001B10  500D               	movf	??___xxtofl^0,w,c
  8820   001B12  100E               	iorwf	(??___xxtofl+1)^0,w,c
  8821   001B14  100F               	iorwf	(??___xxtofl+2)^0,w,c
  8822   001B16  1010               	iorwf	(??___xxtofl+3)^0,w,c
  8823   001B18  A4D8               	btfss	status,2,c
  8824   001B1A  EF91  F00D         	goto	u4311
  8825   001B1E  EF93  F00D         	goto	u4310
  8826   001B22                     u4311:
  8827   001B22  EF76  F00D         	goto	l4514
  8828   001B26                     u4310:
  8829   001B26  EFA1  F00D         	goto	l1411
  8830   001B2A                     l4518:
  8831   001B2A  2A12               	incf	___xxtofl@exp^0,f,c
  8832   001B2C  0E01               	movlw	1
  8833   001B2E  2613               	addwf	___xxtofl@arg^0,f,c
  8834   001B30  0E00               	movlw	0
  8835   001B32  2214               	addwfc	(___xxtofl@arg+1)^0,f,c
  8836   001B34  2215               	addwfc	(___xxtofl@arg+2)^0,f,c
  8837   001B36  2216               	addwfc	(___xxtofl@arg+3)^0,f,c
  8838   001B38  90D8               	bcf	status,0,c
  8839   001B3A  3216               	rrcf	(___xxtofl@arg+3)^0,f,c
  8840   001B3C  3215               	rrcf	(___xxtofl@arg+2)^0,f,c
  8841   001B3E  3214               	rrcf	(___xxtofl@arg+1)^0,f,c
  8842   001B40  3213               	rrcf	___xxtofl@arg^0,f,c
  8843   001B42                     l1411:
  8844   001B42  0E00               	movlw	0
  8845   001B44  1413               	andwf	___xxtofl@arg^0,w,c
  8846   001B46  6E0D               	movwf	??___xxtofl^0,c
  8847   001B48  0E00               	movlw	0
  8848   001B4A  1414               	andwf	(___xxtofl@arg+1)^0,w,c
  8849   001B4C  6E0E               	movwf	(??___xxtofl+1)^0,c
  8850   001B4E  0E00               	movlw	0
  8851   001B50  1415               	andwf	(___xxtofl@arg+2)^0,w,c
  8852   001B52  6E0F               	movwf	(??___xxtofl+2)^0,c
  8853   001B54  0EFF               	movlw	255
  8854   001B56  1416               	andwf	(___xxtofl@arg+3)^0,w,c
  8855   001B58  6E10               	movwf	(??___xxtofl+3)^0,c
  8856   001B5A  500D               	movf	??___xxtofl^0,w,c
  8857   001B5C  100E               	iorwf	(??___xxtofl+1)^0,w,c
  8858   001B5E  100F               	iorwf	(??___xxtofl+2)^0,w,c
  8859   001B60  1010               	iorwf	(??___xxtofl+3)^0,w,c
  8860   001B62  A4D8               	btfss	status,2,c
  8861   001B64  EFB6  F00D         	goto	u4321
  8862   001B68  EFB8  F00D         	goto	u4320
  8863   001B6C                     u4321:
  8864   001B6C  EF95  F00D         	goto	l4518
  8865   001B70                     u4320:
  8866   001B70  EFC0  F00D         	goto	l4526
  8867   001B74                     l4524:
  8868   001B74  0612               	decf	___xxtofl@exp^0,f,c
  8869   001B76  90D8               	bcf	status,0,c
  8870   001B78  3613               	rlcf	___xxtofl@arg^0,f,c
  8871   001B7A  3614               	rlcf	(___xxtofl@arg+1)^0,f,c
  8872   001B7C  3615               	rlcf	(___xxtofl@arg+2)^0,f,c
  8873   001B7E  3616               	rlcf	(___xxtofl@arg+3)^0,f,c
  8874   001B80                     l4526:
  8875   001B80  BE15               	btfsc	(___xxtofl@arg+2)^0,7,c
  8876   001B82  EFC5  F00D         	goto	u4331
  8877   001B86  EFC7  F00D         	goto	u4330
  8878   001B8A                     u4331:
  8879   001B8A  EFCF  F00D         	goto	l1418
  8880   001B8E                     u4330:
  8881   001B8E  0E02               	movlw	2
  8882   001B90  6012               	cpfslt	___xxtofl@exp^0,c
  8883   001B92  EFCD  F00D         	goto	u4341
  8884   001B96  EFCF  F00D         	goto	u4340
  8885   001B9A                     u4341:
  8886   001B9A  EFBA  F00D         	goto	l4524
  8887   001B9E                     u4340:
  8888   001B9E                     l1418:
  8889   001B9E  B012               	btfsc	___xxtofl@exp^0,0,c
  8890   001BA0  EFD4  F00D         	goto	u4351
  8891   001BA4  EFD6  F00D         	goto	u4350
  8892   001BA8                     u4351:
  8893   001BA8  EFD7  F00D         	goto	l4532
  8894   001BAC                     u4350:
  8895   001BAC  9E15               	bcf	(___xxtofl@arg+2)^0,7,c
  8896   001BAE                     l4532:
  8897   001BAE  90D8               	bcf	status,0,c
  8898   001BB0  3212               	rrcf	___xxtofl@exp^0,f,c
  8899   001BB2  C012  F00D         	movff	___xxtofl@exp,??___xxtofl
  8900   001BB6  6A0E               	clrf	(??___xxtofl+1)^0,c
  8901   001BB8  6A0F               	clrf	(??___xxtofl+2)^0,c
  8902   001BBA  6A10               	clrf	(??___xxtofl+3)^0,c
  8903   001BBC  C00D  F010         	movff	??___xxtofl,??___xxtofl+3
  8904   001BC0  6A0F               	clrf	(??___xxtofl+2)^0,c
  8905   001BC2  6A0E               	clrf	(??___xxtofl+1)^0,c
  8906   001BC4  6A0D               	clrf	??___xxtofl^0,c
  8907   001BC6  500D               	movf	??___xxtofl^0,w,c
  8908   001BC8  1213               	iorwf	___xxtofl@arg^0,f,c
  8909   001BCA  500E               	movf	(??___xxtofl+1)^0,w,c
  8910   001BCC  1214               	iorwf	(___xxtofl@arg+1)^0,f,c
  8911   001BCE  500F               	movf	(??___xxtofl+2)^0,w,c
  8912   001BD0  1215               	iorwf	(___xxtofl@arg+2)^0,f,c
  8913   001BD2  5010               	movf	(??___xxtofl+3)^0,w,c
  8914   001BD4  1216               	iorwf	(___xxtofl@arg+3)^0,f,c
  8915   001BD6  5011               	movf	___xxtofl@sign^0,w,c
  8916   001BD8  B4D8               	btfsc	status,2,c
  8917   001BDA  EFF1  F00D         	goto	u4361
  8918   001BDE  EFF3  F00D         	goto	u4360
  8919   001BE2                     u4361:
  8920   001BE2  EFFB  F00D         	goto	l4542
  8921   001BE6                     u4360:
  8922   001BE6  BE0C               	btfsc	(___xxtofl@val+3)^0,7,c
  8923   001BE8  EFFA  F00D         	goto	u4370
  8924   001BEC  EFF8  F00D         	goto	u4371
  8925   001BF0                     u4371:
  8926   001BF0  EFFB  F00D         	goto	l4542
  8927   001BF4                     u4370:
  8928   001BF4  8E16               	bsf	(___xxtofl@arg+3)^0,7,c
  8929   001BF6                     l4542:
  8930   001BF6  C013  F009         	movff	___xxtofl@arg,?___xxtofl
  8931   001BFA  C014  F00A         	movff	___xxtofl@arg+1,?___xxtofl+1
  8932   001BFE  C015  F00B         	movff	___xxtofl@arg+2,?___xxtofl+2
  8933   001C02  C016  F00C         	movff	___xxtofl@arg+3,?___xxtofl+3
  8934   001C06                     l1407:
  8935   001C06  0012               	return		;funcret
  8936   001C08                     __end_of___xxtofl:
  8937                           	callstack 0
  8938                           
  8939 ;; *************** function ___fltol *****************
  8940 ;; Defined at:
  8941 ;;		line 43 in file "C:\Program Files\Microchip\xc8\v2.41\pic\sources\c99\common\fltol.c"
  8942 ;; Parameters:    Size  Location     Type
  8943 ;;  f1              4   47[COMRAM] unsigned char 
  8944 ;; Auto vars:     Size  Location     Type
  8945 ;;  exp1            1   56[COMRAM] unsigned char 
  8946 ;;  sign1           1   55[COMRAM] unsigned char 
  8947 ;; Return value:  Size  Location     Type
  8948 ;;                  4   47[COMRAM] long 
  8949 ;; Registers used:
  8950 ;;		wreg, status,2, status,0
  8951 ;; Tracked objects:
  8952 ;;		On entry : 0/0
  8953 ;;		On exit  : 0/0
  8954 ;;		Unchanged: 0/0
  8955 ;; Data sizes:     COMRAM   BANK0   BANK1   BANK2   BANK3   BANK4   BANK5
  8956 ;;      Params:         4       0       0       0       0       0       0
  8957 ;;      Locals:         2       0       0       0       0       0       0
  8958 ;;      Temps:          4       0       0       0       0       0       0
  8959 ;;      Totals:        10       0       0       0       0       0       0
  8960 ;;Total ram usage:       10 bytes
  8961 ;; Hardware stack levels used: 1
  8962 ;; Hardware stack levels required when called: 1
  8963 ;; This function calls:
  8964 ;;		Nothing
  8965 ;; This function is called by:
  8966 ;;		_main
  8967 ;; This function uses a non-reentrant model
  8968 ;;
  8969                           
  8970                           	psect	text49
  8971   001D10                     __ptext49:
  8972                           	callstack 0
  8973   001D10                     ___fltol:
  8974                           	callstack 29
  8975   001D10  3432               	rlcf	(___fltol@f1+2)^0,w,c
  8976   001D12  3433               	rlcf	(___fltol@f1+3)^0,w,c
  8977   001D14  6E39               	movwf	___fltol@exp1^0,c
  8978   001D16  5039               	movf	___fltol@exp1^0,w,c
  8979   001D18  A4D8               	btfss	status,2,c
  8980   001D1A  EF91  F00E         	goto	u4211
  8981   001D1E  EF93  F00E         	goto	u4210
  8982   001D22                     u4211:
  8983   001D22  EF9D  F00E         	goto	l4462
  8984   001D26                     u4210:
  8985   001D26                     l4458:
  8986   001D26  0E00               	movlw	0
  8987   001D28  6E30               	movwf	?___fltol^0,c
  8988   001D2A  0E00               	movlw	0
  8989   001D2C  6E31               	movwf	(?___fltol+1)^0,c
  8990   001D2E  0E00               	movlw	0
  8991   001D30  6E32               	movwf	(?___fltol+2)^0,c
  8992   001D32  0E00               	movlw	0
  8993   001D34  6E33               	movwf	(?___fltol+3)^0,c
  8994   001D36  EF0A  F00F         	goto	l1046
  8995   001D3A                     l4462:
  8996   001D3A  C030  F034         	movff	___fltol@f1,??___fltol
  8997   001D3E  C031  F035         	movff	___fltol@f1+1,??___fltol+1
  8998   001D42  C032  F036         	movff	___fltol@f1+2,??___fltol+2
  8999   001D46  C033  F037         	movff	___fltol@f1+3,??___fltol+3
  9000   001D4A  0E20               	movlw	32
  9001   001D4C  EFAD  F00E         	goto	u4220
  9002   001D50                     u4225:
  9003   001D50  90D8               	bcf	status,0,c
  9004   001D52  3237               	rrcf	(??___fltol+3)^0,f,c
  9005   001D54  3236               	rrcf	(??___fltol+2)^0,f,c
  9006   001D56  3235               	rrcf	(??___fltol+1)^0,f,c
  9007   001D58  3234               	rrcf	??___fltol^0,f,c
  9008   001D5A                     u4220:
  9009   001D5A  2EE8               	decfsz	wreg,f,c
  9010   001D5C  EFA8  F00E         	goto	u4225
  9011   001D60  5034               	movf	??___fltol^0,w,c
  9012   001D62  6E38               	movwf	___fltol@sign1^0,c
  9013   001D64  8E32               	bsf	(___fltol@f1+2)^0,7,c
  9014   001D66  0EFF               	movlw	255
  9015   001D68  1630               	andwf	___fltol@f1^0,f,c
  9016   001D6A  0EFF               	movlw	255
  9017   001D6C  1631               	andwf	(___fltol@f1+1)^0,f,c
  9018   001D6E  0EFF               	movlw	255
  9019   001D70  1632               	andwf	(___fltol@f1+2)^0,f,c
  9020   001D72  0E00               	movlw	0
  9021   001D74  1633               	andwf	(___fltol@f1+3)^0,f,c
  9022   001D76  0E96               	movlw	150
  9023   001D78  5E39               	subwf	___fltol@exp1^0,f,c
  9024   001D7A  BE39               	btfsc	___fltol@exp1^0,7,c
  9025   001D7C  EFC4  F00E         	goto	u4230
  9026   001D80  EFC2  F00E         	goto	u4231
  9027   001D84                     u4231:
  9028   001D84  EFDA  F00E         	goto	l4482
  9029   001D88                     u4230:
  9030   001D88  5039               	movf	___fltol@exp1^0,w,c
  9031   001D8A  0A80               	xorlw	128
  9032   001D8C  0F97               	addlw	151
  9033   001D8E  B0D8               	btfsc	status,0,c
  9034   001D90  EFCC  F00E         	goto	u4241
  9035   001D94  EFCE  F00E         	goto	u4240
  9036   001D98                     u4241:
  9037   001D98  EFD0  F00E         	goto	l4478
  9038   001D9C                     u4240:
  9039   001D9C  EF93  F00E         	goto	l4458
  9040   001DA0                     l4478:
  9041   001DA0  90D8               	bcf	status,0,c
  9042   001DA2  3233               	rrcf	(___fltol@f1+3)^0,f,c
  9043   001DA4  3232               	rrcf	(___fltol@f1+2)^0,f,c
  9044   001DA6  3231               	rrcf	(___fltol@f1+1)^0,f,c
  9045   001DA8  3230               	rrcf	___fltol@f1^0,f,c
  9046   001DAA  3E39               	incfsz	___fltol@exp1^0,f,c
  9047   001DAC  EFD0  F00E         	goto	l4478
  9048   001DB0  EFF2  F00E         	goto	l4492
  9049   001DB4                     l4482:
  9050   001DB4  0E1F               	movlw	31
  9051   001DB6  6439               	cpfsgt	___fltol@exp1^0,c
  9052   001DB8  EFE0  F00E         	goto	u4251
  9053   001DBC  EFE2  F00E         	goto	u4250
  9054   001DC0                     u4251:
  9055   001DC0  EFEA  F00E         	goto	l4490
  9056   001DC4                     u4250:
  9057   001DC4  EF93  F00E         	goto	l4458
  9058   001DC8                     l4488:
  9059   001DC8  90D8               	bcf	status,0,c
  9060   001DCA  3630               	rlcf	___fltol@f1^0,f,c
  9061   001DCC  3631               	rlcf	(___fltol@f1+1)^0,f,c
  9062   001DCE  3632               	rlcf	(___fltol@f1+2)^0,f,c
  9063   001DD0  3633               	rlcf	(___fltol@f1+3)^0,f,c
  9064   001DD2  0639               	decf	___fltol@exp1^0,f,c
  9065   001DD4                     l4490:
  9066   001DD4  5039               	movf	___fltol@exp1^0,w,c
  9067   001DD6  A4D8               	btfss	status,2,c
  9068   001DD8  EFF0  F00E         	goto	u4261
  9069   001DDC  EFF2  F00E         	goto	u4260
  9070   001DE0                     u4261:
  9071   001DE0  EFE4  F00E         	goto	l4488
  9072   001DE4                     u4260:
  9073   001DE4                     l4492:
  9074   001DE4  5038               	movf	___fltol@sign1^0,w,c
  9075   001DE6  B4D8               	btfsc	status,2,c
  9076   001DE8  EFF8  F00E         	goto	u4271
  9077   001DEC  EFFA  F00E         	goto	u4270
  9078   001DF0                     u4271:
  9079   001DF0  EF02  F00F         	goto	l4496
  9080   001DF4                     u4270:
  9081   001DF4  1E33               	comf	(___fltol@f1+3)^0,f,c
  9082   001DF6  1E32               	comf	(___fltol@f1+2)^0,f,c
  9083   001DF8  1E31               	comf	(___fltol@f1+1)^0,f,c
  9084   001DFA  6C30               	negf	___fltol@f1^0,c
  9085   001DFC  0E00               	movlw	0
  9086   001DFE  2231               	addwfc	(___fltol@f1+1)^0,f,c
  9087   001E00  2232               	addwfc	(___fltol@f1+2)^0,f,c
  9088   001E02  2233               	addwfc	(___fltol@f1+3)^0,f,c
  9089   001E04                     l4496:
  9090   001E04  C030  F030         	movff	___fltol@f1,?___fltol
  9091   001E08  C031  F031         	movff	___fltol@f1+1,?___fltol+1
  9092   001E0C  C032  F032         	movff	___fltol@f1+2,?___fltol+2
  9093   001E10  C033  F033         	movff	___fltol@f1+3,?___fltol+3
  9094   001E14                     l1046:
  9095   001E14  0012               	return		;funcret
  9096   001E16                     __end_of___fltol:
  9097                           	callstack 0
  9098                           
  9099 ;; *************** function ___fldiv *****************
  9100 ;; Defined at:
  9101 ;;		line 11 in file "C:\Program Files\Microchip\xc8\v2.41\pic\sources\c99\common\sprcdiv.c"
  9102 ;; Parameters:    Size  Location     Type
  9103 ;;  b               4   22[COMRAM] long 
  9104 ;;  a               4   26[COMRAM] long 
  9105 ;; Auto vars:     Size  Location     Type
  9106 ;;  grs             4   41[COMRAM] unsigned long 
  9107 ;;  rem             4   34[COMRAM] unsigned long 
  9108 ;;  new_exp         2   39[COMRAM] short 
  9109 ;;  aexp            1   46[COMRAM] unsigned char 
  9110 ;;  bexp            1   45[COMRAM] unsigned char 
  9111 ;;  sign            1   38[COMRAM] unsigned char 
  9112 ;; Return value:  Size  Location     Type
  9113 ;;                  4   22[COMRAM] unsigned char 
  9114 ;; Registers used:
  9115 ;;		wreg, status,2, status,0
  9116 ;; Tracked objects:
  9117 ;;		On entry : 0/0
  9118 ;;		On exit  : 0/0
  9119 ;;		Unchanged: 0/0
  9120 ;; Data sizes:     COMRAM   BANK0   BANK1   BANK2   BANK3   BANK4   BANK5
  9121 ;;      Params:         8       0       0       0       0       0       0
  9122 ;;      Locals:        13       0       0       0       0       0       0
  9123 ;;      Temps:          4       0       0       0       0       0       0
  9124 ;;      Totals:        25       0       0       0       0       0       0
  9125 ;;Total ram usage:       25 bytes
  9126 ;; Hardware stack levels used: 1
  9127 ;; Hardware stack levels required when called: 1
  9128 ;; This function calls:
  9129 ;;		Nothing
  9130 ;; This function is called by:
  9131 ;;		_main
  9132 ;; This function uses a non-reentrant model
  9133 ;;
  9134                           
  9135                           	psect	text50
  9136   000D2A                     __ptext50:
  9137                           	callstack 0
  9138   000D2A                     ___fldiv:
  9139                           	callstack 29
  9140   000D2A  501A               	movf	(___fldiv@b+3)^0,w,c
  9141   000D2C  0B80               	andlw	128
  9142   000D2E  6E27               	movwf	___fldiv@sign^0,c
  9143   000D30  501A               	movf	(___fldiv@b+3)^0,w,c
  9144   000D32  241A               	addwf	(___fldiv@b+3)^0,w,c
  9145   000D34  6E2E               	movwf	___fldiv@bexp^0,c
  9146   000D36  AE19               	btfss	(___fldiv@b+2)^0,7,c
  9147   000D38  EFA0  F006         	goto	u3981
  9148   000D3C  EFA2  F006         	goto	u3980
  9149   000D40                     u3981:
  9150   000D40  EFA3  F006         	goto	l4324
  9151   000D44                     u3980:
  9152   000D44  802E               	bsf	___fldiv@bexp^0,0,c
  9153   000D46                     l4324:
  9154   000D46  502E               	movf	___fldiv@bexp^0,w,c
  9155   000D48  B4D8               	btfsc	status,2,c
  9156   000D4A  EFA9  F006         	goto	u3991
  9157   000D4E  EFAB  F006         	goto	u3990
  9158   000D52                     u3991:
  9159   000D52  EFC0  F006         	goto	l4334
  9160   000D56                     u3990:
  9161   000D56  282E               	incf	___fldiv@bexp^0,w,c
  9162   000D58  A4D8               	btfss	status,2,c
  9163   000D5A  EFB1  F006         	goto	u4001
  9164   000D5E  EFB3  F006         	goto	u4000
  9165   000D62                     u4001:
  9166   000D62  EFBB  F006         	goto	l4330
  9167   000D66                     u4000:
  9168   000D66  0E00               	movlw	0
  9169   000D68  6E17               	movwf	___fldiv@b^0,c
  9170   000D6A  0E00               	movlw	0
  9171   000D6C  6E18               	movwf	(___fldiv@b+1)^0,c
  9172   000D6E  0E00               	movlw	0
  9173   000D70  6E19               	movwf	(___fldiv@b+2)^0,c
  9174   000D72  0E00               	movlw	0
  9175   000D74  6E1A               	movwf	(___fldiv@b+3)^0,c
  9176   000D76                     l4330:
  9177   000D76  8E19               	bsf	(___fldiv@b+2)^0,7,c
  9178   000D78  0E00               	movlw	0
  9179   000D7A  6E1A               	movwf	(___fldiv@b+3)^0,c
  9180   000D7C  EFC8  F006         	goto	l4336
  9181   000D80                     l4334:
  9182   000D80  0E00               	movlw	0
  9183   000D82  6E17               	movwf	___fldiv@b^0,c
  9184   000D84  0E00               	movlw	0
  9185   000D86  6E18               	movwf	(___fldiv@b+1)^0,c
  9186   000D88  0E00               	movlw	0
  9187   000D8A  6E19               	movwf	(___fldiv@b+2)^0,c
  9188   000D8C  0E00               	movlw	0
  9189   000D8E  6E1A               	movwf	(___fldiv@b+3)^0,c
  9190   000D90                     l4336:
  9191   000D90  501E               	movf	(___fldiv@a+3)^0,w,c
  9192   000D92  0B80               	andlw	128
  9193   000D94  1A27               	xorwf	___fldiv@sign^0,f,c
  9194   000D96  501E               	movf	(___fldiv@a+3)^0,w,c
  9195   000D98  241E               	addwf	(___fldiv@a+3)^0,w,c
  9196   000D9A  6E2F               	movwf	___fldiv@aexp^0,c
  9197   000D9C  AE1D               	btfss	(___fldiv@a+2)^0,7,c
  9198   000D9E  EFD3  F006         	goto	u4011
  9199   000DA2  EFD5  F006         	goto	u4010
  9200   000DA6                     u4011:
  9201   000DA6  EFD6  F006         	goto	l4344
  9202   000DAA                     u4010:
  9203   000DAA  802F               	bsf	___fldiv@aexp^0,0,c
  9204   000DAC                     l4344:
  9205   000DAC  502F               	movf	___fldiv@aexp^0,w,c
  9206   000DAE  B4D8               	btfsc	status,2,c
  9207   000DB0  EFDC  F006         	goto	u4021
  9208   000DB4  EFDE  F006         	goto	u4020
  9209   000DB8                     u4021:
  9210   000DB8  EFF3  F006         	goto	l4354
  9211   000DBC                     u4020:
  9212   000DBC  282F               	incf	___fldiv@aexp^0,w,c
  9213   000DBE  A4D8               	btfss	status,2,c
  9214   000DC0  EFE4  F006         	goto	u4031
  9215   000DC4  EFE6  F006         	goto	u4030
  9216   000DC8                     u4031:
  9217   000DC8  EFEE  F006         	goto	l4350
  9218   000DCC                     u4030:
  9219   000DCC  0E00               	movlw	0
  9220   000DCE  6E1B               	movwf	___fldiv@a^0,c
  9221   000DD0  0E00               	movlw	0
  9222   000DD2  6E1C               	movwf	(___fldiv@a+1)^0,c
  9223   000DD4  0E00               	movlw	0
  9224   000DD6  6E1D               	movwf	(___fldiv@a+2)^0,c
  9225   000DD8  0E00               	movlw	0
  9226   000DDA  6E1E               	movwf	(___fldiv@a+3)^0,c
  9227   000DDC                     l4350:
  9228   000DDC  8E1D               	bsf	(___fldiv@a+2)^0,7,c
  9229   000DDE  0E00               	movlw	0
  9230   000DE0  6E1E               	movwf	(___fldiv@a+3)^0,c
  9231   000DE2  EFFB  F006         	goto	l4356
  9232   000DE6                     l4354:
  9233   000DE6  0E00               	movlw	0
  9234   000DE8  6E1B               	movwf	___fldiv@a^0,c
  9235   000DEA  0E00               	movlw	0
  9236   000DEC  6E1C               	movwf	(___fldiv@a+1)^0,c
  9237   000DEE  0E00               	movlw	0
  9238   000DF0  6E1D               	movwf	(___fldiv@a+2)^0,c
  9239   000DF2  0E00               	movlw	0
  9240   000DF4  6E1E               	movwf	(___fldiv@a+3)^0,c
  9241   000DF6                     l4356:
  9242   000DF6  501B               	movf	___fldiv@a^0,w,c
  9243   000DF8  101C               	iorwf	(___fldiv@a+1)^0,w,c
  9244   000DFA  101D               	iorwf	(___fldiv@a+2)^0,w,c
  9245   000DFC  101E               	iorwf	(___fldiv@a+3)^0,w,c
  9246   000DFE  A4D8               	btfss	status,2,c
  9247   000E00  EF04  F007         	goto	u4041
  9248   000E04  EF06  F007         	goto	u4040
  9249   000E08                     u4041:
  9250   000E08  EF1E  F007         	goto	l4368
  9251   000E0C                     u4040:
  9252   000E0C  0E00               	movlw	0
  9253   000E0E  6E17               	movwf	___fldiv@b^0,c
  9254   000E10  0E00               	movlw	0
  9255   000E12  6E18               	movwf	(___fldiv@b+1)^0,c
  9256   000E14  0E00               	movlw	0
  9257   000E16  6E19               	movwf	(___fldiv@b+2)^0,c
  9258   000E18  0E00               	movlw	0
  9259   000E1A  6E1A               	movwf	(___fldiv@b+3)^0,c
  9260   000E1C  0E80               	movlw	128
  9261   000E1E  1219               	iorwf	(___fldiv@b+2)^0,f,c
  9262   000E20  0E7F               	movlw	127
  9263   000E22  121A               	iorwf	(___fldiv@b+3)^0,f,c
  9264   000E24                     l4362:
  9265   000E24  5027               	movf	___fldiv@sign^0,w,c
  9266   000E26  121A               	iorwf	(___fldiv@b+3)^0,f,c
  9267   000E28  C017  F017         	movff	___fldiv@b,?___fldiv
  9268   000E2C  C018  F018         	movff	___fldiv@b+1,?___fldiv+1
  9269   000E30  C019  F019         	movff	___fldiv@b+2,?___fldiv+2
  9270   000E34  C01A  F01A         	movff	___fldiv@b+3,?___fldiv+3
  9271   000E38  EF61  F008         	goto	l1331
  9272   000E3C                     l4368:
  9273   000E3C  502E               	movf	___fldiv@bexp^0,w,c
  9274   000E3E  A4D8               	btfss	status,2,c
  9275   000E40  EF24  F007         	goto	u4051
  9276   000E44  EF26  F007         	goto	u4050
  9277   000E48                     u4051:
  9278   000E48  EF30  F007         	goto	l4376
  9279   000E4C                     u4050:
  9280   000E4C  0E00               	movlw	0
  9281   000E4E  6E17               	movwf	?___fldiv^0,c
  9282   000E50  0E00               	movlw	0
  9283   000E52  6E18               	movwf	(?___fldiv+1)^0,c
  9284   000E54  0E00               	movlw	0
  9285   000E56  6E19               	movwf	(?___fldiv+2)^0,c
  9286   000E58  0E00               	movlw	0
  9287   000E5A  6E1A               	movwf	(?___fldiv+3)^0,c
  9288   000E5C  EF61  F008         	goto	l1331
  9289   000E60                     l4376:
  9290   000E60  502F               	movf	___fldiv@aexp^0,w,c
  9291   000E62  C02E  F01F         	movff	___fldiv@bexp,??___fldiv
  9292   000E66  6A20               	clrf	(??___fldiv+1)^0,c
  9293   000E68  5E1F               	subwf	??___fldiv^0,f,c
  9294   000E6A  0E00               	movlw	0
  9295   000E6C  5A20               	subwfb	(??___fldiv+1)^0,f,c
  9296   000E6E  0E7F               	movlw	127
  9297   000E70  241F               	addwf	??___fldiv^0,w,c
  9298   000E72  6E28               	movwf	___fldiv@new_exp^0,c
  9299   000E74  0E00               	movlw	0
  9300   000E76  2020               	addwfc	(??___fldiv+1)^0,w,c
  9301   000E78  6E29               	movwf	(___fldiv@new_exp+1)^0,c
  9302   000E7A  C017  F023         	movff	___fldiv@b,___fldiv@rem
  9303   000E7E  C018  F024         	movff	___fldiv@b+1,___fldiv@rem+1
  9304   000E82  C019  F025         	movff	___fldiv@b+2,___fldiv@rem+2
  9305   000E86  C01A  F026         	movff	___fldiv@b+3,___fldiv@rem+3
  9306   000E8A  0E00               	movlw	0
  9307   000E8C  6E17               	movwf	___fldiv@b^0,c
  9308   000E8E  0E00               	movlw	0
  9309   000E90  6E18               	movwf	(___fldiv@b+1)^0,c
  9310   000E92  0E00               	movlw	0
  9311   000E94  6E19               	movwf	(___fldiv@b+2)^0,c
  9312   000E96  0E00               	movlw	0
  9313   000E98  6E1A               	movwf	(___fldiv@b+3)^0,c
  9314   000E9A  0E00               	movlw	0
  9315   000E9C  6E2A               	movwf	___fldiv@grs^0,c
  9316   000E9E  0E00               	movlw	0
  9317   000EA0  6E2B               	movwf	(___fldiv@grs+1)^0,c
  9318   000EA2  0E00               	movlw	0
  9319   000EA4  6E2C               	movwf	(___fldiv@grs+2)^0,c
  9320   000EA6  0E00               	movlw	0
  9321   000EA8  6E2D               	movwf	(___fldiv@grs+3)^0,c
  9322   000EAA  0E00               	movlw	0
  9323   000EAC  6E2F               	movwf	___fldiv@aexp^0,c
  9324   000EAE  EF91  F007         	goto	l1333
  9325   000EB2                     l4386:
  9326   000EB2  502F               	movf	___fldiv@aexp^0,w,c
  9327   000EB4  B4D8               	btfsc	status,2,c
  9328   000EB6  EF5F  F007         	goto	u4061
  9329   000EBA  EF61  F007         	goto	u4060
  9330   000EBE                     u4061:
  9331   000EBE  EF78  F007         	goto	l4394
  9332   000EC2                     u4060:
  9333   000EC2  90D8               	bcf	status,0,c
  9334   000EC4  3623               	rlcf	___fldiv@rem^0,f,c
  9335   000EC6  3624               	rlcf	(___fldiv@rem+1)^0,f,c
  9336   000EC8  3625               	rlcf	(___fldiv@rem+2)^0,f,c
  9337   000ECA  3626               	rlcf	(___fldiv@rem+3)^0,f,c
  9338   000ECC  90D8               	bcf	status,0,c
  9339   000ECE  3617               	rlcf	___fldiv@b^0,f,c
  9340   000ED0  3618               	rlcf	(___fldiv@b+1)^0,f,c
  9341   000ED2  3619               	rlcf	(___fldiv@b+2)^0,f,c
  9342   000ED4  361A               	rlcf	(___fldiv@b+3)^0,f,c
  9343   000ED6  AE2D               	btfss	(___fldiv@grs+3)^0,7,c
  9344   000ED8  EF70  F007         	goto	u4071
  9345   000EDC  EF72  F007         	goto	u4070
  9346   000EE0                     u4071:
  9347   000EE0  EF73  F007         	goto	l1336
  9348   000EE4                     u4070:
  9349   000EE4  8017               	bsf	___fldiv@b^0,0,c
  9350   000EE6                     l1336:
  9351   000EE6  90D8               	bcf	status,0,c
  9352   000EE8  362A               	rlcf	___fldiv@grs^0,f,c
  9353   000EEA  362B               	rlcf	(___fldiv@grs+1)^0,f,c
  9354   000EEC  362C               	rlcf	(___fldiv@grs+2)^0,f,c
  9355   000EEE  362D               	rlcf	(___fldiv@grs+3)^0,f,c
  9356   000EF0                     l4394:
  9357   000EF0  501B               	movf	___fldiv@a^0,w,c
  9358   000EF2  5C23               	subwf	___fldiv@rem^0,w,c
  9359   000EF4  501C               	movf	(___fldiv@a+1)^0,w,c
  9360   000EF6  5824               	subwfb	(___fldiv@rem+1)^0,w,c
  9361   000EF8  501D               	movf	(___fldiv@a+2)^0,w,c
  9362   000EFA  5825               	subwfb	(___fldiv@rem+2)^0,w,c
  9363   000EFC  501E               	movf	(___fldiv@a+3)^0,w,c
  9364   000EFE  5826               	subwfb	(___fldiv@rem+3)^0,w,c
  9365   000F00  A0D8               	btfss	status,0,c
  9366   000F02  EF85  F007         	goto	u4081
  9367   000F06  EF87  F007         	goto	u4080
  9368   000F0A                     u4081:
  9369   000F0A  EF90  F007         	goto	l4400
  9370   000F0E                     u4080:
  9371   000F0E  8C2D               	bsf	(___fldiv@grs+3)^0,6,c
  9372   000F10  501B               	movf	___fldiv@a^0,w,c
  9373   000F12  5E23               	subwf	___fldiv@rem^0,f,c
  9374   000F14  501C               	movf	(___fldiv@a+1)^0,w,c
  9375   000F16  5A24               	subwfb	(___fldiv@rem+1)^0,f,c
  9376   000F18  501D               	movf	(___fldiv@a+2)^0,w,c
  9377   000F1A  5A25               	subwfb	(___fldiv@rem+2)^0,f,c
  9378   000F1C  501E               	movf	(___fldiv@a+3)^0,w,c
  9379   000F1E  5A26               	subwfb	(___fldiv@rem+3)^0,f,c
  9380   000F20                     l4400:
  9381   000F20  2A2F               	incf	___fldiv@aexp^0,f,c
  9382   000F22                     l1333:
  9383   000F22  0E19               	movlw	25
  9384   000F24  642F               	cpfsgt	___fldiv@aexp^0,c
  9385   000F26  EF97  F007         	goto	u4091
  9386   000F2A  EF99  F007         	goto	u4090
  9387   000F2E                     u4091:
  9388   000F2E  EF59  F007         	goto	l4386
  9389   000F32                     u4090:
  9390   000F32  5023               	movf	___fldiv@rem^0,w,c
  9391   000F34  1024               	iorwf	(___fldiv@rem+1)^0,w,c
  9392   000F36  1025               	iorwf	(___fldiv@rem+2)^0,w,c
  9393   000F38  1026               	iorwf	(___fldiv@rem+3)^0,w,c
  9394   000F3A  B4D8               	btfsc	status,2,c
  9395   000F3C  EFA2  F007         	goto	u4101
  9396   000F40  EFA4  F007         	goto	u4100
  9397   000F44                     u4101:
  9398   000F44  EFBC  F007         	goto	l4412
  9399   000F48                     u4100:
  9400   000F48  802A               	bsf	___fldiv@grs^0,0,c
  9401   000F4A  EFBC  F007         	goto	l4412
  9402   000F4E                     l4406:
  9403   000F4E  90D8               	bcf	status,0,c
  9404   000F50  3617               	rlcf	___fldiv@b^0,f,c
  9405   000F52  3618               	rlcf	(___fldiv@b+1)^0,f,c
  9406   000F54  3619               	rlcf	(___fldiv@b+2)^0,f,c
  9407   000F56  361A               	rlcf	(___fldiv@b+3)^0,f,c
  9408   000F58  AE2D               	btfss	(___fldiv@grs+3)^0,7,c
  9409   000F5A  EFB1  F007         	goto	u4111
  9410   000F5E  EFB3  F007         	goto	u4110
  9411   000F62                     u4111:
  9412   000F62  EFB4  F007         	goto	l1342
  9413   000F66                     u4110:
  9414   000F66  8017               	bsf	___fldiv@b^0,0,c
  9415   000F68                     l1342:
  9416   000F68  90D8               	bcf	status,0,c
  9417   000F6A  362A               	rlcf	___fldiv@grs^0,f,c
  9418   000F6C  362B               	rlcf	(___fldiv@grs+1)^0,f,c
  9419   000F6E  362C               	rlcf	(___fldiv@grs+2)^0,f,c
  9420   000F70  362D               	rlcf	(___fldiv@grs+3)^0,f,c
  9421   000F72  0628               	decf	___fldiv@new_exp^0,f,c
  9422   000F74  A0D8               	btfss	status,0,c
  9423   000F76  0629               	decf	(___fldiv@new_exp+1)^0,f,c
  9424   000F78                     l4412:
  9425   000F78  AE19               	btfss	(___fldiv@b+2)^0,7,c
  9426   000F7A  EFC1  F007         	goto	u4121
  9427   000F7E  EFC3  F007         	goto	u4120
  9428   000F82                     u4121:
  9429   000F82  EFA7  F007         	goto	l4406
  9430   000F86                     u4120:
  9431   000F86  0E00               	movlw	0
  9432   000F88  6E2F               	movwf	___fldiv@aexp^0,c
  9433   000F8A  AE2D               	btfss	(___fldiv@grs+3)^0,7,c
  9434   000F8C  EFCA  F007         	goto	u4131
  9435   000F90  EFCC  F007         	goto	u4130
  9436   000F94                     u4131:
  9437   000F94  EFF0  F007         	goto	l1344
  9438   000F98                     u4130:
  9439   000F98  0EFF               	movlw	255
  9440   000F9A  142A               	andwf	___fldiv@grs^0,w,c
  9441   000F9C  6E1F               	movwf	??___fldiv^0,c
  9442   000F9E  0EFF               	movlw	255
  9443   000FA0  142B               	andwf	(___fldiv@grs+1)^0,w,c
  9444   000FA2  6E20               	movwf	(??___fldiv+1)^0,c
  9445   000FA4  0EFF               	movlw	255
  9446   000FA6  142C               	andwf	(___fldiv@grs+2)^0,w,c
  9447   000FA8  6E21               	movwf	(??___fldiv+2)^0,c
  9448   000FAA  0E7F               	movlw	127
  9449   000FAC  142D               	andwf	(___fldiv@grs+3)^0,w,c
  9450   000FAE  6E22               	movwf	(??___fldiv+3)^0,c
  9451   000FB0  501F               	movf	??___fldiv^0,w,c
  9452   000FB2  1020               	iorwf	(??___fldiv+1)^0,w,c
  9453   000FB4  1021               	iorwf	(??___fldiv+2)^0,w,c
  9454   000FB6  1022               	iorwf	(??___fldiv+3)^0,w,c
  9455   000FB8  B4D8               	btfsc	status,2,c
  9456   000FBA  EFE1  F007         	goto	u4141
  9457   000FBE  EFE3  F007         	goto	u4140
  9458   000FC2                     u4141:
  9459   000FC2  EFE7  F007         	goto	l1345
  9460   000FC6                     u4140:
  9461   000FC6                     l4420:
  9462   000FC6  0E01               	movlw	1
  9463   000FC8  6E2F               	movwf	___fldiv@aexp^0,c
  9464   000FCA  EFF0  F007         	goto	l1344
  9465   000FCE                     l1345:
  9466   000FCE  A017               	btfss	___fldiv@b^0,0,c
  9467   000FD0  EFEC  F007         	goto	u4151
  9468   000FD4  EFEE  F007         	goto	u4150
  9469   000FD8                     u4151:
  9470   000FD8  EFF0  F007         	goto	l1344
  9471   000FDC                     u4150:
  9472   000FDC  EFE3  F007         	goto	l4420
  9473   000FE0                     l1344:
  9474   000FE0  502F               	movf	___fldiv@aexp^0,w,c
  9475   000FE2  B4D8               	btfsc	status,2,c
  9476   000FE4  EFF6  F007         	goto	u4161
  9477   000FE8  EFF8  F007         	goto	u4160
  9478   000FEC                     u4161:
  9479   000FEC  EF1C  F008         	goto	l4432
  9480   000FF0                     u4160:
  9481   000FF0  0E01               	movlw	1
  9482   000FF2  2617               	addwf	___fldiv@b^0,f,c
  9483   000FF4  0E00               	movlw	0
  9484   000FF6  2218               	addwfc	(___fldiv@b+1)^0,f,c
  9485   000FF8  2219               	addwfc	(___fldiv@b+2)^0,f,c
  9486   000FFA  221A               	addwfc	(___fldiv@b+3)^0,f,c
  9487   000FFC  A01A               	btfss	(___fldiv@b+3)^0,0,c
  9488   000FFE  EF03  F008         	goto	u4171
  9489   001002  EF05  F008         	goto	u4170
  9490   001006                     u4171:
  9491   001006  EF1C  F008         	goto	l4432
  9492   00100A                     u4170:
  9493   00100A  C017  F01F         	movff	___fldiv@b,??___fldiv
  9494   00100E  C018  F020         	movff	___fldiv@b+1,??___fldiv+1
  9495   001012  C019  F021         	movff	___fldiv@b+2,??___fldiv+2
  9496   001016  C01A  F022         	movff	___fldiv@b+3,??___fldiv+3
  9497   00101A  3422               	rlcf	(??___fldiv+3)^0,w,c
  9498   00101C  3222               	rrcf	(??___fldiv+3)^0,f,c
  9499   00101E  3221               	rrcf	(??___fldiv+2)^0,f,c
  9500   001020  3220               	rrcf	(??___fldiv+1)^0,f,c
  9501   001022  321F               	rrcf	??___fldiv^0,f,c
  9502   001024  C01F  F017         	movff	??___fldiv,___fldiv@b
  9503   001028  C020  F018         	movff	??___fldiv+1,___fldiv@b+1
  9504   00102C  C021  F019         	movff	??___fldiv+2,___fldiv@b+2
  9505   001030  C022  F01A         	movff	??___fldiv+3,___fldiv@b+3
  9506   001034  4A28               	infsnz	___fldiv@new_exp^0,f,c
  9507   001036  2A29               	incf	(___fldiv@new_exp+1)^0,f,c
  9508   001038                     l4432:
  9509   001038  BE29               	btfsc	(___fldiv@new_exp+1)^0,7,c
  9510   00103A  EF27  F008         	goto	u4181
  9511   00103E  5029               	movf	(___fldiv@new_exp+1)^0,w,c
  9512   001040  E108               	bnz	u4180
  9513   001042  2828               	incf	___fldiv@new_exp^0,w,c
  9514   001044  A0D8               	btfss	status,0,c
  9515   001046  EF27  F008         	goto	u4181
  9516   00104A  EF29  F008         	goto	u4180
  9517   00104E                     u4181:
  9518   00104E  EF34  F008         	goto	l4436
  9519   001052                     u4180:
  9520   001052  0E00               	movlw	0
  9521   001054  6E29               	movwf	(___fldiv@new_exp+1)^0,c
  9522   001056  6828               	setf	___fldiv@new_exp^0,c
  9523   001058  0E00               	movlw	0
  9524   00105A  6E17               	movwf	___fldiv@b^0,c
  9525   00105C  0E00               	movlw	0
  9526   00105E  6E18               	movwf	(___fldiv@b+1)^0,c
  9527   001060  0E00               	movlw	0
  9528   001062  6E19               	movwf	(___fldiv@b+2)^0,c
  9529   001064  0E00               	movlw	0
  9530   001066  6E1A               	movwf	(___fldiv@b+3)^0,c
  9531   001068                     l4436:
  9532   001068  BE29               	btfsc	(___fldiv@new_exp+1)^0,7,c
  9533   00106A  EF41  F008         	goto	u4190
  9534   00106E  5029               	movf	(___fldiv@new_exp+1)^0,w,c
  9535   001070  E106               	bnz	u4191
  9536   001072  0428               	decf	___fldiv@new_exp^0,w,c
  9537   001074  B0D8               	btfsc	status,0,c
  9538   001076  EF3F  F008         	goto	u4191
  9539   00107A  EF41  F008         	goto	u4190
  9540   00107E                     u4191:
  9541   00107E  EF4F  F008         	goto	l4440
  9542   001082                     u4190:
  9543   001082  0E00               	movlw	0
  9544   001084  6E29               	movwf	(___fldiv@new_exp+1)^0,c
  9545   001086  0E00               	movlw	0
  9546   001088  6E28               	movwf	___fldiv@new_exp^0,c
  9547   00108A  0E00               	movlw	0
  9548   00108C  6E17               	movwf	___fldiv@b^0,c
  9549   00108E  0E00               	movlw	0
  9550   001090  6E18               	movwf	(___fldiv@b+1)^0,c
  9551   001092  0E00               	movlw	0
  9552   001094  6E19               	movwf	(___fldiv@b+2)^0,c
  9553   001096  0E00               	movlw	0
  9554   001098  6E1A               	movwf	(___fldiv@b+3)^0,c
  9555   00109A  0E00               	movlw	0
  9556   00109C  6E27               	movwf	___fldiv@sign^0,c
  9557   00109E                     l4440:
  9558   00109E  C028  F02E         	movff	___fldiv@new_exp,___fldiv@bexp
  9559   0010A2  A02E               	btfss	___fldiv@bexp^0,0,c
  9560   0010A4  EF56  F008         	goto	u4201
  9561   0010A8  EF58  F008         	goto	u4200
  9562   0010AC                     u4201:
  9563   0010AC  EF5B  F008         	goto	l4446
  9564   0010B0                     u4200:
  9565   0010B0  8E19               	bsf	(___fldiv@b+2)^0,7,c
  9566   0010B2  EF5C  F008         	goto	l4448
  9567   0010B6                     l4446:
  9568   0010B6  9E19               	bcf	(___fldiv@b+2)^0,7,c
  9569   0010B8                     l4448:
  9570   0010B8  90D8               	bcf	status,0,c
  9571   0010BA  302E               	rrcf	___fldiv@bexp^0,w,c
  9572   0010BC  6E1A               	movwf	(___fldiv@b+3)^0,c
  9573   0010BE  EF12  F007         	goto	l4362
  9574   0010C2                     l1331:
  9575   0010C2  0012               	return		;funcret
  9576   0010C4                     __end_of___fldiv:
  9577                           	callstack 0
  9578                           
  9579 ;; *************** function _isr *****************
  9580 ;; Defined at:
  9581 ;;		line 14 in file "isr.c"
  9582 ;; Parameters:    Size  Location     Type
  9583 ;;		None
  9584 ;; Auto vars:     Size  Location     Type
  9585 ;;		None
  9586 ;; Return value:  Size  Location     Type
  9587 ;;                  1    wreg      void 
  9588 ;; Registers used:
  9589 ;;		wreg, status,2, status,0
  9590 ;; Tracked objects:
  9591 ;;		On entry : 0/0
  9592 ;;		On exit  : 0/0
  9593 ;;		Unchanged: 0/0
  9594 ;; Data sizes:     COMRAM   BANK0   BANK1   BANK2   BANK3   BANK4   BANK5
  9595 ;;      Params:         0       0       0       0       0       0       0
  9596 ;;      Locals:         0       0       0       0       0       0       0
  9597 ;;      Temps:          0       0       0       0       0       0       0
  9598 ;;      Totals:         0       0       0       0       0       0       0
  9599 ;;Total ram usage:        0 bytes
  9600 ;; Hardware stack levels used: 1
  9601 ;; This function calls:
  9602 ;;		Nothing
  9603 ;; This function is called by:
  9604 ;;		Interrupt level 2
  9605 ;; This function uses a non-reentrant model
  9606 ;;
  9607                           
  9608                           	psect	intcode
  9609   000008                     __pintcode:
  9610                           	callstack 0
  9611   000008                     _isr:
  9612                           	callstack 24
  9613                           
  9614                           ;incstack = 0
  9615   000008  825F               	bsf	int$flags,1,c	;set compiler interrupt flag (level 2)
  9616   00000A  ED4E  F013         	call	int_func,f	;refresh shadow registers
  9617                           
  9618                           	psect	intcode_body
  9619   00269C                     __pintcode_body:
  9620                           	callstack 24
  9621   00269C                     int_func:
  9622                           	callstack 24
  9623   00269C  0006               	pop		; remove dummy address from shadow register refresh
  9624   00269E                     
  9625                           ;isr.c: 16:     TMR0 = TMR0 + 3038;
  9626   00269E  0EDE               	movlw	222
  9627   0026A0  24D6               	addwf	214,w,c	;volatile
  9628   0026A2  6ED6               	movwf	214,c	;volatile
  9629   0026A4  0E0B               	movlw	11
  9630   0026A6  20D7               	addwfc	215,w,c	;volatile
  9631   0026A8  6ED7               	movwf	215,c	;volatile
  9632   0026AA                     
  9633                           ;isr.c: 19:     if ( TMR0IF )
  9634   0026AA  A4F2               	btfss	4082,2,c	;volatile
  9635   0026AC  EF5A  F013         	goto	i2u444_41
  9636   0026B0  EF5C  F013         	goto	i2u444_40
  9637   0026B4                     i2u444_41:
  9638   0026B4  EF79  F013         	goto	i2l533
  9639   0026B8                     i2u444_40:
  9640   0026B8                     
  9641                           ;isr.c: 20:     {;isr.c: 21:         if ( count_isr++ == 80 )
  9642   0026B8  0100               	movlb	0	; () banked
  9643   0026BA  4B60               	infsnz	_count_isr& (0+255),f,b
  9644   0026BC  2B61               	incf	(_count_isr+1)& (0+255),f,b
  9645   0026BE  0E51               	movlw	81
  9646   0026C0  1960               	xorwf	_count_isr& (0+255),w,b
  9647   0026C2  1161               	iorwf	(_count_isr+1)& (0+255),w,b
  9648   0026C4  A4D8               	btfss	status,2,c
  9649   0026C6  EF67  F013         	goto	i2u445_41
  9650   0026CA  EF69  F013         	goto	i2u445_40
  9651   0026CE                     i2u445_41:
  9652   0026CE  EF78  F013         	goto	i2l4632
  9653   0026D2                     i2u445_40:
  9654   0026D2                     
  9655                           ; BSR set to: 0
  9656                           ;isr.c: 22:         {;isr.c: 23:             if ( sec-- == 0 )
  9657   0026D2  065E               	decf	_sec^0,f,c
  9658   0026D4  285E               	incf	_sec^0,w,c
  9659   0026D6  A4D8               	btfss	status,2,c
  9660   0026D8  EF70  F013         	goto	i2u446_41
  9661   0026DC  EF72  F013         	goto	i2u446_40
  9662   0026E0                     i2u446_41:
  9663   0026E0  EF74  F013         	goto	i2l532
  9664   0026E4                     i2u446_40:
  9665   0026E4                     
  9666                           ; BSR set to: 0
  9667                           ;isr.c: 24:             {;isr.c: 25:                 sec = 60;
  9668   0026E4  0E3C               	movlw	60
  9669   0026E6  6E5E               	movwf	_sec^0,c
  9670   0026E8                     i2l532:
  9671                           
  9672                           ; BSR set to: 0
  9673                           ;isr.c: 27:             count_isr = 0;
  9674   0026E8  0E00               	movlw	0
  9675   0026EA  6F61               	movwf	(_count_isr+1)& (0+255),b
  9676   0026EC  0E00               	movlw	0
  9677   0026EE  6F60               	movwf	_count_isr& (0+255),b
  9678   0026F0                     i2l4632:
  9679                           
  9680                           ; BSR set to: 0
  9681                           ;isr.c: 29:         TMR0IF = 0;
  9682   0026F0  94F2               	bcf	4082,2,c	;volatile
  9683   0026F2                     i2l533:
  9684   0026F2  925F               	bcf	int$flags,1,c	;clear compiler interrupt flag (level 2)
  9685   0026F4  0011               	retfie		f
  9686   0026F6                     __end_of_isr:
  9687                           	callstack 0
  9688                           
  9689                           	psect	rparam
  9690   000000                     
  9691                           	psect	temp
  9692   00005F                     btemp:
  9693                           	callstack 0
  9694   00005F                     	ds	1
  9695   000000                     int$flags	set	btemp
  9696   000000                     wtemp8	set	btemp+1
  9697   000000                     ttemp5	set	btemp+1
  9698   000000                     ttemp6	set	btemp+4
  9699   000000                     ttemp7	set	btemp+8
  9700                           
  9701                           	psect	idloc
  9702                           
  9703                           ;Config register IDLOC0 @ 0x200000
  9704                           ;	unspecified, using default values
  9705   200000                     	org	2097152
  9706   200000  FF                 	db	255
  9707                           
  9708                           ;Config register IDLOC1 @ 0x200001
  9709                           ;	unspecified, using default values
  9710   200001                     	org	2097153
  9711   200001  FF                 	db	255
  9712                           
  9713                           ;Config register IDLOC2 @ 0x200002
  9714                           ;	unspecified, using default values
  9715   200002                     	org	2097154
  9716   200002  FF                 	db	255
  9717                           
  9718                           ;Config register IDLOC3 @ 0x200003
  9719                           ;	unspecified, using default values
  9720   200003                     	org	2097155
  9721   200003  FF                 	db	255
  9722                           
  9723                           ;Config register IDLOC4 @ 0x200004
  9724                           ;	unspecified, using default values
  9725   200004                     	org	2097156
  9726   200004  FF                 	db	255
  9727                           
  9728                           ;Config register IDLOC5 @ 0x200005
  9729                           ;	unspecified, using default values
  9730   200005                     	org	2097157
  9731   200005  FF                 	db	255
  9732                           
  9733                           ;Config register IDLOC6 @ 0x200006
  9734                           ;	unspecified, using default values
  9735   200006                     	org	2097158
  9736   200006  FF                 	db	255
  9737                           
  9738                           ;Config register IDLOC7 @ 0x200007
  9739                           ;	unspecified, using default values
  9740   200007                     	org	2097159
  9741   200007  FF                 	db	255
  9742                           
  9743                           	psect	config
  9744                           
  9745                           ; Padding undefined space
  9746   300000                     	org	3145728
  9747   300000  FF                 	db	255
  9748                           
  9749                           ;Config register CONFIG1H @ 0x300001
  9750                           ;	unspecified, using default values
  9751                           ;	Oscillator Selection bits
  9752                           ;	OSC = 0x7, unprogrammed default
  9753                           ;	Fail-Safe Clock Monitor Enable bit
  9754                           ;	FCMEN = 0x0, unprogrammed default
  9755                           ;	Internal/External Oscillator Switchover bit
  9756                           ;	IESO = 0x0, unprogrammed default
  9757   300001                     	org	3145729
  9758   300001  07                 	db	7
  9759                           
  9760                           ;Config register CONFIG2L @ 0x300002
  9761                           ;	unspecified, using default values
  9762                           ;	Power-up Timer Enable bit
  9763                           ;	PWRT = 0x1, unprogrammed default
  9764                           ;	Brown-out Reset Enable bits
  9765                           ;	BOREN = 0x3, unprogrammed default
  9766                           ;	Brown-out Reset Voltage bits
  9767                           ;	BORV = 0x3, unprogrammed default
  9768   300002                     	org	3145730
  9769   300002  1F                 	db	31
  9770                           
  9771                           ;Config register CONFIG2H @ 0x300003
  9772                           ;	unspecified, using default values
  9773                           ;	Watchdog Timer Enable bit
  9774                           ;	WDT = 0x1, unprogrammed default
  9775                           ;	Watchdog Timer Postscale Select bits
  9776                           ;	WDTPS = 0xF, unprogrammed default
  9777   300003                     	org	3145731
  9778   300003  1F                 	db	31
  9779                           
  9780                           ; Padding undefined space
  9781   300004                     	org	3145732
  9782   300004  FF                 	db	255
  9783                           
  9784                           ;Config register CONFIG3H @ 0x300005
  9785                           ;	unspecified, using default values
  9786                           ;	PORTB A/D Enable bit
  9787                           ;	PBADEN = 0x1, unprogrammed default
  9788                           ;	Low-Power Timer 1 Oscillator Enable bit
  9789                           ;	LPT1OSC = 0x0, unprogrammed default
  9790                           ;	MCLR Pin Enable bit
  9791                           ;	MCLRE = 0x1, unprogrammed default
  9792   300005                     	org	3145733
  9793   300005  82                 	db	130
  9794                           
  9795                           ;Config register CONFIG4L @ 0x300006
  9796                           ;	unspecified, using default values
  9797                           ;	Stack Full/Underflow Reset Enable bit
  9798                           ;	STVREN = 0x1, unprogrammed default
  9799                           ;	Single-Supply ICSP Enable bit
  9800                           ;	LVP = 0x1, unprogrammed default
  9801                           ;	Boot Block Size Select bit
  9802                           ;	BBSIZ = 0x0, unprogrammed default
  9803                           ;	Extended Instruction Set Enable bit
  9804                           ;	XINST = 0x0, unprogrammed default
  9805                           ;	Background Debugger Enable bit
  9806                           ;	DEBUG = 0x1, unprogrammed default
  9807   300006                     	org	3145734
  9808   300006  85                 	db	133
  9809                           
  9810                           ; Padding undefined space
  9811   300007                     	org	3145735
  9812   300007  FF                 	db	255
  9813                           
  9814                           ;Config register CONFIG5L @ 0x300008
  9815                           ;	unspecified, using default values
  9816                           ;	Code Protection bit
  9817                           ;	CP0 = 0x1, unprogrammed default
  9818                           ;	Code Protection bit
  9819                           ;	CP1 = 0x1, unprogrammed default
  9820                           ;	Code Protection bit
  9821                           ;	CP2 = 0x1, unprogrammed default
  9822                           ;	Code Protection bit
  9823                           ;	CP3 = 0x1, unprogrammed default
  9824   300008                     	org	3145736
  9825   300008  0F                 	db	15
  9826                           
  9827                           ;Config register CONFIG5H @ 0x300009
  9828                           ;	unspecified, using default values
  9829                           ;	Boot Block Code Protection bit
  9830                           ;	CPB = 0x1, unprogrammed default
  9831                           ;	Data EEPROM Code Protection bit
  9832                           ;	CPD = 0x1, unprogrammed default
  9833   300009                     	org	3145737
  9834   300009  C0                 	db	192
  9835                           
  9836                           ;Config register CONFIG6L @ 0x30000A
  9837                           ;	unspecified, using default values
  9838                           ;	Write Protection bit
  9839                           ;	WRT0 = 0x1, unprogrammed default
  9840                           ;	Write Protection bit
  9841                           ;	WRT1 = 0x1, unprogrammed default
  9842                           ;	Write Protection bit
  9843                           ;	WRT2 = 0x1, unprogrammed default
  9844                           ;	Write Protection bit
  9845                           ;	WRT3 = 0x1, unprogrammed default
  9846   30000A                     	org	3145738
  9847   30000A  0F                 	db	15
  9848                           
  9849                           ;Config register CONFIG6H @ 0x30000B
  9850                           ;	unspecified, using default values
  9851                           ;	Configuration Register Write Protection bit
  9852                           ;	WRTC = 0x1, unprogrammed default
  9853                           ;	Boot Block Write Protection bit
  9854                           ;	WRTB = 0x1, unprogrammed default
  9855                           ;	Data EEPROM Write Protection bit
  9856                           ;	WRTD = 0x1, unprogrammed default
  9857   30000B                     	org	3145739
  9858   30000B  E0                 	db	224
  9859                           
  9860                           ;Config register CONFIG7L @ 0x30000C
  9861                           ;	unspecified, using default values
  9862                           ;	Table Read Protection bit
  9863                           ;	EBTR0 = 0x1, unprogrammed default
  9864                           ;	Table Read Protection bit
  9865                           ;	EBTR1 = 0x1, unprogrammed default
  9866                           ;	Table Read Protection bit
  9867                           ;	EBTR2 = 0x1, unprogrammed default
  9868                           ;	Table Read Protection bit
  9869                           ;	EBTR3 = 0x1, unprogrammed default
  9870   30000C                     	org	3145740
  9871   30000C  0F                 	db	15
  9872                           
  9873                           ;Config register CONFIG7H @ 0x30000D
  9874                           ;	unspecified, using default values
  9875                           ;	Boot Block Table Read Protection bit
  9876                           ;	EBTRB = 0x1, unprogrammed default
  9877   30000D                     	org	3145741
  9878   30000D  40                 	db	64
  9879                           tosu	equ	0xFFF
  9880                           tosh	equ	0xFFE
  9881                           tosl	equ	0xFFD
  9882                           stkptr	equ	0xFFC
  9883                           pclatu	equ	0xFFB
  9884                           pclath	equ	0xFFA
  9885                           pcl	equ	0xFF9
  9886                           tblptru	equ	0xFF8
  9887                           tblptrh	equ	0xFF7
  9888                           tblptrl	equ	0xFF6
  9889                           tablat	equ	0xFF5
  9890                           prodh	equ	0xFF4
  9891                           prodl	equ	0xFF3
  9892                           indf0	equ	0xFEF
  9893                           postinc0	equ	0xFEE
  9894                           postdec0	equ	0xFED
  9895                           preinc0	equ	0xFEC
  9896                           plusw0	equ	0xFEB
  9897                           fsr0h	equ	0xFEA
  9898                           fsr0l	equ	0xFE9
  9899                           wreg	equ	0xFE8
  9900                           indf1	equ	0xFE7
  9901                           postinc1	equ	0xFE6
  9902                           postdec1	equ	0xFE5
  9903                           preinc1	equ	0xFE4
  9904                           plusw1	equ	0xFE3
  9905                           fsr1h	equ	0xFE2
  9906                           fsr1l	equ	0xFE1
  9907                           bsr	equ	0xFE0
  9908                           indf2	equ	0xFDF
  9909                           postinc2	equ	0xFDE
  9910                           postdec2	equ	0xFDD
  9911                           preinc2	equ	0xFDC
  9912                           plusw2	equ	0xFDB
  9913                           fsr2h	equ	0xFDA
  9914                           fsr2l	equ	0xFD9
  9915                           status	equ	0xFD8

Data Sizes:
    Strings     492
    Constant    0
    Data        43
    BSS         75
    Persistent  0
    Stack       0

Auto Spaces:
    Space          Size  Autos    Used
    COMRAM           94     63      94
    BANK0           160      0      87
    BANK1           256      0       0
    BANK2           256      0       0
    BANK3           256      0       0
    BANK4           256      0       0
    BANK5           256      0       0

Pointer List with Targets:

    puts@data	PTR unsigned char  size(2) Largest target is 19
		 -> STR_72(CODE[3]), STR_71(CODE[19]), 

    read_event@address	PTR unsigned char  size(2) Largest target is 1535
		 -> RAM(DATA[1535]), 

    read_event@data	PTR unsigned char  size(2) Largest target is 15
		 -> data(BANK0[15]), 

    store_event@data	PTR unsigned char  size(2) Largest target is 16
		 -> event(BANK0[16]), 

    store_password@pass	PTR unsigned char  size(2) Largest target is 4
		 -> input_pass(BANK0[4]), password(BANK0[4]), 

    clcd_print@data	PTR const unsigned char  size(2) Largest target is 17
		 -> STR_97(CODE[17]), STR_96(CODE[17]), STR_95(CODE[17]), STR_94(CODE[17]), 
		 -> STR_93(CODE[17]), STR_92(CODE[17]), STR_91(CODE[17]), STR_90(CODE[17]), 
		 -> STR_89(CODE[17]), STR_88(CODE[17]), STR_87(CODE[17]), STR_86(CODE[17]), 
		 -> STR_85(CODE[17]), STR_84(CODE[17]), STR_83(CODE[17]), STR_82(CODE[17]), 
		 -> STR_81(CODE[17]), STR_80(CODE[15]), STR_79(CODE[17]), STR_78(CODE[17]), 
		 -> STR_77(CODE[17]), STR_76(CODE[17]), STR_75(CODE[17]), STR_74(CODE[17]), 
		 -> STR_73(CODE[17]), STR_70(CODE[17]), STR_69(CODE[17]), STR_68(CODE[3]), 
		 -> STR_67(CODE[3]), STR_66(CODE[3]), STR_65(CODE[17]), STR_64(CODE[17]), 
		 -> STR_63(CODE[17]), STR_62(CODE[17]), STR_61(CODE[17]), STR_60(CODE[17]), 
		 -> STR_59(CODE[17]), STR_58(CODE[17]), STR_57(CODE[17]), STR_56(CODE[17]), 
		 -> data(BANK0[15]), STR_55(CODE[17]), STR_54(CODE[17]), STR_53(CODE[17]), 
		 -> STR_52(CODE[4]), STR_51(CODE[11]), STR_50(CODE[17]), STR_49(CODE[17]), 
		 -> STR_48(CODE[15]), STR_47(CODE[17]), STR_46(CODE[17]), STR_45(CODE[17]), 
		 -> STR_44(CODE[17]), STR_43(CODE[17]), STR_42(CODE[17]), STR_41(CODE[17]), 
		 -> STR_40(CODE[3]), STR_39(CODE[3]), STR_38(CODE[3]), STR_37(CODE[3]), 
		 -> STR_36(CODE[3]), STR_35(CODE[14]), STR_34(CODE[14]), STR_33(CODE[14]), 
		 -> STR_32(CODE[14]), STR_31(CODE[14]), STR_30(CODE[3]), STR_29(CODE[3]), 
		 -> STR_28(CODE[3]), STR_27(CODE[3]), STR_26(CODE[3]), STR_25(CODE[3]), 
		 -> STR_24(CODE[3]), STR_23(CODE[3]), STR_22(CODE[3]), STR_21(CODE[3]), 
		 -> STR_20(CODE[5]), STR_19(CODE[17]), time(BANK0[9]), STR_18(CODE[3]), 
		 -> STR_17(CODE[3]), STR_16(CODE[3]), STR_15(CODE[3]), STR_14(CODE[3]), 
		 -> STR_13(CODE[14]), STR_12(CODE[14]), STR_11(CODE[14]), STR_10(CODE[14]), 
		 -> STR_9(CODE[14]), STR_8(CODE[3]), STR_7(CODE[3]), STR_6(CODE[3]), 
		 -> STR_5(CODE[3]), STR_4(CODE[3]), STR_3(CODE[3]), STR_2(CODE[3]), 
		 -> STR_1(CODE[3]), 

    menu_eve	PTR unsigned char [5] size(2) Largest target is 3
		 -> STR_40(CODE[3]), STR_39(CODE[3]), STR_38(CODE[3]), STR_37(CODE[3]), 
		 -> STR_36(CODE[3]), STR_18(CODE[3]), STR_17(CODE[3]), STR_16(CODE[3]), 
		 -> STR_15(CODE[3]), STR_14(CODE[3]), 

    menu_opt	PTR unsigned char [5] size(2) Largest target is 14
		 -> STR_35(CODE[14]), STR_34(CODE[14]), STR_33(CODE[14]), STR_32(CODE[14]), 
		 -> STR_31(CODE[14]), STR_13(CODE[14]), STR_12(CODE[14]), STR_11(CODE[14]), 
		 -> STR_10(CODE[14]), STR_9(CODE[14]), 

    signature	PTR unsigned char [8] size(2) Largest target is 3
		 -> STR_30(CODE[3]), STR_29(CODE[3]), STR_28(CODE[3]), STR_27(CODE[3]), 
		 -> STR_26(CODE[3]), STR_25(CODE[3]), STR_24(CODE[3]), STR_23(CODE[3]), 
		 -> STR_8(CODE[3]), STR_7(CODE[3]), STR_6(CODE[3]), STR_5(CODE[3]), 
		 -> STR_4(CODE[3]), STR_3(CODE[3]), STR_2(CODE[3]), STR_1(CODE[3]), 


Critical Paths under _main in COMRAM

    _main->___fltol
    _view_log->_read_event
    _set_time->_clcd_print
    _menu->_read_event
    _read_event->___wmul
    _read_ext_eeprom->_i2c_write
    ___wmul->___awmod
    _init_config->_init_clcd
    _init_config->_init_ds1307
    _init_ds1307->_read_ds1307
    _init_ds1307->_write_ds1307
    _write_ds1307->_i2c_write
    _init_clcd->_clcd_write
    _enter_password->_store_password
    _download_log->_clcd_putch
    _puts->_putch
    ___awdiv->___awmod
    _display_time->_clcd_print
    _get_time->_read_ds1307
    _read_ds1307->_i2c_write
    _display_speed->_clcd_putch
    _display_event->_store_event
    _clear_log->_clcd_putch
    _store_event->_write_ext_eeprom
    _change_password->_store_password
    _write_ext_eeprom->_i2c_write
    _store_password->_clcd_putch
    _clcd_putch->___awdiv
    _clcd_print->_clcd_write
    ___xxtofl->_read_adc
    ___fltol->___fldiv
    ___fldiv->___xxtofl

Critical Paths under _isr in COMRAM

    None.

Critical Paths under _main in BANK0

    None.

Critical Paths under _isr in BANK0

    None.

Critical Paths under _main in BANK1

    None.

Critical Paths under _isr in BANK1

    None.

Critical Paths under _main in BANK2

    None.

Critical Paths under _isr in BANK2

    None.

Critical Paths under _main in BANK3

    None.

Critical Paths under _isr in BANK3

    None.

Critical Paths under _main in BANK4

    None.

Critical Paths under _isr in BANK4

    None.

Critical Paths under _main in BANK5

    None.

Critical Paths under _isr in BANK5

    None.

Call Graph Tables:

 ---------------------------------------------------------------------------------
 (Depth) Function   	        Calls       Base Space   Used Autos Params    Refs
 ---------------------------------------------------------------------------------
 (0) _main                                                 6     6      0  159427
                                             57 COMRAM     6     6      0
                            ___fldiv
                            ___fltol
                           ___xxtofl
                    _change_password
                         _clcd_print
                          _clear_log
                      _display_event
                      _display_speed
                       _display_time
                       _download_log
                     _enter_password
                        _init_config
                               _menu
                           _read_adc
                    _read_ext_eeprom
                      _read_switches
                           _set_time
                        _store_event
                           _view_log
 ---------------------------------------------------------------------------------
 (1) _view_log                                             6     6      0   17565
                                             19 COMRAM     6     6      0
                            ___awmod
                             ___wmul
                         _clcd_print
                         _clcd_putch
                         _read_event
 ---------------------------------------------------------------------------------
 (1) _set_time                                             3     3      0   12273
                                              5 COMRAM     3     3      0
                         _clcd_print
                       _write_ds1307
 ---------------------------------------------------------------------------------
 (1) _read_switches                                        1     1      0      44
                                              0 COMRAM     1     1      0
                           _scan_key
 ---------------------------------------------------------------------------------
 (2) _scan_key                                             0     0      0       0
 ---------------------------------------------------------------------------------
 (1) _read_adc                                             8     6      2      22
                                              0 COMRAM     8     6      2
 ---------------------------------------------------------------------------------
 (1) _menu                                                 4     4      0   18246
                                             19 COMRAM     4     4      0
                            ___awmod
                             ___wmul
                         _clcd_print
                         _clcd_putch
                         _read_event
                        _store_event
 ---------------------------------------------------------------------------------
 (2) _read_event                                           7     3      4     527
                                             12 COMRAM     7     3      4
                            ___awmod (ARG)
                             ___wmul (ARG)
                    _read_ext_eeprom
 ---------------------------------------------------------------------------------
 (3) _read_ext_eeprom                                      2     2      0      67
                                              1 COMRAM     2     2      0
                           _i2c_read
                      _i2c_rep_start
                          _i2c_start
                           _i2c_stop
                          _i2c_write
 ---------------------------------------------------------------------------------
 (2) ___wmul                                               6     2      4    1863
                                              6 COMRAM     6     2      4
                            ___awmod (ARG)
 ---------------------------------------------------------------------------------
 (1) _init_config                                          0     0      0    1614
                           _init_adc
                          _init_clcd
                        _init_ds1307
                           _init_i2c
                 _init_matrix_keypad
                        _init_timer0
 ---------------------------------------------------------------------------------
 (2) _init_timer0                                          0     0      0       0
 ---------------------------------------------------------------------------------
 (2) _init_matrix_keypad                                   0     0      0       0
 ---------------------------------------------------------------------------------
 (2) _init_i2c                                             0     0      0       0
 ---------------------------------------------------------------------------------
 (2) _init_ds1307                                          1     1      0     734
                                              3 COMRAM     1     1      0
                        _read_ds1307
                       _write_ds1307
 ---------------------------------------------------------------------------------
 (2) _write_ds1307                                         2     1      1     598
                                              1 COMRAM     2     1      1
                          _i2c_start
                           _i2c_stop
                          _i2c_write
 ---------------------------------------------------------------------------------
 (2) _init_clcd                                            2     2      0     880
                                              2 COMRAM     2     2      0
                         _clcd_write
 ---------------------------------------------------------------------------------
 (2) _init_adc                                             0     0      0       0
 ---------------------------------------------------------------------------------
 (1) _enter_password                                       5     5      0   18791
                                             21 COMRAM     5     5      0
                            ___awdiv
                            ___awmod
                         _clcd_print
                         _clcd_putch
                     _store_password
 ---------------------------------------------------------------------------------
 (1) _download_log                                         3     3      0   16108
                                             16 COMRAM     3     3      0
                            ___awdiv
                            ___awmod
                         _clcd_print
                         _clcd_putch
                          _init_uart
                              _putch
                               _puts
 ---------------------------------------------------------------------------------
 (2) _puts                                                 2     0      2     219
                                              1 COMRAM     2     0      2
                              _putch
 ---------------------------------------------------------------------------------
 (3) _putch                                                1     1      0      22
                                              0 COMRAM     1     1      0
 ---------------------------------------------------------------------------------
 (2) _init_uart                                            0     0      0       0
 ---------------------------------------------------------------------------------
 (2) ___awmod                                              6     2      4    1056
                                              0 COMRAM     6     2      4
 ---------------------------------------------------------------------------------
 (2) ___awdiv                                              8     4      4     756
                                              6 COMRAM     8     4      4
                            ___awmod (ARG)
 ---------------------------------------------------------------------------------
 (1) _display_time                                         0     0      0   11654
                         _clcd_print
                           _get_time
 ---------------------------------------------------------------------------------
 (2) _get_time                                             0     0      0      67
                        _read_ds1307
 ---------------------------------------------------------------------------------
 (3) _read_ds1307                                          2     2      0      67
                                              1 COMRAM     2     2      0
                           _i2c_read
                      _i2c_rep_start
                          _i2c_start
                           _i2c_stop
                          _i2c_write
 ---------------------------------------------------------------------------------
 (4) _i2c_rep_start                                        0     0      0       0
                           _i2c_idle
 ---------------------------------------------------------------------------------
 (4) _i2c_read                                             0     0      0       0
                         _i2c_no_ack
                        _i2c_rx_mode
 ---------------------------------------------------------------------------------
 (5) _i2c_rx_mode                                          0     0      0       0
                           _i2c_idle
 ---------------------------------------------------------------------------------
 (5) _i2c_no_ack                                           0     0      0       0
 ---------------------------------------------------------------------------------
 (1) _display_speed                                        2     0      2    3613
                                             16 COMRAM     2     0      2
                            ___lwdiv
                            ___lwmod
                         _clcd_putch
 ---------------------------------------------------------------------------------
 (2) ___lwmod                                              5     1      4     463
                                              0 COMRAM     5     1      4
 ---------------------------------------------------------------------------------
 (2) ___lwdiv                                              7     3      4     466
                                              0 COMRAM     7     3      4
 ---------------------------------------------------------------------------------
 (1) _display_event                                        3     3      0   12376
                                              8 COMRAM     3     3      0
                         _clcd_print
                        _store_event
 ---------------------------------------------------------------------------------
 (1) _clear_log                                            2     2      0   14688
                                             16 COMRAM     2     2      0
                         _clcd_print
                         _clcd_putch
                        _store_event
 ---------------------------------------------------------------------------------
 (1) _store_event                                          4     2      2     657
                                              4 COMRAM     4     2      2
                   _write_ext_eeprom
 ---------------------------------------------------------------------------------
 (1) _change_password                                      8     8      0   17423
                                             21 COMRAM     8     8      0
                         _clcd_print
                         _clcd_putch
                     _store_password
                   _write_ext_eeprom
 ---------------------------------------------------------------------------------
 (2) _write_ext_eeprom                                     3     2      1     218
                                              1 COMRAM     3     2      1
                          _i2c_start
                           _i2c_stop
                          _i2c_write
 ---------------------------------------------------------------------------------
 (4) _i2c_write                                            1     1      0      22
                                              0 COMRAM     1     1      0
                           _i2c_idle
 ---------------------------------------------------------------------------------
 (4) _i2c_stop                                             0     0      0       0
                           _i2c_idle
 ---------------------------------------------------------------------------------
 (4) _i2c_start                                            0     0      0       0
                           _i2c_idle
 ---------------------------------------------------------------------------------
 (5) _i2c_idle                                             0     0      0       0
 ---------------------------------------------------------------------------------
 (2) _store_password                                       5     3      2    2836
                                             16 COMRAM     5     3      2
                         _clcd_putch
 ---------------------------------------------------------------------------------
 (2) _clcd_putch                                           2     1      1    2444
                                             14 COMRAM     2     1      1
                            ___awdiv (ARG)
                            ___awmod (ARG)
                            ___lwdiv (ARG)
                            ___lwmod (ARG)
                         _clcd_write
 ---------------------------------------------------------------------------------
 (2) _clcd_print                                           3     0      3   11587
                                              2 COMRAM     3     0      3
                         _clcd_write
 ---------------------------------------------------------------------------------
 (3) _clcd_write                                           2     1      1     880
                                              0 COMRAM     2     1      1
 ---------------------------------------------------------------------------------
 (1) ___xxtofl                                            14    10      4     474
                                              8 COMRAM    14    10      4
                           _read_adc (ARG)
 ---------------------------------------------------------------------------------
 (1) ___fltol                                             10     6      4     381
                                             47 COMRAM    10     6      4
                            ___fldiv (ARG)
                           ___xxtofl (ARG)
                           _read_adc (ARG)
 ---------------------------------------------------------------------------------
 (1) ___fldiv                                             25    17      8    1551
                                             22 COMRAM    25    17      8
                           ___xxtofl (ARG)
                           _read_adc (ARG)
 ---------------------------------------------------------------------------------
 Estimated maximum stack depth 5
 ---------------------------------------------------------------------------------
 (Depth) Function   	        Calls       Base Space   Used Autos Params    Refs
 ---------------------------------------------------------------------------------
 (7) _isr                                                  0     0      0       0
 ---------------------------------------------------------------------------------
 Estimated maximum stack depth 7
 ---------------------------------------------------------------------------------

 Call Graph Graphs:

 _main (ROOT)
   ___fldiv
     ___xxtofl (ARG)
       _read_adc (ARG)
     _read_adc (ARG)
   ___fltol
     ___fldiv (ARG)
     ___xxtofl (ARG)
     _read_adc (ARG)
   ___xxtofl
   _change_password
     _clcd_print
       _clcd_write
     _clcd_putch
       ___awdiv (ARG)
         ___awmod (ARG)
       ___awmod (ARG)
       ___lwdiv (ARG)
       ___lwmod (ARG)
       _clcd_write (ARG)
     _store_password
       _clcd_putch
     _write_ext_eeprom
       _i2c_start
         _i2c_idle
       _i2c_stop
         _i2c_idle
       _i2c_write
         _i2c_idle
   _clcd_print
   _clear_log
     _clcd_print
     _clcd_putch
     _store_event
       _write_ext_eeprom
   _display_event
     _clcd_print
     _store_event
   _display_speed
     ___lwdiv
     ___lwmod
     _clcd_putch
   _display_time
     _clcd_print
     _get_time
       _read_ds1307
         _i2c_read
           _i2c_no_ack
           _i2c_rx_mode
             _i2c_idle
         _i2c_rep_start
           _i2c_idle
         _i2c_start
         _i2c_stop
         _i2c_write
   _download_log
     ___awdiv
     ___awmod
     _clcd_print
     _clcd_putch
     _init_uart
     _putch
     _puts
       _putch
   _enter_password
     ___awdiv
     ___awmod
     _clcd_print
     _clcd_putch
     _store_password
   _init_config
     _init_adc
     _init_clcd
       _clcd_write
     _init_ds1307
       _read_ds1307
       _write_ds1307
         _i2c_start
         _i2c_stop
         _i2c_write
     _init_i2c
     _init_matrix_keypad
     _init_timer0
   _menu
     ___awmod
     ___wmul
       ___awmod (ARG)
     _clcd_print
     _clcd_putch
     _read_event
       ___awmod (ARG)
       ___wmul (ARG)
       _read_ext_eeprom (ARG)
         _i2c_read
         _i2c_rep_start
         _i2c_start
         _i2c_stop
         _i2c_write
     _store_event
   _read_adc
   _read_ext_eeprom
   _read_switches
     _scan_key
   _set_time
     _clcd_print
     _write_ds1307
   _store_event
   _view_log
     ___awmod
     ___wmul
     _clcd_print
     _clcd_putch
     _read_event

 _isr (ROOT)

 Address spaces:
Name               Size   Autos  Total    Cost      Usage
BIGRAM             5FF      0       0      27        0.0%
BITBIGSFRl         281      0       0      25        0.0%
EEDATA             100      0       0       0        0.0%
BITBANK5           100      0       0      14        0.0%
BANK5              100      0       0      15        0.0%
BITBANK4           100      0       0      12        0.0%
BANK4              100      0       0      13        0.0%
BITBANK3           100      0       0      10        0.0%
BANK3              100      0       0      11        0.0%
BITBANK2           100      0       0       8        0.0%
BANK2              100      0       0       9        0.0%
BITBANK1           100      0       0       6        0.0%
BANK1              100      0       0       7        0.0%
BITBANK0            A0      0       0       4        0.0%
BANK0               A0      0      57       5       54.4%
BITCOMRAM           5E      0       0       0        0.0%
COMRAM              5E     3F      5E       1      100.0%
BITBIGSFRhhlh       19      0       0      17        0.0%
BITBIGSFRhl          F      0       0      24        0.0%
BITBIGSFRhhh         D      0       0      16        0.0%
BITBIGSFRhhllhh      B      0       0      18        0.0%
BITBIGSFRhhlllh      9      0       0      21        0.0%
BITBIGSFRhhlllh      8      0       0      20        0.0%
BITBIGSFRhhlllh      7      0       0      19        0.0%
BITBIGSFRhhllll      7      0       0      23        0.0%
BITBIGSFRhhlllh      2      0       0      22        0.0%
BIGSFR               0      0       0     200        0.0%
BITSFR_3             0      0       0     200        0.0%
SFR_3                0      0       0     200        0.0%
BITSFR_2             0      0       0     200        0.0%
SFR_2                0      0       0     200        0.0%
BITSFR_1             0      0       0     200        0.0%
SFR_1                0      0       0     200        0.0%
BITSFR               0      0       0     200        0.0%
SFR                  0      0       0     200        0.0%
STACK                0      0       0       2        0.0%
NULL                 0      0       0       0        0.0%
ABS                  0      0      B5      26        0.0%
DATA                 0      0      B5       3        0.0%
CODE                 0      0       0       0        0.0%


Microchip Technology PIC18 Macro Assembler V2.41 build 20230208172133 
Symbol Table                                                                                   Tue Jan 09 18:30:58 2024

              ___fldiv@aexp 002F                ___fldiv@bexp 002E                ___fldiv@sign 0027  
            clcd_print@addr 0005              clcd_print@data 0003                          l71 22D0  
                        l74 2A14                          l77 299E                          _GO 7E11  
              ___awdiv@sign 000C                          _ev 0058         ___wmul@multiplicand 0009  
        _init_matrix_keypad 2A40                         l124 283E                         l125 2842  
                       l134 25D2                         l128 2170                         l160 2A46  
                       l137 29E8                         l402 0C64                         l316 15F2  
                       l420 1EF8                         l421 1F16                         l333 1372  
                       l181 1C4A                         l350 0674                         l319 2480  
                       l191 1CD0                         l415 0D20                         l424 2400  
                       l184 1C78                         l176 1C22                         l168 2566  
                       l329 1FFC                         l433 0130                         l353 069E  
                       l193 1CE4                         l185 1CB4                         l177 1D0E  
                       l338 119E                         l354 0984                         l194 1D0C  
                       l186 1C8C                         l178 1C5E                         l195 1CF8  
                       l179 1C36                         l428 0538                         l188 1CA0  
                       l517 29B8                         l349 061C                         l446 0380  
                       l622 28FA                         l382 19E0                         l616 278C  
                       l722 2808                         l490 2984                         l571 2A16  
                       l643 28A6                         l619 2966                         l379 1A52  
                       l396 0D28                         l573 2A24                         l581 2A66  
                       l725 29BC                         l661 27CE                         l493 2736  
                       l574 2A26                         l590 2A3E                         l734 2878  
                       l646 28D0                         l495 2744                         l584 2A5E  
                       l656 2374                         l728 29D0                         l568 29FE  
                       l593 2A56                         l587 2A4E                         l596 2A6C  
                       l749 2948                         l599 2A32                         _CKE 7E3E  
                       l980 20C0                         l993 2220                         _GIE 7F97  
                       _RB1 7C09                         _RC0 7C10                         _RB2 7C0A  
                       _RC1 7C11                         _RB3 7C0B                         _RC2 7C12  
                       _RB4 7C0C                         _RB5 7C0D                         _RB6 7C0E  
                       _RB7 7C0F                         _RD7 7C1F                         _PEN 7E2A  
                       _SEN 7E28                         _PSA 7EAB                         _RX9 7D5E  
                       _SMP 7E3F                         _TX9 7D66               ?_display_time 0001  
                       _WUE 7DC1                         _ind 0052                         _sec 005E  
                       _isr 0008              clcd_putch@addr 000F              clcd_putch@data 0010  
              ___awmod@sign 0006                         prod 0FF3                         wreg 0FE8  
               main@adc_val 003C      read_switches@detection 0001         ?_init_matrix_keypad 0001  
              ___fltol@exp1 0039                        l1046 1E14                        l1240 24EC  
                      l1250 2692                        l1331 10C2                        l1411 1B42  
                      l1404 1AAA                        l3100 28E4                        l1333 0F22  
                      l1342 0F68                        l3102 28E8                        l3110 28AE  
                      l1407 1C06                        l1247 24F4                        l1344 0FE0  
                      l1336 0EE6                        l3104 28F4                        l3200 2122  
                      l3112 28B4                        l4000 0B16                        l1345 0FCE  
                      l1257 269A                        l1418 1B9E                        l3122 29D4  
                      l3050 2A68                        l3210 2150                        l3202 212C  
                      l3130 295C                        l3114 28BA                        l4010 0B42  
                      l4002 0B24                        l3060 2826                        l3052 280C  
                      l3044 2A16                        l3140 287C                        l4100 1ED8  
                      l3212 215E                        l3204 2134                        l3132 2962  
                      l3124 294C                        l3220 2A44                        l3116 28BE  
                      l3108 28AA                        l4020 0BA0                        l4012 0B58  
                      l4004 0B28                        l3070 2830                        l3062 2828  
                      l3054 281E                        l3150 2896                        l3142 2880  
                      l4110 2376                        l3046 2A50                        l3134 29BC  
                      l4102 1EE4                        l3214 2168                        l3206 213E  
                      l3126 2950                        l3230 29B4                        l3222 29A0  
                      l3118 28CA                        l3302 1C44                        l4030 0BE6  
                      l4022 0BA4                        l4014 0B68                        l3064 282A  
                      l3056 2822                        l3072 2A60                        l3144 2886  
                      l4200 0222                        l4120 23BC                        l4112 2380  
                      l3048 2A52                        l3080 2A48                        l3160 2284  
                      l3152 2222                        l3136 29CA                        l4104 1EE6  
                      l3216 2968                        l3208 2146                        l3128 2956  
                      l3240 29F8                        l3232 29B6                        l3224 29A8  
                      l3400 27AE                        l3312 1C72                        l4040 0C2E  
                      l4032 0BEA                        l4024 0BB8                        l4016 0B7A  
                      l4008 0B30                        l3066 282C                        l3058 2824  
                      l3074 2A62                        l3146 288C                        l4202 0232  
                      l4130 0014                        l4122 23D4                        l4114 239C  
                      l3090 2A30                        l3082 2A4A                        l3170 22CC  
                      l3162 228C                        l3154 223A                        l3410 2800  
                      l3138 29CE                        l4106 1F02                        l3250 275A  
                      l3242 29FA                        l3234 29EA                        l3218 2A40  
                      l3226 29B0                        l3402 27B0                        l3330 1CAE  
                      l4042 0C32                        l4034 0BFE                        l4018 0B8A  
                      l4026 0BC0                        l4050 0C6C                        l3068 282E  
                      l3172 2568                        l3076 2A58                        l3084 2A36  
                      l3148 2892                        l4300 04C4                        l4220 028E  
                      l4204 0242                        l4140 0062                        l4132 0026  
                      l4124 23E0                        l4116 23A8                        l3164 229A  
                      l3156 2248                        l3500 21F4                        l3412 2802  
                      l3420 2848                        l3180 20C2                        l3252 276E  
                      l3244 29FC                        l3236 29EE                        l3228 29B2  
                      l3404 27C0                        l3340 1CDE                        l3324 1C9A  
                      l3308 1C58                        l4052 0C7E                        l4060 0CBE  
                      l4044 0C38                        l4028 0BD0                        l4036 0C06  
                      l3174 2576                        l3078 2A5A                        l3086 2A3A  
                      l4302 04DC                        l4230 02D6                        l4222 029E  
                      l4206 0252                        l4150 00A4                        l4134 0046  
                      l4142 0066                        l3270 2308                        l4126 23F8  
                      l4118 23AC                        l3094 28D4                        l3166 22A6  
                      l3158 2268                        l3502 21FA                        l3414 2804  
                      l3406 27D0                        l3422 2858                        l3190 20F0  
                      l3182 20C6                        l3254 2778                        l3246 2746  
                      l3238 29F6                        l3334 1CCA                        l3318 1C86  
                      l4070 0D1C                        l4062 0CD0                        l4054 0C82  
                      l4046 0C4A                        l4038 0C18                        l4400 0F20  
                      l4320 0D36                        l3176 259E                        l3360 1F1A  
                      l4304 04EC                        l4240 0324                        l4224 02B0  
                      l4232 02E6                        l4216 026E                        l4160 00FC  
                      l4144 0076                        l4152 00B4                        l4136 0056  
                      l3280 234C                        l3272 231C                        l3264 22DE  
                      l3256 22D2                        l4128 23FC                        l3520 24AC  
                      l3512 2482                        l3088 2A28                        l3096 28D8  
                      l3168 22C8                        l3440 201C                        l3432 1FFE  
                      l3504 2200                        l3416 2806                        l3408 27FC  
                      l3424 285C                        l4080 1E6C                        l4072 1E16  
                      l3192 2100                        l3184 20CC                        l3248 274E  
                      l3352 1D06                        l3600 2546                        l4064 0CE6  
                      l4056 0CA4                        l4048 0C5C                        l4410 0F66  
                      l4402 0F32                        l4330 0D76                        l4322 0D44  
                      l3178 25A2                        l3362 1F2C                        l3370 1F52  
                      l4306 04FC                        l4250 0354                        l4242 0336  
                      l4234 02F6                        l4226 02C6                        l4218 027E  
                      l4170 0134                        l4154 00C6                        l4146 0086  
                      l4138 005A                        l3282 235C                        l3274 2328  
                      l3266 22F6                        l3258 22DA                        l3530 24E0  
                      l3522 24BA                        l3514 248A                        l3098 28DE  
                      l3450 2050                        l3442 202A                        l3434 2002  
                      l3506 2210                        l3418 2844                        l4090 1E8C  
                      l4082 1E84                        l4074 1E26                        l3194 210A  
                      l3186 20CE                        l3426 2924                        l3346 1CF2  
                      l3290 1C1C                        l3610 2564                        l4066 0CF6  
                      l4420 0FC6                        l4404 0F48                        l4412 0F78  
                      l4340 0D9C                        l4332 0D78                        l4324 0D46  
                      l4500 1A56                        l3372 1F64                        l3380 1F88  
                      l3364 1F30                        l4260 03D2                        l4252 037E  
                      l4244 034C                        l4236 0306                        l4228 02D2  
                      l4180 01AC                        l4172 0150                        l4156 00D6  
                      l4148 0096                        l3284 2370                        l3276 2338  
                      l3268 22F8                        l3620 13A6                        l3532 24E6  
                      l3524 24C0                        l3516 249C                        l3540 265A  
                      l3460 208A                        l3452 2058                        l3444 2032  
                      l3436 2010                        l3508 2218                        l4092 1E8E  
                      l4084 1E86                        l4076 1E44                        l3700 1120  
                      l3196 2112                        l3188 20E6                        l3428 2940  
                      l3356 1D0C                        l4068 0D08                        l4430 1034  
                      l4414 0F86                        l4406 0F4E                        l4350 0DDC  
                      l4342 0DAA                        l4326 0D56                        l4334 0D80  
                      l4318 0D2A                        l4502 1A66                        l3390 1FF4  
                      l3382 1FAA                        l3374 1F68                        l3366 1F40  
                      l4262 03EA                        l4254 0384                        l4238 0316  
                      l4190 01DC                        l4182 01B0                        l4174 0162  
                      l4166 0104                        l4158 00E6                        l3278 233A  
                      l3630 13E4                        l3622 13AA                        l3614 1376  
                      l3526 24D6                        l3518 24A4                        l3542 2668  
                      l3534 2638                        l3550 2A00                        l3470 20B0  
                      l3462 2092                        l3454 2060                        l3446 2036  
                      l3438 2018                        l4094 1E92                        l4086 1E88  
                      l4078 1E62                        l3710 116A                        l3702 1130  
                      l3198 211C                        l3606 2550                        l4440 109E  
                      l4424 0FF0                        l4432 1038                        l4416 0F8A  
                      l4408 0F58                        l4360 0E1C                        l4352 0DDE  
                      l4344 0DAC                        l4336 0D90                        l4328 0D66  
                      l4520 1B2C                        l4512 1AE4                        l4504 1A74  
                      l3384 1FBA                        l3376 1F78                        l3368 1F4C  
                      l4280 0450                        l4272 040E                        l4264 03FA  
                      l4256 03A0                        l4192 01DE                        l4184 01B4  
                      l4176 0182                        l4168 012E                        l3640 141C  
                      l3632 13F0                        l3624 13BC                        l3616 1386  
                      l3528 24DE                        l3544 267E                        l3536 264A  
                      l3552 2A04                        l3472 20B8                        l3464 2094  
                      l3456 206E                        l3448 203E                        l3480 2184  
                      l4096 1E9E                        l4088 1E8A                        l3720 11A2  
                      l3704 113E                        l3560 2992                        l3392 278E  
                      l3800 0628                        l3296 1C30                        l3288 1C08  
                      l3608 2560                        l4600 17C8                        l4442 10A2  
                      l4434 1052                        l4426 0FFC                        l4418 0F98  
                      l4370 0E4C                        l4362 0E24                        l4346 0DBC  
                      l4354 0DE6                        l4338 0D96                        l4530 1BAC  
                      l4522 1B38                        l4514 1AEC                        l4506 1ABA  
                      l3386 1FD0                        l4282 0460                        l4274 0426  
                      l4266 040A                        l4258 03B2                        l4194 01EE  
                      l4178 019A                        l4186 01BC                        l3650 1462  
                      l3642 142C                        l3634 1402                        l3626 13CE  
                      l3618 1396                        l3546 2686                        l3538 2652  
                      l3466 209A                        l3458 2074                        l3490 21B8  
                      l3482 218C                        l4098 1EA6                        l3730 120C  
                      l3722 11BE                        l3706 1150                        l3562 2996  
                      l3554 2986                        l3810 06B2                        l3802 0646  
                      l3570 2712                        l4610 17F8                        l4602 17D2  
                      l4444 10B0                        l4436 1068                        l4428 100A  
                      l4380 0E8A                        l4372 0E4C                        l4364 0E28  
                      l4356 0DF6                        l4348 0DCC                        l4540 1BF4  
                      l4532 1BAE                        l4524 1B74                        l4516 1AF8  
                      l4508 1AD0                        l3388 1FDC                        l4284 0470  
                      l4276 0428                        l4196 01FA                        l4188 01CC  
                      l3660 1494                        l3652 146A                        l3644 143C  
                      l3636 1406                        l3548 268C                        l3580 2448  
                      l3468 20A0                        l3492 21C0                        l3484 2190  
                      l3476 2172                        l3740 1252                        l3732 1210  
                      l3724 11D0                        l3716 1172                        l3708 1166  
                      l3564 299A                        l3556 298A                        l3820 06EE  
                      l3812 06B6                        l3804 0678                        l4612 1800  
                      l4604 17DC                        l4446 10B6                        l4438 1082  
                      l4390 0ED6                        l4382 0E9A                        l4358 0E0C  
                      l4470 1D7A                        l4462 1D3A                        l4542 1BF6  
                      l4534 1BB2                        l4526 1B80                        l4518 1B2A  
                      l4286 048C                        l4278 0438                        l4198 020A  
                      l3670 1524                        l3662 14A4                        l3654 147C  
                      l3646 144C                        l3638 140A                        l3582 2464  
                      l3574 2402                        l3494 21C8                        l3486 219E  
                      l3478 2176                        l3750 1284                        l3742 1256  
                      l3734 1220                        l3726 11F0                        l3718 119C  
                      l3558 298E                        l3398 2792                        l3830 073A  
                      l3814 06C2                        l3806 0688                        l3566 26F8  
                      l3910 189A                        l3902 186A                        l4606 17E6  
                      l4550 15F8                        l4448 10B8                        l4392 0EE4  
                      l4384 0EAA                        l4376 0E60                        l4368 0E3C  
                      l4480 1DAA                        l4472 1D88                        l4464 1D64  
                      l4456 1D10                        l4536 1BD6                        l4528 1B8E  
                      l4296 0494                        l3680 15A4                        l3672 1534  
                      l3664 14C4                        l3656 1480                        l3576 2408  
                      l3496 21D6                        l3488 21A6                        l3752 129C  
                      l3744 1258                        l3736 123A                        l3728 1208  
                      l3840 077C                        l3832 074C                        l3816 06DA  
                      l3808 069A                        l3824 0702                        l3568 270C  
                      l3592 2510                        l3584 24F8                        l3920 18E8  
                      l3912 18B0                        l3904 187C                        l4608 17F0  
                      l4616 180A                        l4560 166A                        l4552 15FE  
                      l4394 0EF0                        l4386 0EB2                        l4378 0E7A  
                      l4490 1DD4                        l4482 1DB4                        l4466 1D66  
                      l4458 1D26                        l4538 1BE6                        l4298 04A4  
                      l3674 1546                        l3682 15D2                        l3666 14E2  
                      l3658 1484                        l3578 2428                        l3498 21EC  
                      l3770 1346                        l3762 12D6                        l3746 1268  
                      l3738 1242                        l3754 12AC                        l3690 10D6  
                      l3850 07B4                        l3842 078E                        l3834 0754  
                      l3826 0714                        l3818 06DE                        l3594 2520  
                      l3586 2508                        l3930 193C                        l3914 18C0  
                      l3922 18F0                        l3906 1880                        l4570 1690  
                      l4562 1676                        l4554 1602                        l4546 15F4  
                      l4396 0F0E                        l4388 0EC2                        l4492 1DE4  
                      l4468 1D76                        l3684 15E2                        l3676 1566  
                      l3668 1514                        l3772 1366                        l3764 12F6  
                      l3756 12BC                        l3748 1274                        l3692 10E8  
                      l3852 07D6                        l3860 080A                        l3844 0792  
                      l3836 0766                        l3828 072A                        l3780 054E  
                      l3596 2526                        l3940 1988                        l3932 194C  
                      l3924 1902                        l3916 18D2                        l3908 1888  
                      l4660 181E                        l4580 171C                        l4572 1692  
                      l4556 165A                        l4548 15F8                        l4398 0F10  
                      l4494 1DF4                        l4478 1DA0                        l3686 15E6  
                      l3678 1586                        l3766 1314                        l3758 12C0  
                      l3694 1108                        l3870 085C                        l3862 081C  
                      l3854 07E6                        l3838 0778                        l3790 05BC  
                      l3846 079E                        l3782 0552                        l3598 2536  
                      l3950 19F8                        l3942 1998                        l3926 1906  
                      l3918 18E4                        l4590 1766                        l4582 1724  
                      l4574 16A2                        l4558 165E                        l4496 1E04  
                      l4488 1DC8                        l3696 1118                        l3688 10C6  
                      l3880 08A2                        l3872 086E                        l3864 0832  
                      l3856 07F6                        l3848 07B0                        l3792 05C2  
                      l3784 0574                        l3960 09A8                        l3952 1A04  
                      l3944 19AA                        l3928 1928                        l3936 1960  
                      l4592 1772                        l4584 1734                        l4576 16FA  
                      l4568 167A                        l3890 08FA                        l3874 0884  
                      l3866 0842                        l3882 08AE                        l3794 05D2  
                      l3786 0584                        l3778 053C                        l3970 09F8  
                      l3962 09B6                        l3954 1A42                        l3946 19DC  
                      l3938 1972                        l4594 177E                        l4586 1744  
                      l4578 170C                        l3892 091A                        l3884 08BE  
                      l3876 0888                        l3868 0854                        l3796 05DA  
                      l3788 05A4                        l3980 0A50                        l3972 0A0C  
                      l3964 09CA                        l3956 0988                        l3948 19E8  
                      l4596 17B2                        l4588 1754                        l3894 0942  
                      l3886 08D6                        l3878 089E                        l3798 0620  
                      l3990 0AD0                        l3982 0A60                        l3974 0A1C  
                      l3966 09DA                        l3958 0998                        l4598 17B8  
                      l3896 0954                        l3888 08E6                        l3992 0ADA  
                      l3984 0A72                        l3976 0A2E                        l3968 09EA  
                      _ADFM 7E07                        l3898 0974                        l3994 0AE4  
                      l3986 0A76                        l3978 0A3C                        l3996 0AEE  
                      l3988 0A98                        ?_isr 0001                        l3998 0AFE  
                      _ADON 7E10                        STR_1 2FED                        STR_2 2FEA  
                      STR_3 2FD5                        STR_4 2FD8                        STR_5 2FDB  
                      STR_6 2FDE                        STR_7 2FF6                        STR_8 2FD2  
                      STR_9 2F86                        _BRGH 7D62                        _CREN 7D5C  
                      _T0CS 7EAD                        _FERR 7D5A                        u3000 1130  
                      u3001 112C                        u3010 1150                        u3011 114C  
                      _CSRC 7D67                        u2300 2248                        u3020 119C  
                      u3100 05D2                        u2301 2244                        u3021 1198  
                      u3101 05CE                        u2310 259A                        u3030 11BE  
                      u3110 0688                        u3031 11BA                        u3111 0684  
                      u4000 0D66                        u2320 25C2                        u3040 11D0  
                      u3200 078E                        u3120 069A                        u2400 1C1C  
                      u4001 0D62                        u3041 11CC                        u3201 078A  
                      u3121 0696                        u2401 1C18                        u4010 0DAA  
                      u2330 25D2                        u2250 2A24                        u3050 1252  
                      u3210 07B0                        u3130 06B2                        u2410 1C30  
                      u4011 0DA6                        u2331 25CE                        u2251 2A20  
                      u3051 124E                        u3211 07AC                        u3131 06AE  
                      u2411 1C2C                        u4100 0F48                        u4020 0DBC  
                      u2260 281C                        u2340 2308                        u3060 12BC  
                      u3300 08BE                        u3220 07D6                        u3140 0714  
                      u2500 1CF2                        u2420 1C44                        u4101 0F44  
                      u4021 0DB8                        u2261 2816                        u2317 2590  
                      u2341 2304                        u3061 12B8                        u3301 08BA  
                      u3221 07D2                        u3141 0710                        u2501 1CEE  
                      u2421 1C40                        u4110 0F66                        u4030 0DCC  
                      u2350 231C                        u3070 12D2                        u3310 08E6  
                      u3230 081C                        u3150 072A                        u2510 1D06  
                      u2430 1C58                        u4111 0F62                        u4031 0DC8  
                      u2327 25B8                        u2351 2318                        u3071 12CE  
                      u3311 08E2                        u3231 0818                        u3151 0726  
                      u2511 1D02                        u2431 1C54                        u4200 10B0  
                      u4120 0F86                        u4040 0E0C                        u2280 283E  
                      u2520 1F2C                        u2360 2338                        u2600 202A  
                      u3320 0954                        u3240 0832                        u3160 073A  
                      u3080 054E                        u2440 1C72                        u3400 1928  
            ?_display_event 0001                        u4201 10AC                        u4121 0F82  
                      u4041 0E08                        u2281 283A                        u2521 1F28  
                      u2361 2334                        u2601 2026                        u3321 0950  
                      u3241 082E                        u3161 0736                        u3081 054A  
                      u2441 1C6E                        u3401 1924                        u4130 0F98  
                      u4050 0E4C                        u4210 1D26                        u2530 1F64  
                      u2370 234C                        u2610 2050                        u2290 29CA  
                      u3250 0842                        u3170 074C                        u3090 0574  
                      u2450 1C86                        u3410 1972                        u3330 187C  
                      u4131 0F94                        u4051 0E48                        u4211 1D22  
                      u2275 281E                        u2531 1F60                        u2371 2348  
                      u2611 204C                        u2291 29C6                        u3251 083E  
                      u3171 0748                        u3091 0570                        u2451 1C82  
                      u3411 196E                        u3331 1878                        u4140 0FC6  
                      u4060 0EC2                        u4220 1D5A                        u4300 1AD0  
                      u2540 1FAA                        u2380 235C                        u2620 206E  
                      u2700 2210                        u3260 0854                        u3180 0766  
                      u2460 1C9A                        u3500 0A2E                        u3420 1988  
                      u3340 189A                        u4141 0FC2                        u4061 0EBE  
                      u4301 1ACC                        u2541 1FA6                        u2381 2358  
                      u2621 206A                        u2701 220C                        u3261 0850  
                      u3181 0762                        u2461 1C96                        u3501 0A2A  
                      u3421 1984                        u3341 1896                        u4150 0FDC  
                      u4070 0EE4                        u4230 1D88                        u4310 1B26  
                      u2550 1FD0                        u2390 2370                        u2710 249C  
                      u2630 208A                        u3270 086E                        u3190 0778  
                      u2470 1CAE                        u3510 0A3C                        u3430 1998  
                      u3350 18B0                        u4151 0FD8                        u4071 0EE0  
                      u4231 1D84                        u4311 1B22                        u2551 1FCC  
                      u2391 236C                        u2711 2498                        u2631 2086  
                      u3271 086A                        u3191 0774                        u2471 1CAA  
                      u3511 0A38                        u3431 1994                        u3351 18AC  
                      u4160 0FF0                        u4080 0F0E                        u4240 1D9C  
                      u4320 1B70                        u2560 1FF4                        u2720 24BA  
                      u2640 20B0                        u3280 0884                        u2480 1CCA  
                      u2800 2536                        u3600 0BB8                        u3520 0A72  
                      u3440 19AA                        u3360 18C0                        u4400 171C  
                      u4161 0FEC                        u4081 0F0A                        u4241 1D98  
                      u4225 1D50                        u4321 1B6C                        u2561 1FF0  
                      u2721 24B6                        u2641 20AC                        u3281 0880  
                      u2481 1CC6                        u2801 2532                        u3601 0BB4  
                      u3521 0A6E                        u3441 19A6                        u3361 18BC  
                      u4401 1718                        u4170 100A                        u4090 0F32  
                      u4250 1DC4                        u4330 1B8E                        u2730 24D6  
                      u2650 2184                        u2570 27C0                        u3290 089E  
                      u2490 1CDE                        u2810 2546                        u3610 0BD0  
                      u3530 0A98                        u3450 19DC                        u3370 18D2  
                      u4410 1744                        u4171 1006                        u4091 0F2E  
                      u4251 1DC0                        u4331 1B8A                        u2731 24D2  
                      u2651 2180                        u2571 27BC                        u3291 089A  
                      u2491 1CDA                        u2811 2542                        u3611 0BCC  
                      u3531 0A94                        u3451 19D8                        u3371 18CE  
                      u4411 1740                        u4180 1052                        u4260 1DE4  
                      u4340 1B9E                        u2900 142C                        u2740 264A  
                      u2660 219E                        u2580 2878                        u2820 2560  
                      u3700 0CD0                        u3620 0BE6                        u3540 0B42  
                      u3460 09A8                        u3380 18E4                        u4420 1754  
                      u4181 104E                        u4261 1DE0                        u4341 1B9A  
                      u2901 1428                        u2741 2646                        u2661 219A  
                      u2581 2874                        u2821 255C                        u3701 0CCC  
                      u3621 0BE2                        u3541 0B3E                        u3461 09A4  
                      u3381 18E0                        u4421 1750                        u4190 1082  
                      u4270 1DF4                        u4350 1BAC                        u2910 143C  
                      u2830 1386                        u2750 2668                        u2590 2010  
                      u2670 21B8                        u3710 0CE6                        u3630 0BFE  
                      u3550 0B58                        u3470 09B6                        u3390 1902  
                      u4430 1766                        u4191 107E                        u4271 1DF0  
                      u4351 1BA8                        u2911 1438                        u2831 1382  
                      u2751 2664                        u2591 200C                        u2671 21B4  
                      u3711 0CE2                        u3631 0BFA                        u3551 0B54  
                      u3471 09B2                        u3391 18FE                        u4431 1762  
                      u4360 1BE6                        u4280 1A66                        u3800 00C6  
                      u2920 144C                        u2840 1396                        u2760 267E  
                      u2680 21D6                        u3720 0CF6                        u3640 0C18  
                      u3560 0B68                        u3480 09EA                        u4361 1BE2  
                      u4281 1A62                        u3801 00C2                        u2921 1448  
                      u2841 1392                        u2761 267A                        u2681 21D2  
                      u3721 0CF2                        u3641 0C14                        u3561 0B64  
                      u3481 09E6                        u4370 1BF4                        u4290 1A74  
                      u3810 00D6                        u2930 145E                        u2850 13BC  
                      u2690 21EC                        u2770 2744                        u3730 0D08  
                      u3650 0C2E                        u3570 0B7A                        u3490 09F8  
                      u4371 1BF0                        u4291 1A70                        u3811 00D2  
                      u2931 145A                        u2851 13B8                        u2691 21E8  
                      u4507 20D8                        u2771 2740                        u3731 0D04  
                      u3651 0C2A                        u3571 0B76                        u3491 09F4  
                      _PEIE 7F96                        u3900 02F6                        u3820 00E6  
                      u2940 147C                        u2860 13CE                        u2780 2508  
                      u3740 0D1C                        u3660 0C4A                        u3580 0B8A  
                      u4380 16A2                        u3901 02F2                        u3821 00E2  
                      u2941 1478                        u2861 13CA                        u4517 20F6  
                      u2781 2504                        u3741 0D18                        u3661 0C46  
                      u3581 0B86                        u4381 169E                        u3910 0316  
                      u3830 012E                        u2950 1494                        u2870 13E0  
                      u3750 1EF8                        u2790 2520                        u3670 0C5C  
                      u3590 0BA0                        u4390 170C                        u3911 0312  
                      u3831 012A                        u2951 1490                        u2871 13DC  
                      u3751 1EF4                        u4607 1E76                        u4527 210C  
                      u2791 251C                        u3671 0C58                        u3591 0B9C  
                      u4391 1708                        u3920 0336                        u3840 0150  
                      u3760 0026                        u2960 14A4                        u2880 1402  
                      u3680 0C7E                        u3921 0332                        u3841 014C  
                      u3761 0022                        u4617 23C6                        u2961 14A0  
                      u2881 13FE                        u4537 212E                        u3681 0C7A  
                      u3930 037E                        u3850 0162                        u3770 0076  
                      u2970 1524                        u2890 141C                        u3690 0CA4  
                      u4707 0442                        u3931 037A                        u3851 015E  
                      u3771 0072                        u4627 23EA                        u2971 1520  
                      u2891 1418                        u4547 2140                        u3691 0CA0  
                      _RCIE 7CED                        u3940 03A0                        u3860 01CC  
                      u3780 0086                        u2980 15E2                        _RCEN 7E2B  
                      _RCIF 7CF5                        u4717 04CE                        u3941 039C  
                      u3861 01C8                        u4637 00F0                        u3781 0082  
                      u2981 15DE                        u4557 2156                        u3950 03B2  
                      u3870 0242                        u3790 0096                        u2990 10E8  
                      u4727 0506                        u3951 03AE                        u3871 023E  
                      u4647 018C                        u3791 0092                        u2991 10E4  
                      u4567 216A                        u4487 0B08                        u3960 0438  
                      u3880 027E                        u4737 289C                        u3961 0434  
                      u3881 027A                        u4657 0214                        u4577 115A  
                      u4497 05AE                        u3970 04A4                        u3890 029E  
                      u3971 04A0                        u3891 029A                        u4667 025C  
                      u4587 11FA                        u3980 0D44                        u3981 0D40  
                      u4677 02BA                        u4597 128E                        u3990 0D56  
                      u3991 0D52                        u4687 0340                        u4697 03DC  
                      _OERR 7D59                        _SCKP 7DC4                        _RBPU 7F8F  
                      _TMR0 0FD6                        _SPEN 7D5F                        _RSEN 7E29  
                      _SREN 7D5D                        _TRMT 7D61                        _TXIE 7CEC  
                      _TXEN 7D65                        _TXIF 7CF4                        _SYNC 7D64  
            ?_display_speed 0011                        _data 0073                        _gear 0055  
                      _flag 0054                        _main 15F4                        _line 004D  
                      _menu 053A                        _mode 0049                        _wait 0043  
                      _time 0082                        fsr0h 0FEA                        _star 004C  
                      indf0 0FEF                        fsr2h 0FDA                        fsr0l 0FE9  
                      indf2 0FDF                        fsr1l 0FE1                        fsr2l 0FD9  
                      btemp 005F                        _puts 2844                        prodh 0FF4  
                      prodl 0FF3                        start 000E             ___fldiv@new_exp 0028  
      ??_init_matrix_keypad 0001                ___param_bank 0000              clcd_write@byte 0002  
               _store_event 22D2               _i2c_rep_start 2A48               ??_i2c_rx_mode 0001  
              _total_events 0057                       ??_isr 0001                ?_init_ds1307 0001  
             ___fltol@sign1 0038                       _ABDEN 7DC0                       _ADCS0 7E00  
                     _ADCS1 7E01                       _ADCS2 7E02                       _ADDEN 7D5B  
                     ?_main 0001                ?_read_ds1307 0001                       _ACKEN 7E2C  
                     _ACKDT 7E2D              ??_display_time 0006                       ?_menu 0001  
                     _BCLIF 7D0B             __end_of___fldiv 10C4                       _ACQT0 7E03  
                     _ACQT1 7E04                       _ACQT2 7E05             __end_of___awdiv 20C2  
                     STR_10 2F78                       STR_11 2FB0                       STR_20 2FC9  
                     STR_12 2F94                       STR_21 2FFC                       STR_13 2FA2  
                     STR_22 2FF3                       STR_14 2FE7                       STR_30 2FD2  
                     STR_15 2FF9                       STR_31 2F86                       STR_23 2FED  
                     STR_16 2FE4                       _BRG16 7DC3                       STR_32 2F78  
                     STR_40 2FF0                       STR_24 2FEA                       STR_17 2FE1  
                     STR_41 2EF2                       STR_33 2FB0                       STR_25 2FD5  
                     STR_42 2F58                       STR_18 2FF0                       STR_50 2E9D  
                     STR_34 2F94                       STR_26 2FD8                       STR_43 2F58  
                     STR_51 2FBE                       STR_19 2F58                       STR_35 2FA2  
                     STR_27 2FDB                       STR_60 2F58                       STR_52 2FCE  
                     STR_44 2F47                       STR_36 2FE7                       STR_28 2FDE  
           __end_of___awmod 2222                       STR_61 2F58                       STR_53 2F58  
                     STR_45 2F58                       STR_37 2FF9                       STR_29 2FF6  
                     STR_62 2F58                       STR_54 2F58                       STR_46 2F58  
                     STR_70 2E59                       STR_38 2FE4                       STR_63 2F58  
                     STR_47 2EE1                       STR_55 2ED0                       STR_71 2E13  
                     STR_39 2FE1                       STR_72 2E23                       STR_56 2F58  
                     STR_80 2F69                       STR_48 2F69                       STR_64 2E26  
                     STR_81 2F58                       STR_57 2F58                       STR_49 2F58  
                     STR_73 2E6A                       STR_65 2E48                       STR_66 2F66  
                     STR_90 2F58                       STR_74 2F58                       STR_58 2F58  
                     STR_82 2E9D                       STR_67 2F66                       STR_91 2F58  
                     STR_75 2F58                       STR_59 2F58                       STR_83 2E8C  
                     STR_68 2F66                       STR_84 2F58                       STR_92 2EE1  
                     STR_76 2F36                       STR_93 2F58                       STR_85 2F25  
                     STR_77 2F14                       STR_69 2E7B                       STR_78 2F58  
                     STR_86 2F14                       STR_94 2EAE                       STR_87 2F58  
                     STR_79 2EE1                       STR_95 2E37                       STR_96 2F58  
                     STR_88 2F03                       STR_97 2F58                       STR_89 2EBF  
           __end_of___fltol 1E16                       ?_puts 0002             ___awdiv@divisor 0009  
                     _PCFG0 7E08                       _PCFG1 7E09                       _PCFG2 7E0A  
                     _PCFG3 7E0B             __end_of___lwdiv 24F6             __end_of___lwmod 269C  
              ?_init_config 0001                       i2l532 26E8                       i2l533 26F2  
                     _RCIDL 7DC6             ___awdiv@counter 000B                       _VCFG0 7E0C  
                     _VCFG1 7E0D                       _RCREG 0FAE                       _SENDB 7D63  
                     _SPBRG 0FAF                       _PORTD 0F83                       _TRISB 0F93  
                     _TRISC 0F94                       _TRISD 0F95                       _SSPIF 7CF3  
                     _TXREG 0FAD                ?_init_timer0 0001                       _ind_1 004E  
                     _ind_2 0062                       _count 0051                       _index 0046  
                     _event 0063                       _putch 29BA                       main@i 003E  
           _change_password 0012                       tablat 0FF5                       ttemp5 0060  
                     ttemp6 0063                       ttemp7 0067                       status 0FD8  
                     wtemp8 0060            init_ds1307@dummy 0004                  _i2c_no_ack 2A68  
           __initialization 25D4              ?_i2c_rep_start 0001                __end_of_main 1868  
              __end_of_menu 0986                __end_of_puts 287A            __end_of_i2c_idle 2A28  
          __end_of_i2c_read 2A34            __end_of_i2c_stop 2A60           ??_read_ext_eeprom 0002  
             ?_download_log 0001                      ??_main 003A                      ??_menu 0014  
                    ??_puts 0004               __activetblptr 0002         __end_of_i2c_rx_mode 2A58  
      write_ext_eeprom@data 0002             ??_display_event 0009                      _ADCON0 0FC2  
                    _ABDOVF 7DC7            read_switches@key 0056             ??_display_speed 0013  
                    _ADRESH 0FC4                      _ADRESL 0FC3                      _T08BIT 7EAE  
          ___awdiv@dividend 0007            _write_ext_eeprom 287A                      ?_putch 0001  
                    i2l4630 26E4                      i2l4622 269E                      i2l4632 26F0  
                    i2l4624 26AA                      i2l4626 26B8                      i2l4628 26D2  
              _write_ds1307 294A                      _TMR0IE 7F95                      _TMR0IF 7F92  
                    _TMR0ON 7EAF                      _SSPADD 0FC8                      _TRISC3 7CA3  
                    _TRISC4 7CA4                      _TRISC6 7CA6                      _TRISC7 7CA7  
                    _TRISD7 7CAF                      _SSPBUF 0FC9            __end_of___xxtofl 1C08  
          __end_of_get_time 22D2                      ___wmul 2924                   ??___fldiv 001F  
                 ??___awdiv 000B                   ??___awmod 0005                   ??___fltol 0034  
                 ??___lwdiv 0005                   ??___lwmod 0005            __end_of_init_i2c 2A00  
          __end_of_init_adc 2986            __end_of_read_adc 2746                      clear_0 2618  
                    clear_1 2624              ??_download_log 0011            ___awdiv@quotient 000D  
           ___awmod@divisor 0003                      isa$std 0001                      _prekey 004B  
          __end_of_scan_key 1D10             ___awmod@counter 0005                      _option 0048  
        store_event@address 0007                __pdataCOMRAM 005C     __end_of_change_password 053A  
          __end_of_set_time 0D2A                __mediumconst 2E12           read_event@address 000D  
                    tblptrh 0FF7                      tblptrl 0FF6                      tblptru 0FF8  
          __end_of_view_log 1A54                 read_event@i 0013              _repeated_event 0053  
              ___xxtofl@arg 0013                ___xxtofl@exp 0012                ___xxtofl@val 0009  
                __accesstop 0060     __end_of__initialization 262A        __end_of_display_time 2A16  
             ___rparam_used 0001                  ___fltol@f1 0030             ??_i2c_rep_start 0001  
               ?_i2c_no_ack 0001              __pcstackCOMRAM 0001                __pidataBANK0 28FC  
               _i2c_rx_mode 2A50             store_event@data 0005               __end_of_putch 29D2  
         __end_of_i2c_start 2A68           __end_of_i2c_write 2A40                     ??_putch 0001  
   write_ext_eeprom@address 0004                  __pbssBANK0 0060                   ?_i2c_idle 0001  
                 ?_i2c_read 0001                   ?_i2c_stop 0001              _enter_password 10C4  
                _clcd_print 2568                  _clcd_putch 29D2           store_password@key 0015  
                _clcd_write 280A                ?_store_event 0005             read_ds1307@data 0003  
                   ?___wmul 0007           read_switches@once 005D                     _ACKSTAT 7E2E  
           enter_password@j 0019                   ?___xxtofl 0009            ?_change_password 0001  
                   _SSPCON1 0FC6                   ?_get_time 0001               _read_switches 24F6  
    __end_of_enter_password 1374                  ??_i2c_idle 0001                  ??_i2c_read 0001  
                ??_i2c_stop 0001                   ?_init_i2c 0001        __end_of_download_log 1F18  
                 ?_init_adc 0001                   ?_read_adc 0001           __end_of_clear_log 2402  
                 ?_scan_key 0001             _read_ext_eeprom 28A8                     __Hparam 0000  
                   __Lparam 0000                   ?_set_time 0001          change_password@key 0018  
                _event_flag 005B                     ___fldiv 0D2A                     ___awdiv 1FFE  
                   ___awmod 2172                   ?_view_log 0001                     ___fltol 1D10  
  __end_of_write_ext_eeprom 28A8                     ___lwdiv 2482                store_event@i 0008  
                   ___lwmod 2638                     __pcinit 25D4                     __ramtop 0600  
                _read_event 278E                     __ptext0 15F4                     __ptext1 1868  
                   __ptext2 0986                     __ptext3 24F6                     __ptext4 1C08  
                   __ptext5 26F6                     __ptext6 053A                     __ptext7 278E  
                   __ptext8 28A8                     __ptext9 2924                     _attempt 005C  
         __end_of_init_clcd 2172                  ??___xxtofl 000D           __end_of_init_uart 280A  
          ___awmod@dividend 0001                  _input_pass 008B              ?_read_switches 0001  
                   main@key 003F                  ??_get_time 0004              __pintcode_body 269C  
         enter_password@key 0018        end_of_initialization 262A             ?_enter_password 0001  
                   menu@key 0017                 set_time@key 0008                  ??_init_i2c 0001  
                ??_init_adc 0001               __Lmediumconst 2E12                  ??_read_adc 0003  
                   int_func 269C                  ??_scan_key 0001                 ?_clcd_print 0003  
               ?_clcd_putch 000F                 ?_clcd_write 0001                  ??_set_time 0006  
                   postdec1 0FE5                     postdec2 0FDD                     postinc0 0FEE  
                   postinc1 0FE6                     postinc2 0FDE                  ??_view_log 0014  
           read_adc@channel 0008                _display_time 2A00               i2c_write@data 0001  
             ___xxtofl@sign 0011                 ___fldiv@grs 002A                 ___fldiv@rem 0023  
   __end_of_read_ext_eeprom 28D2       __end_of_display_event 15F4       __end_of_display_speed 2482  
              ??_i2c_no_ack 0001                ?_i2c_rx_mode 0001              __end_of___wmul 294A  
             __pidataCOMRAM 2A6E                 ?_read_event 000D                 view_log@key 0019  
       start_initialization 25D4              _store_password 1F18             ??_read_switches 0001  
                 _i2c_start 2A60                 __end_of_isr 26F6                   _i2c_write 2A34  
        __end_of_i2c_no_ack 2A6E            change_password@i 001D            change_password@j 0019  
     __end_of_i2c_rep_start 2A50        change_password@j_380 001B                    ??___wmul 000B  
             ??_init_ds1307 0004                 __pdataBANK0 008F               ??_read_ds1307 0002  
              _download_log 1E16      __end_of_store_password 1FFE               ??_init_config 0005  
                 ___fldiv@a 001B                   ___fldiv@b 0017               ??_init_timer0 0001  
               __pbssCOMRAM 0040                  ?_i2c_start 0001                  ?_i2c_write 0001  
        display_speed@speed 0011            ?_read_ext_eeprom 0001          store_password@pass 0011  
          ___lwdiv@dividend 0001                   _clear_log 2376                   __pintcode 0008  
             __pmediumconst 2E12                    ?___fldiv 0017                    ?___awdiv 0007  
                  ?___awmod 0001                    ?___fltol 0030          read_ds1307@address 0002  
                  ?___lwdiv 0001                   _clock_reg 0040                    ?___lwmod 0001  
         ?_write_ext_eeprom 0002            _confirm_password 004F          ??_write_ext_eeprom 0003  
           ?_store_password 0011         __end_of_init_ds1307 278E                   _count_eve 0059  
                 _count_isr 0060            ??_enter_password 0016         __end_of_read_ds1307 28FC  
          ___lwdiv@quotient 0005                   _init_clcd 20C2         __end_of_init_config 29A0  
                 _init_uart 27D0                   _log_index 0047               ?_write_ds1307 0002  
       __end_of_init_timer0 29BA                   _pass_flag 005A              ___wmul@product 000B  
              ??_clcd_print 0006                ??_clcd_putch 0010  __end_of_init_matrix_keypad 2A48  
              ??_clcd_write 0002                   _pre_key_1 004A                    i2u444_40 26B8  
                  i2u444_41 26B4                    i2u445_40 26D2                    i2u445_41 26CE  
                  i2u446_40 26E4                    i2u446_41 26E0                  ?_clear_log 0001  
                 _signature 008F                _new_password 0050                   _time_flag 0045  
             download_log@i 0013       clcd_write@control_bit 0001           ___wmul@multiplier 0007  
               ??_i2c_start 0001          __end_of_clcd_print 25D4                 ??_i2c_write 0001  
        __end_of_clcd_putch 29EA          __end_of_clcd_write 2844                  ?_init_clcd 0001  
                ?_init_uart 0001                   copy_data0 25E8              ??_write_ds1307 0003  
                  _i2c_idle 2A16                    _i2c_read 2A28                    _i2c_stop 2A58  
                  __Hrparam 0000                    __Lrparam 0000                 _init_ds1307 2746  
    read_ext_eeprom@address 0002                ??_read_event 0011                 _read_ds1307 28D2  
               _init_config 2986                    ___xxtofl 1A54         write_ds1307@address 0003  
               _init_timer0 29A0             ___lwdiv@divisor 0003             ___lwdiv@counter 0007  
                  __ptext10 2986                    __ptext11 29A0                    __ptext20 2844  
                  __ptext12 2A40                    __ptext21 29BA                    __ptext13 29EA  
                  __ptext30 2A50                    __ptext22 27D0                    __ptext14 2746  
                  __ptext31 2A68                    __ptext23 2172                    __ptext15 294A  
                  __ptext40 2A34                    __ptext32 2402                    __ptext24 1FFE  
                  __ptext16 20C2                    __ptext41 2A58                    __ptext33 2638  
                  __ptext25 2A00                    __ptext17 2968                    __ptext50 0D2A  
                  __ptext42 2A60                    __ptext34 2482                    __ptext26 2222  
                  __ptext18 10C4                    __ptext43 2A16                    __ptext35 1374  
                  __ptext27 28D2                    __ptext19 1E16                    __ptext44 1F18  
                  __ptext36 2376                    __ptext28 2A48                    __ptext45 29D2  
                  __ptext37 22D2                    __ptext29 2A28                    __ptext46 2568  
                  __ptext38 0012                    __ptext47 280A                    __ptext39 287A  
                  __ptext48 1A54                    __ptext49 1D10                    _menu$339 0016  
                  _get_time 2222                    _init_i2c 29EA         read_ext_eeprom@data 0003  
                  _init_adc 2968                    _read_adc 26F6                    _menu_eve 009F  
                  _menu_opt 00A9                    _scan_key 1C08          __end_of_read_event 27D0  
                  _password 00B3                 ??_clear_log 0011               ??_store_event 0007  
         ??_change_password 0016                    _set_time 0986                    isa$xinst 0000  
          display_event@key 000B                    int$flags 005F                    _view_log 1868  
                 putch@data 0001              read_event@data 000F                 ??_init_clcd 0003  
     __end_of_read_switches 2568                 ??_init_uart 0001                    intlevel2 0000  
          ___lwmod@dividend 0001            ??_store_password 0013        __end_of_write_ds1307 2968  
                  puts@data 0002         __end_of_store_event 2376             ___lwmod@divisor 0003  
           ___lwmod@counter 0005            write_ds1307@data 0002               _display_event 1374  
             _display_speed 2402  
